Component: ARM Compiler 5.06 update 4 (build 422) Tool: armlink [4d35d2]

==============================================================================

Section Cross References

    startup_stm32f10x_hd.o(STACK) refers (Special) to heapauxi.o(.text) for __use_two_region_memory
    startup_stm32f10x_hd.o(HEAP) refers (Special) to heapauxi.o(.text) for __use_two_region_memory
    startup_stm32f10x_hd.o(RESET) refers (Special) to heapauxi.o(.text) for __use_two_region_memory
    startup_stm32f10x_hd.o(RESET) refers to startup_stm32f10x_hd.o(STACK) for __initial_sp
    startup_stm32f10x_hd.o(RESET) refers to startup_stm32f10x_hd.o(.text) for Reset_Handler
    startup_stm32f10x_hd.o(.text) refers (Special) to heapauxi.o(.text) for __use_two_region_memory
    startup_stm32f10x_hd.o(.text) refers to system_stm32f10x.o(.text) for SystemInit
    startup_stm32f10x_hd.o(.text) refers to __main.o(!!!main) for __main
    startup_stm32f10x_hd.o(.text) refers to startup_stm32f10x_hd.o(HEAP) for Heap_Mem
    startup_stm32f10x_hd.o(.text) refers to startup_stm32f10x_hd.o(STACK) for Stack_Mem
    system_stm32f10x.o(.ARM.exidx) refers to system_stm32f10x.o(.rev16_text) for __asm___18_system_stm32f10x_c_5d646a67____REV16
    system_stm32f10x.o(.ARM.exidx) refers to system_stm32f10x.o(.revsh_text) for __asm___18_system_stm32f10x_c_5d646a67____REVSH
    system_stm32f10x.o(.text) refers to system_stm32f10x.o(.data) for SystemCoreClock
    system_stm32f10x.o(.ARM.exidx) refers to system_stm32f10x.o(.text) for .text
    system_stm32f10x.o(.ARM.exidx) refers to unwind_pr0.o(.text) for __aeabi_unwind_cpp_pr0
    usart.o(.ARM.exidx) refers to usart.o(.rev16_text) for __asm___7_usart_c_c8fcd1f9____REV16
    usart.o(.ARM.exidx) refers to usart.o(.revsh_text) for __asm___7_usart_c_c8fcd1f9____REVSH
    usart.o(.text) refers to stm32f10x_rcc.o(.text) for RCC_APB2PeriphClockCmd
    usart.o(.text) refers to stm32f10x_gpio.o(.text) for GPIO_Init
    usart.o(.text) refers to stm32f10x_usart.o(.text) for USART_Init
    usart.o(.text) refers to __rtentry.o(.ARM.Collect$$rtentry$$00000000) for $Super$$__rt_entry
    usart.o(.ARM.exidx) refers to usart.o(.text) for .text
    usart.o(.ARM.exidx) refers to unwind_pr0.o(.text) for __aeabi_unwind_cpp_pr0
    main.o(.ARM.exidx) refers to main.o(.rev16_text) for __asm___8_main_cpp_main___Z7__REV16j
    main.o(.ARM.exidx) refers to main.o(.revsh_text) for __asm___8_main_cpp_main___Z7__REVSHi
    main.o(.text) refers to stm32f10x_gpio.o(.text) for GPIO_ResetBits
    main.o(.text) refers to stm32f10x_rcc.o(.text) for RCC_APB2PeriphClockCmd
    main.o(.text) refers to main.o(t._ZNSaISt4pairIKSsiEEC1Ev) for std::allocator<std::pair<const std::basic_string<char, std::char_traits<char>, std::allocator<char>>, int>>::allocator()
    main.o(.text) refers to main.o(t._ZN4__rw9__rb_treeISsSt4pairIKSsiENS_11__select1stIS3_SsEESt4lessISsESaIS3_EEC1ERKS7_bRKS8_) for __rw::__rb_tree<std::basic_string<char, std::char_traits<char>, std::allocator<char>>, std::pair<const std::basic_string<char, std::char_traits<char>, std::allocator<char>>, int>, __rw::__select1st<std::pair<const std::basic_string<char, std::char_traits<char>, std::allocator<char>>, int>, std::basic_string<char, std::char_traits<char>, std::allocator<char>>>, std::less<std::basic_string<char, std::char_traits<char>, std::allocator<char>>>, std::allocator<std::pair<const std::basic_string<char, std::char_traits<char>, std::allocator<char>>, int>>>::__rb_tree(const std::less<std::basic_string<char, std::char_traits<char>, std::allocator<char>>>&, bool, const std::allocator<std::pair<const std::basic_string<char, std::char_traits<char>, std::allocator<char>>, int>>&)
    main.o(.text) refers to main.o(t._ZNSaIcEC1Ev) for std::allocator<char>::allocator()
    main.o(.text) refers to main.o(t._ZNSsC1EPKcRKSaIcE) for std::basic_string<char, std::char_traits<char>, std::allocator<char>>::basic_string(const char*, const std::allocator<char>&)
    main.o(.text) refers to main.o(t._ZNSt3mapISsiSt4lessISsESaISt4pairIKSsiEEEixERS3_) for std::map<std::basic_string<char, std::char_traits<char>, std::allocator<char>>, int, std::less<std::basic_string<char, std::char_traits<char>, std::allocator<char>>>, std::allocator<std::pair<const std::basic_string<char, std::char_traits<char>, std::allocator<char>>, int>>>::operator [](const std::basic_string<char, std::char_traits<char>, std::allocator<char>>&)
    main.o(.text) refers to main.o(t._ZNSsD1Ev) for std::basic_string<char, std::char_traits<char>, std::allocator<char>>::~basic_string()
    main.o(.text) refers to main.o(t._ZStlsISt11char_traitsIcEERSt13basic_ostreamIcT_ES5_PKc) for std::basic_ostream<char, T1>& std::operator <<<std::char_traits<char>>(std::basic_ostream<char, T1>&, const char*)
    main.o(.text) refers to main.o(t._ZNSolsEi) for std::basic_ostream<char, std::char_traits<char>>::operator <<(int)
    main.o(.text) refers to main.o(t._ZNSolsEPFRSoS_E) for std::basic_ostream<char, std::char_traits<char>>::operator <<(std::basic_ostream<char, std::char_traits<char>>&(*)(std::basic_ostream<char, std::char_traits<char>>&))
    main.o(.text) refers to main.o(t._ZNSt3mapISsiSt4lessISsESaISt4pairIKSsiEEE5beginEv) for std::map<std::basic_string<char, std::char_traits<char>, std::allocator<char>>, int, std::less<std::basic_string<char, std::char_traits<char>, std::allocator<char>>>, std::allocator<std::pair<const std::basic_string<char, std::char_traits<char>, std::allocator<char>>, int>>>::begin()
    main.o(.text) refers to main.o(t._ZNK4__rw14__rw_tree_iterISt4pairIKSsiEiPS3_RS3_NS_17__rw_rb_tree_nodeISaIS3_ES3_SsNS_11__select1stIS3_SsEEEEEptEv) for __rw::__rw_tree_iter<std::pair<const std::basic_string<char, std::char_traits<char>, std::allocator<char>>, int>, int, std::pair<const std::basic_string<char, std::char_traits<char>, std::allocator<char>>, int>*, std::pair<const std::basic_string<char, std::char_traits<char>, std::allocator<char>>, int>&, __rw::__rw_rb_tree_node<std::allocator<std::pair<const std::basic_string<char, std::char_traits<char>, std::allocator<char>>, int>>, std::pair<const std::basic_string<char, std::char_traits<char>, std::allocator<char>>, int>, std::basic_string<char, std::char_traits<char>, std::allocator<char>>, __rw::__select1st<std::pair<const std::basic_string<char, std::char_traits<char>, std::allocator<char>>, int>, std::basic_string<char, std::char_traits<char>, std::allocator<char>>>>>::operator ->() const
    main.o(.text) refers to main.o(t._ZStlsIcSt11char_traitsIcESaIcEERSt13basic_ostreamIT_T0_ES7_RKSbIS4_S5_T1_E) for std::basic_ostream<T1, T2>& std::operator <<<char, std::char_traits<char>, std::allocator<char>>(std::basic_ostream<T1, T2>&, const std::basic_string<T1, T2, T3>&)
    main.o(.text) refers to main.o(t._ZN4__rw11__rw_insertIcSt11char_traitsIcEmEERSt13basic_ostreamIT_T0_ES7_T1_) for std::basic_ostream<T1, T2>& __rw::__rw_insert<char, std::char_traits<char>, unsigned long>(std::basic_ostream<T1, T2>&, T3)
    main.o(.text) refers to main.o(t._ZN4__rw14__rw_tree_iterISt4pairIKSsiEiPS3_RS3_NS_17__rw_rb_tree_nodeISaIS3_ES3_SsNS_11__select1stIS3_SsEEEEEppEi) for __rw::__rw_tree_iter<std::pair<const std::basic_string<char, std::char_traits<char>, std::allocator<char>>, int>, int, std::pair<const std::basic_string<char, std::char_traits<char>, std::allocator<char>>, int>*, std::pair<const std::basic_string<char, std::char_traits<char>, std::allocator<char>>, int>&, __rw::__rw_rb_tree_node<std::allocator<std::pair<const std::basic_string<char, std::char_traits<char>, std::allocator<char>>, int>>, std::pair<const std::basic_string<char, std::char_traits<char>, std::allocator<char>>, int>, std::basic_string<char, std::char_traits<char>, std::allocator<char>>, __rw::__select1st<std::pair<const std::basic_string<char, std::char_traits<char>, std::allocator<char>>, int>, std::basic_string<char, std::char_traits<char>, std::allocator<char>>>>>::operator ++(int)
    main.o(.text) refers to main.o(t._ZN4__rw9__rb_treeISsSt4pairIKSsiENS_11__select1stIS3_SsEESt4lessISsESaIS3_EE3endEv) for __rw::__rb_tree<std::basic_string<char, std::char_traits<char>, std::allocator<char>>, std::pair<const std::basic_string<char, std::char_traits<char>, std::allocator<char>>, int>, __rw::__select1st<std::pair<const std::basic_string<char, std::char_traits<char>, std::allocator<char>>, int>, std::basic_string<char, std::char_traits<char>, std::allocator<char>>>, std::less<std::basic_string<char, std::char_traits<char>, std::allocator<char>>>, std::allocator<std::pair<const std::basic_string<char, std::char_traits<char>, std::allocator<char>>, int>>>::end()
    main.o(.text) refers to main.o(t._ZN4__rwneISt4pairIKSsiEiPS3_RS3_S4_S5_NS_17__rw_rb_tree_nodeISaIS3_ES3_SsNS_11__select1stIS3_SsEEEEEEbRKNS_14__rw_tree_iterIT_T0_T1_T2_T5_EERKNSB_ISC_SD_T3_T4_SG_EE) for bool __rw::operator !=<std::pair<const std::basic_string<char, std::char_traits<char>, std::allocator<char>>, int>, int, std::pair<const std::basic_string<char, std::char_traits<char>, std::allocator<char>>, int>*, std::pair<const std::basic_string<char, std::char_traits<char>, std::allocator<char>>, int>&, std::pair<const std::basic_string<char, std::char_traits<char>, std::allocator<char>>, int>*, std::pair<const std::basic_string<char, std::char_traits<char>, std::allocator<char>>, int>&, __rw::__rw_rb_tree_node<std::allocator<std::pair<const std::basic_string<char, std::char_traits<char>, std::allocator<char>>, int>>, std::pair<const std::basic_string<char, std::char_traits<char>, std::allocator<char>>, int>, std::basic_string<char, std::char_traits<char>, std::allocator<char>>, __rw::__select1st<std::pair<const std::basic_string<char, std::char_traits<char>, std::allocator<char>>, int>, std::basic_string<char, std::char_traits<char>, std::allocator<char>>>>>(const __rw::__rw_tree_iter<T1, T2, T3, T4, T7>&, const __rw::__rw_tree_iter<T1, T2, T5, T6, T7>&)
    main.o(.text) refers to ios.o(i._ZNSt8ios_base4InitC1Ev) for std::ios_base::Init::Init()
    main.o(.text) refers to aeabi_atexit.o(.text) for __aeabi_atexit
    main.o(.text) refers to cxa_guard_acquire.o(i.__cxa_guard_acquire) for __cxa_guard_acquire
    main.o(.text) refers to main.o(i._ZNSt6locale2idC1Ev) for std::locale::id::id()
    main.o(.text) refers to ios.o(.data) for std::cout
    main.o(.text) refers to main.o(t._ZSt4endlIcSt11char_traitsIcEERSt13basic_ostreamIT_T0_ES6_) for std::basic_ostream<T1, T2>& std::endl<char, std::char_traits<char>>(std::basic_ostream<T1, T2>&)
    main.o(.text) refers to main.o(.data) for __rw::__rw_stream_initializer
    main.o(.text) refers to ios.o(i._ZNSt8ios_base4InitD1Ev) for std::ios_base::Init::~Init()
    main.o(.text) refers to main.o(.data__ZNSt8numpunctIcE2idE) for guard variable for std::numpunct<char>::id
    main.o(.text) refers to main.o(.data__ZNSt7num_putIcSt19ostreambuf_iteratorIcSt11char_traitsIcEEE2idE) for guard variable for std::num_put<char, std::ostreambuf_iterator<char, std::char_traits<char>>>::id
    main.o(.text.clean) refers to main.o(t._ZNSsD1Ev) for std::basic_string<char, std::char_traits<char>, std::allocator<char>>::~basic_string()
    main.o(.text.clean) refers to main.o(i._ZNSt3mapISsiSt4lessISsESaISt4pairIKSsiEEED1Ev) for std::map<std::basic_string<char, std::char_traits<char>, std::allocator<char>>, int, std::less<std::basic_string<char, std::char_traits<char>, std::allocator<char>>>, std::allocator<std::pair<const std::basic_string<char, std::char_traits<char>, std::allocator<char>>, int>>>::~map()
    main.o(.text.clean) refers to arm_exceptions_cleanup.o(.emb_text) for __cxa_end_cleanup
    main.o(.ARM.exidx) refers to main.o(.text) for .text
    main.o(.ARM.exidx) refers to unwind_pr0.o(.text) for __aeabi_unwind_cpp_pr0
    main.o(.ARM.exidx) refers to main.o(.ARM.extab) for .extab.main
    main.o(.ARM.exidx) refers to main.o(.text.clean) for .text.clean
    main.o(.ARM.extab) refers to main.o(.text.clean) for .text.clean
    main.o(.init_array) refers to main.o(.text) for __sti___8_main_cpp_main
    main.o(.init_array) refers to init_aeabi.o(.text) for __cpp_initialize__aeabi_
    retarget.o(.text) refers (Special) to use_no_semi.o(.text) for __use_no_semihosting_swi
    retarget.o(.text) refers to usart.o(.text) for SER_PutChar
    retarget.o(.ARM.exidx) refers (Special) to use_no_semi.o(.text) for __use_no_semihosting_swi
    retarget.o(.ARM.exidx) refers to retarget.o(.text) for .text
    retarget.o(.ARM.exidx) refers to unwind_pr0.o(.text) for __aeabi_unwind_cpp_pr0
    retarget.o(.data) refers (Special) to use_no_semi.o(.text) for __use_no_semihosting_swi
    stm32f10x_gpio.o(.ARM.exidx) refers to stm32f10x_gpio.o(.rev16_text) for __asm___16_stm32f10x_gpio_c_f8e8e39a____REV16
    stm32f10x_gpio.o(.ARM.exidx) refers to stm32f10x_gpio.o(.revsh_text) for __asm___16_stm32f10x_gpio_c_f8e8e39a____REVSH
    stm32f10x_gpio.o(.text) refers to stm32f10x_rcc.o(.text) for RCC_APB2PeriphResetCmd
    stm32f10x_gpio.o(.ARM.exidx) refers to stm32f10x_gpio.o(.text) for .text
    stm32f10x_gpio.o(.ARM.exidx) refers to unwind_pr0.o(.text) for __aeabi_unwind_cpp_pr0
    stm32f10x_rcc.o(.ARM.exidx) refers to stm32f10x_rcc.o(.rev16_text) for __asm___15_stm32f10x_rcc_c_49e27980____REV16
    stm32f10x_rcc.o(.ARM.exidx) refers to stm32f10x_rcc.o(.revsh_text) for __asm___15_stm32f10x_rcc_c_49e27980____REVSH
    stm32f10x_rcc.o(.text) refers to stm32f10x_rcc.o(.data) for APBAHBPrescTable
    stm32f10x_rcc.o(.ARM.exidx) refers to stm32f10x_rcc.o(.text) for .text
    stm32f10x_rcc.o(.ARM.exidx) refers to unwind_pr0.o(.text) for __aeabi_unwind_cpp_pr0
    stm32f10x_usart.o(.ARM.exidx) refers to stm32f10x_usart.o(.rev16_text) for __asm___17_stm32f10x_usart_c_9565154b____REV16
    stm32f10x_usart.o(.ARM.exidx) refers to stm32f10x_usart.o(.revsh_text) for __asm___17_stm32f10x_usart_c_9565154b____REVSH
    stm32f10x_usart.o(.text) refers to stm32f10x_rcc.o(.text) for RCC_APB2PeriphResetCmd
    stm32f10x_usart.o(.ARM.exidx) refers to stm32f10x_usart.o(.text) for .text
    stm32f10x_usart.o(.ARM.exidx) refers to unwind_pr0.o(.text) for __aeabi_unwind_cpp_pr0
    __rtentry.o(.ARM.Collect$$rtentry$$00000000) refers (Special) to __rtentry2.o(.ARM.Collect$$rtentry$$0000000A) for __rt_entry_li
    __rtentry.o(.ARM.Collect$$rtentry$$00000000) refers (Special) to __rtentry2.o(.ARM.Collect$$rtentry$$0000000D) for __rt_entry_main
    __rtentry.o(.ARM.Collect$$rtentry$$00000000) refers (Special) to __rtentry2.o(.ARM.Collect$$rtentry$$0000000C) for __rt_entry_postli_1
    __rtentry.o(.ARM.Collect$$rtentry$$00000000) refers (Special) to __rtentry2.o(.ARM.Collect$$rtentry$$00000009) for __rt_entry_postsh_1
    __rtentry.o(.ARM.Collect$$rtentry$$00000000) refers (Special) to __rtentry2.o(.ARM.Collect$$rtentry$$00000002) for __rt_entry_presh_1
    __rtentry.o(.ARM.Collect$$rtentry$$00000000) refers (Special) to __rtentry4.o(.ARM.Collect$$rtentry$$00000004) for __rt_entry_sh
    atexit_aeabi.o(.text) refers to aeabi_atexit.o(.text) for __aeabi_atexit
    atexit_aeabi.o(.ARM.exidx) refers to atexit_aeabi.o(.text) for .text
    aeabi_atexit.o(.text) refers (Special) to cxa_finalize.o(.text) for __cxa_finalize
    aeabi_atexit.o(.text) refers to h1_alloc.o(.text) for malloc
    aeabi_atexit.o(.text) refers to rt_ddtor_pointer_addr_intlibspace.o(.text) for __rt_ddtor_pointer_addr
    aeabi_atexit.o(.ARM.exidx) refers (Special) to cxa_finalize.o(.text) for __cxa_finalize
    aeabi_atexit.o(.ARM.exidx) refers to aeabi_atexit.o(.text) for .text
    rt_memcpy_v6.o(.text) refers to rt_memcpy_w.o(.text) for __aeabi_memcpy4
    rt_memmove_v6.o(.text) refers to rt_memcpy_v6.o(.text) for __aeabi_memcpy
    rt_memmove_v6.o(.text) refers to rt_memmove_w.o(.text) for __memmove_aligned
    __main.o(!!!main) refers to usart.o(.text) for __rt_entry
    init_aeabi.o(.emb_text) refers (Special) to libinit2.o(.ARM.Collect$$libinit$$00000031) for __rt_lib_init_cpp_2
    init_aeabi.o(.init_array) refers (Special) to libinit2.o(.ARM.Collect$$libinit$$00000031) for __rt_lib_init_cpp_2
    init_aeabi.o(.init_array) refers to init_aeabi.o(.text) for __cpp_initialize__aeabi_
    init_aeabi.o(.dummy_text) refers (Special) to libinit2.o(.ARM.Collect$$libinit$$00000031) for __rt_lib_init_cpp_2
    init_aeabi.o(.text) refers (Special) to libinit2.o(.ARM.Collect$$libinit$$00000031) for __rt_lib_init_cpp_2
    init_aeabi.o(.ARM.exidx) refers (Special) to libinit2.o(.ARM.Collect$$libinit$$00000031) for __rt_lib_init_cpp_2
    init_aeabi.o(.ARM.exidx) refers to init_aeabi.o(.text) for .text
    char.o(i._ZNKSt14collate_bynameIcE10do_compareEPKcS2_S2_S2_) refers to locale.o(i._ZN4__rw21__rw_use_c_lib_localeC1EPKci) for __rw::__rw_use_c_lib_locale::__rw_use_c_lib_locale(const char*, int)
    char.o(i._ZNKSt14collate_bynameIcE10do_compareEPKcS2_S2_S2_) refers to array_new.o(i._Znaj) for operator new[] (unsigned)
    char.o(i._ZNKSt14collate_bynameIcE10do_compareEPKcS2_S2_S2_) refers to rt_memcpy_v6.o(.text) for __aeabi_memcpy
    char.o(i._ZNKSt14collate_bynameIcE10do_compareEPKcS2_S2_S2_) refers to strcoll.o(.text) for strcoll
    char.o(i._ZNKSt14collate_bynameIcE10do_compareEPKcS2_S2_S2_) refers to array_del.o(i._ZdaPv) for operator delete[] (void*)
    char.o(i._ZNKSt14collate_bynameIcE10do_compareEPKcS2_S2_S2_) refers to char.o(i._ZN4__rw21__rw_use_c_lib_localeD1Ev) for __rw::__rw_use_c_lib_locale::~__rw_use_c_lib_locale()
    char.o(i._ZNKSt14collate_bynameIcE10do_compareEPKcS2_S2_S2_.clean) refers to char.o(i._ZN4__rw21__rw_use_c_lib_localeD1Ev) for __rw::__rw_use_c_lib_locale::~__rw_use_c_lib_locale()
    char.o(i._ZNKSt14collate_bynameIcE10do_compareEPKcS2_S2_S2_.clean) refers to arm_exceptions_cleanup.o(.emb_text) for __cxa_end_cleanup
    char.o(i._ZNKSt14collate_bynameIcE12do_transformEPKcS2_) refers to locale.o(i._ZN4__rw21__rw_use_c_lib_localeC1EPKci) for __rw::__rw_use_c_lib_locale::__rw_use_c_lib_locale(const char*, int)
    char.o(i._ZNKSt14collate_bynameIcE12do_transformEPKcS2_) refers to array_new.o(i._Znaj) for operator new[] (unsigned)
    char.o(i._ZNKSt14collate_bynameIcE12do_transformEPKcS2_) refers to rt_memcpy_v6.o(.text) for __aeabi_memcpy
    char.o(i._ZNKSt14collate_bynameIcE12do_transformEPKcS2_) refers to strxfrm.o(.text) for strxfrm
    char.o(i._ZNKSt14collate_bynameIcE12do_transformEPKcS2_) refers to main.o(t._ZNSaIcEC1Ev) for std::allocator<char>::allocator()
    char.o(i._ZNKSt14collate_bynameIcE12do_transformEPKcS2_) refers to char.o(t._ZNSsC1EPKcjRKSaIcE) for std::basic_string<char, std::char_traits<char>, std::allocator<char>>::basic_string(const char*, unsigned, const std::allocator<char>&)
    char.o(i._ZNKSt14collate_bynameIcE12do_transformEPKcS2_) refers to char.o(t._ZNSs5beginEv) for std::basic_string<char, std::char_traits<char>, std::allocator<char>>::begin()
    char.o(i._ZNKSt14collate_bynameIcE12do_transformEPKcS2_) refers to array_del.o(i._ZdaPv) for operator delete[] (void*)
    char.o(i._ZNKSt14collate_bynameIcE12do_transformEPKcS2_) refers to char.o(i._ZN4__rw21__rw_use_c_lib_localeD1Ev) for __rw::__rw_use_c_lib_locale::~__rw_use_c_lib_locale()
    char.o(i._ZNKSt14collate_bynameIcE12do_transformEPKcS2_.clean) refers to main.o(t._ZNSsD1Ev) for std::basic_string<char, std::char_traits<char>, std::allocator<char>>::~basic_string()
    char.o(i._ZNKSt14collate_bynameIcE12do_transformEPKcS2_.clean) refers to char.o(i._ZN4__rw21__rw_use_c_lib_localeD1Ev) for __rw::__rw_use_c_lib_locale::~__rw_use_c_lib_locale()
    char.o(i._ZNKSt14collate_bynameIcE12do_transformEPKcS2_.clean) refers to arm_exceptions_cleanup.o(.emb_text) for __cxa_end_cleanup
    char.o(i._ZNSt12ctype_bynameIcE17_C_get_mask_tableEPKc) refers to strcmpv7m.o(.text) for strcmp
    char.o(i._ZNSt12ctype_bynameIcE17_C_get_mask_tableEPKc) refers to array_new.o(i._Znaj) for operator new[] (unsigned)
    char.o(i._ZNSt12ctype_bynameIcE17_C_get_mask_tableEPKc) refers to locale.o(i._ZN4__rw21__rw_use_c_lib_localeC1EPKci) for __rw::__rw_use_c_lib_locale::__rw_use_c_lib_locale(const char*, int)
    char.o(i._ZNSt12ctype_bynameIcE17_C_get_mask_tableEPKc) refers to rt_ctype_table.o(.text) for __rt_ctype_table
    char.o(i._ZNSt12ctype_bynameIcE17_C_get_mask_tableEPKc) refers to char.o(i._ZN4__rw21__rw_use_c_lib_localeD1Ev) for __rw::__rw_use_c_lib_locale::~__rw_use_c_lib_locale()
    char.o(i._ZNSt12ctype_bynameIcE17_C_get_mask_tableEPKc) refers to char.o(.constdata) for .constdata
    char.o(i._ZNSt12ctype_bynameIcE17_C_get_mask_tableEPKc.clean) refers to arm_exceptions_cleanup.o(.emb_text) for __cxa_end_cleanup
    char.o(i._ZNSt12ctype_bynameIcEC1EPKcj) refers to char.o(i._ZNSt12ctype_bynameIcE17_C_get_mask_tableEPKc) for std::ctype_byname<char>::_C_get_mask_table(const char*)
    char.o(i._ZNSt12ctype_bynameIcEC1EPKcj) refers to char.o(i._ZNSt5ctypeIcEC1EPKNSt10ctype_base4maskEbj) for std::ctype<char>::ctype(const std::ctype_base::mask*, bool, unsigned)
    char.o(i._ZNSt12ctype_bynameIcEC1EPKcj) refers to locale.o(i._ZN4__rw21__rw_use_c_lib_localeC1EPKci) for __rw::__rw_use_c_lib_locale::__rw_use_c_lib_locale(const char*, int)
    char.o(i._ZNSt12ctype_bynameIcEC1EPKcj) refers to char.o(i._ZNKSt5ctypeIcE2isENSt10ctype_base4maskEc) for std::ctype<char>::is(std::ctype_base::mask, char) const
    char.o(i._ZNSt12ctype_bynameIcEC1EPKcj) refers to char.o(i._ZN4__rw21__rw_use_c_lib_localeD1Ev) for __rw::__rw_use_c_lib_locale::~__rw_use_c_lib_locale()
    char.o(i._ZNSt12ctype_bynameIcEC1EPKcj) refers to char.o(.constdata__ZTVSt12ctype_bynameIcE) for vtable for std::ctype_byname<char>
    char.o(i._ZNSt12ctype_bynameIcEC1EPKcj) refers to char.o(.constdata) for .constdata
    char.o(i._ZNSt12ctype_bynameIcEC1EPKcj.clean) refers to char.o(i._ZN4__rw21__rw_use_c_lib_localeD1Ev) for __rw::__rw_use_c_lib_locale::~__rw_use_c_lib_locale()
    char.o(i._ZNSt12ctype_bynameIcEC1EPKcj.clean) refers to char.o(i._ZNSt5ctypeIcED1Ev) for std::ctype<char>::~ctype()
    char.o(i._ZNSt12ctype_bynameIcEC1EPKcj.clean) refers to arm_exceptions_cleanup.o(.emb_text) for __cxa_end_cleanup
    char.o(i._ZNSt5ctypeIcE12_C_initfacetERKSt6locale) refers to locale.o(i._ZNKSt6locale4nameEv) for std::locale::name() const
    char.o(i._ZNSt5ctypeIcE12_C_initfacetERKSt6locale) refers to locale.o(i._ZN4__rw21__rw_use_c_lib_localeC1EPKci) for __rw::__rw_use_c_lib_locale::__rw_use_c_lib_locale(const char*, int)
    char.o(i._ZNSt5ctypeIcE12_C_initfacetERKSt6locale) refers to main.o(t._ZNSsD1Ev) for std::basic_string<char, std::char_traits<char>, std::allocator<char>>::~basic_string()
    char.o(i._ZNSt5ctypeIcE12_C_initfacetERKSt6locale) refers to char.o(i._ZNKSt5ctypeIcE2isENSt10ctype_base4maskEc) for std::ctype<char>::is(std::ctype_base::mask, char) const
    char.o(i._ZNSt5ctypeIcE12_C_initfacetERKSt6locale) refers to char.o(i._ZN4__rw21__rw_use_c_lib_localeD1Ev) for __rw::__rw_use_c_lib_locale::~__rw_use_c_lib_locale()
    char.o(i._ZNSt5ctypeIcE12_C_initfacetERKSt6locale.clean) refers to char.o(i._ZN4__rw21__rw_use_c_lib_localeD1Ev) for __rw::__rw_use_c_lib_locale::~__rw_use_c_lib_locale()
    char.o(i._ZNSt5ctypeIcE12_C_initfacetERKSt6locale.clean) refers to arm_exceptions_cleanup.o(.emb_text) for __cxa_end_cleanup
    char.o(i._ZNSt5ctypeIcE12_C_initfacetERKSt6locale.clean) refers to main.o(t._ZNSsD1Ev) for std::basic_string<char, std::char_traits<char>, std::allocator<char>>::~basic_string()
    char.o(i._ZNSt5ctypeIcEC1EPKNSt10ctype_base4maskEbj) refers to char.o(i._ZNKSt5ctypeIcE2isENSt10ctype_base4maskEc) for std::ctype<char>::is(std::ctype_base::mask, char) const
    char.o(i._ZNSt5ctypeIcEC1EPKNSt10ctype_base4maskEbj) refers to array_new.o(i._Znaj) for operator new[] (unsigned)
    char.o(i._ZNSt5ctypeIcEC1EPKNSt10ctype_base4maskEbj) refers to char.o(.constdata__ZTVSt5ctypeIcE) for vtable for std::ctype<char>
    char.o(i._ZNSt5ctypeIcEC1EPKNSt10ctype_base4maskEbj) refers to char.o(.constdata) for .constdata
    char.o(i._ZNSt5ctypeIcEC1EPKNSt10ctype_base4maskEbj.clean) refers to main.o(i._ZNSt6locale5facetD1Ev) for std::locale::facet::~facet()
    char.o(i._ZNSt5ctypeIcEC1EPKNSt10ctype_base4maskEbj.clean) refers to arm_exceptions_cleanup.o(.emb_text) for __cxa_end_cleanup
    char.o(i.__sti___8_char_cpp_a3dc957a) refers to char.o(.data) for .data
    char.o(.ARM.exidx) refers to char.o(i._ZNSt5ctypeIcE12_C_initfacetERKSt6locale) for i._ZNSt5ctypeIcE12_C_initfacetERKSt6locale
    char.o(.ARM.exidx) refers to unwind_pr0.o(.text) for __aeabi_unwind_cpp_pr0
    char.o(.ARM.exidx) refers to char.o(.ARM.extab) for .extab._ZNSt5ctypeIcE12_C_initfacetERKSt6locale
    char.o(.ARM.exidx) refers to char.o(i._ZNSt5ctypeIcE12_C_initfacetERKSt6locale.clean) for i._ZNSt5ctypeIcE12_C_initfacetERKSt6locale.clean
    char.o(.ARM.exidx) refers to char.o(i._ZNSt5ctypeIcEC1EPKNSt10ctype_base4maskEbj) for i._ZNSt5ctypeIcEC1EPKNSt10ctype_base4maskEbj
    char.o(.ARM.exidx) refers to unwind_pr0.o(.text) for __aeabi_unwind_cpp_pr0
    char.o(.ARM.exidx) refers to char.o(.ARM.extab) for .extab._ZNSt5ctypeIcEC1EPKNSt10ctype_base4maskEbj
    char.o(.ARM.exidx) refers to char.o(i._ZNSt5ctypeIcEC1EPKNSt10ctype_base4maskEbj.clean) for i._ZNSt5ctypeIcEC1EPKNSt10ctype_base4maskEbj.clean
    char.o(.ARM.exidx) refers to char.o(i._ZNSt12ctype_bynameIcE17_C_get_mask_tableEPKc) for i._ZNSt12ctype_bynameIcE17_C_get_mask_tableEPKc
    char.o(.ARM.exidx) refers to unwind_pr0.o(.text) for __aeabi_unwind_cpp_pr0
    char.o(.ARM.exidx) refers to char.o(i._ZNSt12ctype_bynameIcE17_C_get_mask_tableEPKc.clean) for i._ZNSt12ctype_bynameIcE17_C_get_mask_tableEPKc.clean
    char.o(.ARM.exidx) refers to char.o(i._ZNSt12ctype_bynameIcEC1EPKcj) for i._ZNSt12ctype_bynameIcEC1EPKcj
    char.o(.ARM.exidx) refers to unwind_pr0.o(.text) for __aeabi_unwind_cpp_pr0
    char.o(.ARM.exidx) refers to char.o(.ARM.extab) for .extab._ZNSt12ctype_bynameIcEC1EPKcj
    char.o(.ARM.exidx) refers to char.o(i._ZNSt12ctype_bynameIcEC1EPKcj.clean) for i._ZNSt12ctype_bynameIcEC1EPKcj.clean
    char.o(.ARM.exidx) refers to char.o(i._ZNKSt14collate_bynameIcE10do_compareEPKcS2_S2_S2_) for i._ZNKSt14collate_bynameIcE10do_compareEPKcS2_S2_S2_
    char.o(.ARM.exidx) refers to unwind_pr0.o(.text) for __aeabi_unwind_cpp_pr0
    char.o(.ARM.exidx) refers to char.o(.ARM.extab) for .extab._ZNKSt14collate_bynameIcE10do_compareEPKcS2_S2_S2_
    char.o(.ARM.exidx) refers to char.o(i._ZNKSt14collate_bynameIcE10do_compareEPKcS2_S2_S2_.clean) for i._ZNKSt14collate_bynameIcE10do_compareEPKcS2_S2_S2_.clean
    char.o(.ARM.exidx) refers to char.o(i._ZNKSt14collate_bynameIcE12do_transformEPKcS2_) for i._ZNKSt14collate_bynameIcE12do_transformEPKcS2_
    char.o(.ARM.exidx) refers to unwind_pr0.o(.text) for __aeabi_unwind_cpp_pr0
    char.o(.ARM.exidx) refers to char.o(.ARM.extab) for .extab._ZNKSt14collate_bynameIcE12do_transformEPKcS2_
    char.o(.ARM.exidx) refers to char.o(i._ZNKSt14collate_bynameIcE12do_transformEPKcS2_.clean) for i._ZNKSt14collate_bynameIcE12do_transformEPKcS2_.clean
    char.o(.ARM.exidx) refers to char.o(i.__sti___8_char_cpp_a3dc957a) for i.__sti___8_char_cpp_a3dc957a
    char.o(.ARM.extab) refers to char.o(i._ZNSt5ctypeIcE12_C_initfacetERKSt6locale.clean) for i._ZNSt5ctypeIcE12_C_initfacetERKSt6locale.clean
    char.o(.ARM.extab) refers to char.o(i._ZNSt5ctypeIcEC1EPKNSt10ctype_base4maskEbj.clean) for i._ZNSt5ctypeIcEC1EPKNSt10ctype_base4maskEbj.clean
    char.o(.ARM.extab) refers to char.o(i._ZNSt12ctype_bynameIcEC1EPKcj.clean) for i._ZNSt12ctype_bynameIcEC1EPKcj.clean
    char.o(.ARM.extab) refers to char.o(i._ZNKSt14collate_bynameIcE10do_compareEPKcS2_S2_S2_.clean) for i._ZNKSt14collate_bynameIcE10do_compareEPKcS2_S2_S2_.clean
    char.o(.ARM.extab) refers to char.o(i._ZNKSt14collate_bynameIcE12do_transformEPKcS2_.clean) for i._ZNKSt14collate_bynameIcE12do_transformEPKcS2_.clean
    char.o(.init_array) refers to char.o(i.__sti___8_char_cpp_a3dc957a) for __sti___8_char_cpp_a3dc957a
    char.o(.init_array) refers to init_aeabi.o(.text) for __cpp_initialize__aeabi_
    ios.o(i._ZNSt8ios_base10_C_copyfmtERKS_) refers to array_new.o(i._Znaj) for operator new[] (unsigned)
    ios.o(i._ZNSt8ios_base10_C_copyfmtERKS_) refers to rt_memcpy_w.o(.text) for __aeabi_memcpy4
    ios.o(i._ZNSt8ios_base10_C_copyfmtERKS_) refers to ios.o(i._ZNSt8ios_base13_C_fire_eventENS_5eventEb) for std::ios_base::_C_fire_event(std::ios_base::event, bool)
    ios.o(i._ZNSt8ios_base10_C_copyfmtERKS_) refers to array_del.o(i._ZdaPv) for operator delete[] (void*)
    ios.o(i._ZNSt8ios_base10_C_copyfmtERKS_) refers to arm_exceptions_begincatch.o(.text) for __cxa_begin_catch
    ios.o(i._ZNSt8ios_base10_C_copyfmtERKS_) refers to arm_exceptions_rethrow.o(.text) for __cxa_rethrow
    ios.o(i._ZNSt8ios_base10_C_copyfmtERKS_.clean) refers to arm_exceptions_endcatch.o(.text) for __cxa_end_catch
    ios.o(i._ZNSt8ios_base10_C_copyfmtERKS_.clean) refers to arm_exceptions_cleanup.o(.emb_text) for __cxa_end_cleanup
    ios.o(i._ZNSt8ios_base13_C_fire_eventENS_5eventEb) refers to ios.o(i._ZN4__rw27__rw_reallocate_temp_bufferEPvj) for __rw::__rw_reallocate_temp_buffer(void*, unsigned)
    ios.o(i._ZNSt8ios_base13_C_fire_eventENS_5eventEb) refers to rt_memcpy_w.o(.text) for __aeabi_memcpy4
    ios.o(i._ZNSt8ios_base13_C_fire_eventENS_5eventEb) refers to ios.o(i._ZNSt8ios_base15_C_unsafe_clearEii) for std::ios_base::_C_unsafe_clear(int, int)
    ios.o(i._ZNSt8ios_base13_C_fire_eventENS_5eventEb) refers to ios.o(t._ZSt23return_temporary_bufferINSt8ios_base11_C_event_cbEEvPT_) for void std::return_temporary_buffer<std::ios_base::_C_event_cb>(T1*)
    ios.o(i._ZNSt8ios_base13_C_fire_eventENS_5eventEb) refers to arm_exceptions_begincatch.o(.text) for __cxa_begin_catch
    ios.o(i._ZNSt8ios_base13_C_fire_eventENS_5eventEb) refers to arm_exceptions_rethrow.o(.text) for __cxa_rethrow
    ios.o(i._ZNSt8ios_base13_C_fire_eventENS_5eventEb.clean) refers to arm_exceptions_endcatch.o(.text) for __cxa_end_catch
    ios.o(i._ZNSt8ios_base13_C_fire_eventENS_5eventEb.clean) refers to arm_exceptions_cleanup.o(.emb_text) for __cxa_end_cleanup
    ios.o(i._ZNSt8ios_base15_C_unsafe_clearEii) refers to rwstdexcept.o(i._ZN4__rw10__rw_throwEiz) for __rw::__rw_throw(int, ...)
    ios.o(i._ZNSt8ios_base15_C_unsafe_clearEii) refers to ios.o(.bss) for .bss
    ios.o(i._ZNSt8ios_base15_C_unsafe_clearEii) refers to ios.o(.constdata) for .constdata
    ios.o(i._ZNSt8ios_base17register_callbackEPFvNS_5eventERS_iEi) refers to ios.o(t._ZN4__rw17__rw_resize_arrayINSt8ios_base11_C_event_cbEjEEPT_S4_RT0_i) for T1* __rw::__rw_resize_array<std::ios_base::_C_event_cb, unsigned>(T1*, T2&, int)
    ios.o(i._ZNSt8ios_base17register_callbackEPFvNS_5eventERS_iEi) refers to ios.o(i._ZNSt8ios_base15_C_unsafe_clearEii) for std::ios_base::_C_unsafe_clear(int, int)
    ios.o(i._ZNSt8ios_base4InitC1Ev) refers to main.o(i._ZnwjPv) for operator new(unsigned, void*)
    ios.o(i._ZNSt8ios_base4InitC1Ev) refers to ios.o(t._ZNSt13basic_filebufIcSt11char_traitsIcEEC1EPSt6__FILEPcl) for std::basic_filebuf<char, std::char_traits<char>>::basic_filebuf(std::__FILE*, char*, long)
    ios.o(i._ZNSt8ios_base4InitC1Ev) refers to ios.o(t._ZNSt9basic_iosIcSt11char_traitsIcEEC1Ev) for std::basic_ios<char, std::char_traits<char>>::basic_ios()
    ios.o(i._ZNSt8ios_base4InitC1Ev) refers to ios.o(t._ZNSt9basic_iosIcSt11char_traitsIcEE4initEPSt15basic_streambufIcS1_E) for std::basic_ios<char, std::char_traits<char>>::init(std::basic_streambuf<char, std::char_traits<char>>*)
    ios.o(i._ZNSt8ios_base4InitC1Ev) refers to ios.o(t._ZNSoC1EPSt15basic_streambufIcSt11char_traitsIcEE) for std::basic_ostream<char, std::char_traits<char>>::basic_ostream(std::basic_streambuf<char, std::char_traits<char>>*)
    ios.o(i._ZNSt8ios_base4InitC1Ev) refers to ios.o(t._ZNSt13basic_filebufIwSt11char_traitsIwEEC1EPSt6__FILEPwl) for std::basic_filebuf<wchar_t, std::char_traits<wchar_t>>::basic_filebuf(std::__FILE*, wchar_t*, long)
    ios.o(i._ZNSt8ios_base4InitC1Ev) refers to ios.o(t._ZNSt9basic_iosIwSt11char_traitsIwEEC1Ev) for std::basic_ios<wchar_t, std::char_traits<wchar_t>>::basic_ios()
    ios.o(i._ZNSt8ios_base4InitC1Ev) refers to ios.o(t._ZNSt9basic_iosIwSt11char_traitsIwEE4initEPSt15basic_streambufIwS1_E) for std::basic_ios<wchar_t, std::char_traits<wchar_t>>::init(std::basic_streambuf<wchar_t, std::char_traits<wchar_t>>*)
    ios.o(i._ZNSt8ios_base4InitC1Ev) refers to ios.o(t._ZNSt13basic_ostreamIwSt11char_traitsIwEEC1EPSt15basic_streambufIwS1_E) for std::basic_ostream<wchar_t, std::char_traits<wchar_t>>::basic_ostream(std::basic_streambuf<wchar_t, std::char_traits<wchar_t>>*)
    ios.o(i._ZNSt8ios_base4InitC1Ev) refers to ios.o(.data) for .data
    ios.o(i._ZNSt8ios_base4InitC1Ev) refers to ios.o(.bss) for .bss
    ios.o(i._ZNSt8ios_base4InitC1Ev) refers to retarget.o(.data) for __stdin
    ios.o(i._ZNSt8ios_base4InitC1Ev) refers to ios.o(.constdata__ZTVSi) for VTT for std::basic_istream<char, std::char_traits<char>>
    ios.o(i._ZNSt8ios_base4InitC1Ev) refers to ios.o(.constdata__ZTVSt13basic_istreamIwSt11char_traitsIwEE) for VTT for std::basic_istream<wchar_t, std::char_traits<wchar_t>>
    ios.o(i._ZNSt8ios_base4InitC1Ev.clean) refers to ios.o(i._ZNSt9basic_iosIcSt11char_traitsIcEED1Ev) for std::basic_ios<char, std::char_traits<char>>::~basic_ios()
    ios.o(i._ZNSt8ios_base4InitC1Ev.clean) refers to main.o(i._ZdlPvS_) for operator delete (void*, void*)
    ios.o(i._ZNSt8ios_base4InitC1Ev.clean) refers to ios.o(i._ZNSt9basic_iosIwSt11char_traitsIwEED1Ev) for std::basic_ios<wchar_t, std::char_traits<wchar_t>>::~basic_ios()
    ios.o(i._ZNSt8ios_base4InitC1Ev.clean) refers to arm_exceptions_cleanup.o(.emb_text) for __cxa_end_cleanup
    ios.o(i._ZNSt8ios_base4InitD1Ev) refers to ios.o(t._ZNSt15basic_streambufIcSt11char_traitsIcEE9pubsetbufEPcl) for std::basic_streambuf<char, std::char_traits<char>>::pubsetbuf(char*, long)
    ios.o(i._ZNSt8ios_base4InitD1Ev) refers to ios.o(t._ZNSt15basic_streambufIwSt11char_traitsIwEE9pubsetbufEPwl) for std::basic_streambuf<wchar_t, std::char_traits<wchar_t>>::pubsetbuf(wchar_t*, long)
    ios.o(i._ZNSt8ios_base4InitD1Ev) refers to ios.o(.data) for .data
    ios.o(i._ZNSt8ios_base4InitD1Ev) refers to ios.o(.bss) for .bss
    ios.o(i._ZNSt8ios_base5iwordEi) refers to ios.o(t._ZN4__rw17__rw_resize_arrayIljEEPT_S2_RT0_i) for T1* __rw::__rw_resize_array<long, unsigned>(T1*, T2&, int)
    ios.o(i._ZNSt8ios_base5iwordEi) refers to ios.o(i._ZNSt8ios_base15_C_unsafe_clearEii) for std::ios_base::_C_unsafe_clear(int, int)
    ios.o(i._ZNSt8ios_base5iwordEi) refers to ios.o(.data) for .data
    ios.o(i._ZNSt8ios_base5pwordEi) refers to ios.o(t._ZN4__rw17__rw_resize_arrayIPvjEEPT_S3_RT0_i) for T1* __rw::__rw_resize_array<void*, unsigned>(T1*, T2&, int)
    ios.o(i._ZNSt8ios_base5pwordEi) refers to ios.o(i._ZNSt8ios_base15_C_unsafe_clearEii) for std::ios_base::_C_unsafe_clear(int, int)
    ios.o(i._ZNSt8ios_base5pwordEi) refers to ios.o(.data) for .data
    ios.o(.ARM.exidx) refers to ios.o(i._ZNSt8ios_base15_C_unsafe_clearEii) for i._ZNSt8ios_base15_C_unsafe_clearEii
    ios.o(.ARM.exidx) refers to unwind_pr0.o(.text) for __aeabi_unwind_cpp_pr0
    ios.o(.ARM.exidx) refers to ios.o(i._ZNSt8ios_base5iwordEi) for i._ZNSt8ios_base5iwordEi
    ios.o(.ARM.exidx) refers to unwind_pr0.o(.text) for __aeabi_unwind_cpp_pr0
    ios.o(.ARM.exidx) refers to ios.o(i._ZNSt8ios_base5pwordEi) for i._ZNSt8ios_base5pwordEi
    ios.o(.ARM.exidx) refers to unwind_pr0.o(.text) for __aeabi_unwind_cpp_pr0
    ios.o(.ARM.exidx) refers to ios.o(i._ZNSt8ios_base17register_callbackEPFvNS_5eventERS_iEi) for i._ZNSt8ios_base17register_callbackEPFvNS_5eventERS_iEi
    ios.o(.ARM.exidx) refers to unwind_pr0.o(.text) for __aeabi_unwind_cpp_pr0
    ios.o(.ARM.exidx) refers to ios.o(i._ZNSt8ios_base13_C_fire_eventENS_5eventEb) for i._ZNSt8ios_base13_C_fire_eventENS_5eventEb
    ios.o(.ARM.exidx) refers to unwind_pr0.o(.text) for __aeabi_unwind_cpp_pr0
    ios.o(.ARM.exidx) refers to ios.o(.ARM.extab) for .extab._ZNSt8ios_base13_C_fire_eventENS_5eventEb
    ios.o(.ARM.exidx) refers to ios.o(i._ZNSt8ios_base13_C_fire_eventENS_5eventEb.clean) for i._ZNSt8ios_base13_C_fire_eventENS_5eventEb.clean
    ios.o(.ARM.exidx) refers to ios.o(i._ZNSt8ios_base10_C_copyfmtERKS_) for i._ZNSt8ios_base10_C_copyfmtERKS_
    ios.o(.ARM.exidx) refers to unwind_pr0.o(.text) for __aeabi_unwind_cpp_pr0
    ios.o(.ARM.exidx) refers to ios.o(.ARM.extab) for .extab._ZNSt8ios_base10_C_copyfmtERKS_
    ios.o(.ARM.exidx) refers to ios.o(i._ZNSt8ios_base10_C_copyfmtERKS_.clean) for i._ZNSt8ios_base10_C_copyfmtERKS_.clean
    ios.o(.ARM.exidx) refers to ios.o(i._ZNSt8ios_base4InitC1Ev) for i._ZNSt8ios_base4InitC1Ev
    ios.o(.ARM.exidx) refers to unwind_pr1.o(.text) for __aeabi_unwind_cpp_pr1
    ios.o(.ARM.exidx) refers to ios.o(.ARM.extab) for .extab._ZNSt8ios_base4InitC1Ev
    ios.o(.ARM.exidx) refers to ios.o(i._ZNSt8ios_base4InitC1Ev.clean) for i._ZNSt8ios_base4InitC1Ev.clean
    ios.o(.ARM.exidx) refers to ios.o(i._ZNSt8ios_base4InitD1Ev) for i._ZNSt8ios_base4InitD1Ev
    ios.o(.ARM.exidx) refers to unwind_pr0.o(.text) for __aeabi_unwind_cpp_pr0
    ios.o(.ARM.exidx) refers to ios.o(.ARM.extab) for .extab._ZNSt8ios_base4InitD1Ev
    ios.o(.ARM.extab) refers to ios.o(i._ZNSt8ios_base13_C_fire_eventENS_5eventEb) for i._ZNSt8ios_base13_C_fire_eventENS_5eventEb
    ios.o(.ARM.extab) refers to ios.o(i._ZNSt8ios_base13_C_fire_eventENS_5eventEb.clean) for i._ZNSt8ios_base13_C_fire_eventENS_5eventEb.clean
    ios.o(.ARM.extab) refers to ios.o(i._ZNSt8ios_base10_C_copyfmtERKS_) for i._ZNSt8ios_base10_C_copyfmtERKS_
    ios.o(.ARM.extab) refers to ios.o(i._ZNSt8ios_base10_C_copyfmtERKS_.clean) for i._ZNSt8ios_base10_C_copyfmtERKS_.clean
    ios.o(.ARM.extab) refers to ios.o(i._ZNSt8ios_base4InitC1Ev.clean) for i._ZNSt8ios_base4InitC1Ev.clean
    ios.o(.ARM.extab) refers to arm_exceptions_callunex.o(.text) for __cxa_call_unexpected
    ios.o(.ARM.extab) refers to arm_exceptions_callterm.o(.text) for __cxa_call_terminate
    ios.o(.ARM.extab) refers to char.o(i.__ARM_common_noexcept_landing) for __ARM_common_noexcept_landing
    ios.o(.data) refers to ios.o(.bss) for std::__rw_indestructible_cin
    ios.o(.data) refers to ios.o(.bss) for std::__rw_indestructible_cout
    ios.o(.data) refers to ios.o(.bss) for std::__rw_indestructible_cerr
    ios.o(.data) refers to ios.o(.bss) for std::__rw_indestructible_clog
    ios.o(.data) refers to ios.o(.bss) for std::__rw_indestructible_wcin
    ios.o(.data) refers to ios.o(.bss) for std::__rw_indestructible_wcout
    ios.o(.data) refers to ios.o(.bss) for std::__rw_indestructible_wcerr
    ios.o(.data) refers to ios.o(.bss) for std::__rw_indestructible_wclog
    locale.o(i.<Func5>) refers to main.o(t._ZNSaIcEC1Ev) for std::allocator<char>::allocator()
    locale.o(i.<Func5>) refers to main.o(t._ZNSsC1ERKSaIcE) for std::basic_string<char, std::char_traits<char>, std::allocator<char>>::basic_string(const std::allocator<char>&)
    locale.o(i._ZN4__rw21__rw_use_c_lib_localeC1EPKci) refers to locale.o(.text) for setlocale
    locale.o(i._ZN4__rw21__rw_use_c_lib_localeC1EPKci) refers to strlen.o(.text) for strlen
    locale.o(i._ZN4__rw21__rw_use_c_lib_localeC1EPKci) refers to array_new.o(i._Znaj) for operator new[] (unsigned)
    locale.o(i._ZN4__rw21__rw_use_c_lib_localeC1EPKci) refers to strcpy.o(.text) for strcpy
    locale.o(i._ZN4__rw23__rw_numpunct_impl_base18_C_get_named_init_EPKc) refers to locale.o(i._ZN4__rw21__rw_use_c_lib_localeC1EPKci) for __rw::__rw_use_c_lib_locale::__rw_use_c_lib_locale(const char*, int)
    locale.o(i._ZN4__rw23__rw_numpunct_impl_base18_C_get_named_init_EPKc) refers to rwstdexcept.o(i._ZN4__rw10__rw_throwEiz) for __rw::__rw_throw(int, ...)
    locale.o(i._ZN4__rw23__rw_numpunct_impl_base18_C_get_named_init_EPKc) refers to localeconv.o(.text) for localeconv
    locale.o(i._ZN4__rw23__rw_numpunct_impl_base18_C_get_named_init_EPKc) refers to strlen.o(.text) for strlen
    locale.o(i._ZN4__rw23__rw_numpunct_impl_base18_C_get_named_init_EPKc) refers to array_new.o(i._Znaj) for operator new[] (unsigned)
    locale.o(i._ZN4__rw23__rw_numpunct_impl_base18_C_get_named_init_EPKc) refers to strcpy.o(.text) for strcpy
    locale.o(i._ZN4__rw23__rw_numpunct_impl_base18_C_get_named_init_EPKc) refers to char.o(i._ZN4__rw21__rw_use_c_lib_localeD1Ev) for __rw::__rw_use_c_lib_locale::~__rw_use_c_lib_locale()
    locale.o(i._ZN4__rw23__rw_numpunct_impl_base18_C_get_named_init_EPKc.clean) refers to char.o(i._ZN4__rw21__rw_use_c_lib_localeD1Ev) for __rw::__rw_use_c_lib_locale::~__rw_use_c_lib_locale()
    locale.o(i._ZN4__rw23__rw_numpunct_impl_base18_C_get_named_init_EPKc.clean) refers to arm_exceptions_cleanup.o(.emb_text) for __cxa_end_cleanup
    locale.o(i._ZNKSt14codecvt_bynameIwcSt11__mbstate_tE5do_inERS0_PKcS4_RS4_PwS6_RS6_) refers to mbrtowc.o(.text) for mbrtowc
    locale.o(i._ZNKSt14codecvt_bynameIwcSt11__mbstate_tE6do_outERS0_PKwS4_RS4_PcS6_RS6_) refers to _mbcurmax.o(.text) for __aeabi_MB_CUR_MAX
    locale.o(i._ZNKSt14codecvt_bynameIwcSt11__mbstate_tE6do_outERS0_PKwS4_RS4_PcS6_RS6_) refers to wcrtomb.o(.text) for wcrtomb
    locale.o(i._ZNKSt6locale13_C_make_facetERKNS_2idEbiPFPN4__rw15__rw_facet_baseEiPKcjE) refers to locale.o(t._ZN4__rw18__rw_locale_vectorIPNS_15__rw_facet_baseEE6resizeEjRKS2_) for __rw::__rw_locale_vector<__rw::__rw_facet_base*>::resize(unsigned, __rw::__rw_facet_base*const &)
    locale.o(i._ZNKSt6locale13_C_make_facetERKNS_2idEbiPFPN4__rw15__rw_facet_baseEiPKcjE) refers to rwstdexcept.o(i._ZN4__rw10__rw_throwEiz) for __rw::__rw_throw(int, ...)
    locale.o(i._ZNKSt6locale13_C_make_facetERKNS_2idEbiPFPN4__rw15__rw_facet_baseEiPKcjE) refers to locale.o(i._ZNSt6localeC1EPN4__rw15__rw_locale_impE) for std::locale::locale(__rw::__rw_locale_imp*)
    locale.o(i._ZNKSt6locale13_C_make_facetERKNS_2idEbiPFPN4__rw15__rw_facet_baseEiPKcjE) refers to locale.o(i._ZNKSt6locale16_C_install_facetEPN4__rw15__rw_facet_baseERKNS_2idE) for std::locale::_C_install_facet(__rw::__rw_facet_base*, const std::locale::id&) const
    locale.o(i._ZNKSt6locale13_C_make_facetERKNS_2idEbiPFPN4__rw15__rw_facet_baseEiPKcjE) refers to main.o(i._ZNSt6localeD1Ev) for std::locale::~locale()
    locale.o(i._ZNKSt6locale13_C_make_facetERKNS_2idEbiPFPN4__rw15__rw_facet_baseEiPKcjE) refers to locale.o(.data) for .data
    locale.o(i._ZNKSt6locale13_C_make_facetERKNS_2idEbiPFPN4__rw15__rw_facet_baseEiPKcjE) refers to locale.o(.constdata__ZZNK4__rw15__rw_locale_imp16_C_category_nameEiEs) for __rw::__rw_locale_imp::_C_category_name(int) const::string
    locale.o(i._ZNKSt6locale13_C_make_facetERKNS_2idEbiPFPN4__rw15__rw_facet_baseEiPKcjE.clean) refers to main.o(i._ZNSt6localeD1Ev) for std::locale::~locale()
    locale.o(i._ZNKSt6locale13_C_make_facetERKNS_2idEbiPFPN4__rw15__rw_facet_baseEiPKcjE.clean) refers to arm_exceptions_cleanup.o(.emb_text) for __cxa_end_cleanup
    locale.o(i._ZNKSt6locale16_C_install_facetEPN4__rw15__rw_facet_baseERKNS_2idE) refers to locale.o(t._ZN4__rw18__rw_locale_vectorIPNS_15__rw_facet_baseEE6resizeEjRKS2_) for __rw::__rw_locale_vector<__rw::__rw_facet_base*>::resize(unsigned, __rw::__rw_facet_base*const &)
    locale.o(i._ZNKSt6locale16_C_install_facetEPN4__rw15__rw_facet_baseERKNS_2idE) refers to locale.o(.data__ZZNKSt6locale2id7_C_initEvE9_C_id_gen) for std::locale::id::_C_init() const::_C_id_gen
    locale.o(i._ZNKSt6locale4nameEv) refers to main.o(t._ZNSaIcEC1Ev) for std::allocator<char>::allocator()
    locale.o(i._ZNKSt6locale4nameEv) refers to main.o(t._ZNSsC1EPKcRKSaIcE) for std::basic_string<char, std::char_traits<char>, std::allocator<char>>::basic_string(const char*, const std::allocator<char>&)
    locale.o(i._ZNSt6locale6globalERKS_) refers to locale.o(i._ZNKSt6locale4nameEv) for std::locale::name() const
    locale.o(i._ZNSt6locale6globalERKS_) refers to locale.o(.text) for setlocale
    locale.o(i._ZNSt6locale6globalERKS_) refers to main.o(t._ZNSsD1Ev) for std::basic_string<char, std::char_traits<char>, std::allocator<char>>::~basic_string()
    locale.o(i._ZNSt6locale6globalERKS_) refers to rwstdexcept.o(i._ZN4__rw10__rw_throwEiz) for __rw::__rw_throw(int, ...)
    locale.o(i._ZNSt6locale6globalERKS_) refers to locale.o(i._ZNSt6localeC1EPN4__rw15__rw_locale_impE) for std::locale::locale(__rw::__rw_locale_imp*)
    locale.o(i._ZNSt6locale6globalERKS_) refers to locale.o(.data) for .data
    locale.o(i._ZNSt6locale6globalERKS_.clean) refers to main.o(t._ZNSsD1Ev) for std::basic_string<char, std::char_traits<char>, std::allocator<char>>::~basic_string()
    locale.o(i._ZNSt6locale6globalERKS_.clean) refers to arm_exceptions_cleanup.o(.emb_text) for __cxa_end_cleanup
    locale.o(i._ZNSt6locale7_C_initEv) refers to new.o(i._Znwj) for operator new(unsigned)
    locale.o(i._ZNSt6locale7_C_initEv) refers to locale.o(i._ZN4__rw15__rw_locale_impC1EPKcjj) for __rw::__rw_locale_imp::__rw_locale_imp(const char*, unsigned, unsigned)
    locale.o(i._ZNSt6locale7_C_initEv) refers to main.o(t._ZNSsaSEPKc) for std::basic_string<char, std::char_traits<char>, std::allocator<char>>::operator =(const char*)
    locale.o(i._ZNSt6locale7_C_initEv) refers to arm_exceptions_begincatch.o(.text) for __cxa_begin_catch
    locale.o(i._ZNSt6locale7_C_initEv) refers to ios.o(i._ZN4__rw15__rw_locale_impD1Ev) for __rw::__rw_locale_imp::~__rw_locale_imp()
    locale.o(i._ZNSt6locale7_C_initEv) refers to delete.o(i._ZdlPv) for operator delete (void*)
    locale.o(i._ZNSt6locale7_C_initEv) refers to arm_exceptions_endcatch.o(.text) for __cxa_end_catch
    locale.o(i._ZNSt6locale7_C_initEv) refers to locale.o(.data) for .data
    locale.o(i._ZNSt6locale7_C_initEv.clean) refers to delete.o(i._ZdlPv) for operator delete (void*)
    locale.o(i._ZNSt6locale7_C_initEv.clean) refers to arm_exceptions_cleanup.o(.emb_text) for __cxa_end_cleanup
    locale.o(i._ZNSt6locale7classicEv) refers to locale.o(i._ZNSt6locale7_C_initEv) for std::locale::_C_init()
    locale.o(i._ZNSt6locale7classicEv) refers to cxa_guard_acquire.o(i.__cxa_guard_acquire) for __cxa_guard_acquire
    locale.o(i._ZNSt6locale7classicEv) refers to locale.o(i._ZNSt6localeC1EPN4__rw15__rw_locale_impE) for std::locale::locale(__rw::__rw_locale_imp*)
    locale.o(i._ZNSt6locale7classicEv) refers to aeabi_atexit.o(.text) for __aeabi_atexit
    locale.o(i._ZNSt6locale7classicEv) refers to locale.o(.data) for .data
    locale.o(i._ZNSt6locale7classicEv) refers to main.o(i._ZNSt6localeD1Ev) for std::locale::~locale()
    locale.o(i._ZNSt6locale7classicEv.clean) refers to arm_exceptions_cleanup.o(.emb_text) for __cxa_end_cleanup
    locale.o(i._ZNSt6locale7classicEv.clean) refers to locale.o(.data) for .data
    locale.o(i._ZNSt6localeC1EPKc) refers to rwstdexcept.o(i._ZN4__rw10__rw_throwEiz) for __rw::__rw_throw(int, ...)
    locale.o(i._ZNSt6localeC1EPKc) refers to locale.o(i._ZNSt6locale7_C_initEv) for std::locale::_C_init()
    locale.o(i._ZNSt6localeC1EPKc) refers to strcmpv7m.o(.text) for strcmp
    locale.o(i._ZNSt6localeC1EPKc) refers to new.o(i._Znwj) for operator new(unsigned)
    locale.o(i._ZNSt6localeC1EPKc) refers to locale.o(i._ZN4__rw15__rw_locale_impC1EPKcjj) for __rw::__rw_locale_imp::__rw_locale_imp(const char*, unsigned, unsigned)
    locale.o(i._ZNSt6localeC1EPKc) refers to vendor.o(i._ZN4__rw15__rw_locale_imp13_C_parse_nameERNS_18__rw_locale_vectorISsEEPKc) for __rw::__rw_locale_imp::_C_parse_name(__rw::__rw_locale_vector<std::basic_string<char, std::char_traits<char>, std::allocator<char>>>&, const char*)
    locale.o(i._ZNSt6localeC1EPKc) refers to ios.o(i._ZN4__rw15__rw_locale_impD1Ev) for __rw::__rw_locale_imp::~__rw_locale_imp()
    locale.o(i._ZNSt6localeC1EPKc) refers to delete.o(i._ZdlPv) for operator delete (void*)
    locale.o(i._ZNSt6localeC1EPKc) refers to locale.o(.data) for .data
    locale.o(i._ZNSt6localeC1EPKc.clean) refers to delete.o(i._ZdlPv) for operator delete (void*)
    locale.o(i._ZNSt6localeC1EPKc.clean) refers to arm_exceptions_cleanup.o(.emb_text) for __cxa_end_cleanup
    locale.o(i._ZNSt6localeC1ERKS_PKci) refers to rwstdexcept.o(i._ZN4__rw10__rw_throwEiz) for __rw::__rw_throw(int, ...)
    locale.o(i._ZNSt6localeC1ERKS_PKci) refers to new.o(i._Znwj) for operator new(unsigned)
    locale.o(i._ZNSt6localeC1ERKS_PKci) refers to locale.o(i._ZN4__rw15__rw_locale_impC1ERKS0_PKcj) for __rw::__rw_locale_imp::__rw_locale_imp(const __rw::__rw_locale_imp&, const char*, unsigned)
    locale.o(i._ZNSt6localeC1ERKS_PKci) refers to vendor.o(i._ZN4__rw15__rw_locale_imp15_C_map_categoryEi) for __rw::__rw_locale_imp::_C_map_category(int)
    locale.o(i._ZNSt6localeC1ERKS_PKci) refers to locale.o(i._ZNSt6locale16_C_remove_facetsEi) for std::locale::_C_remove_facets(int)
    locale.o(i._ZNSt6localeC1ERKS_PKci) refers to aeabi_vec_new_cookie.o(i.__aeabi_vec_new_cookie) for __aeabi_vec_new_cookie
    locale.o(i._ZNSt6localeC1ERKS_PKci) refers to vendor.o(i._ZN4__rw15__rw_locale_imp13_C_parse_nameERNS_18__rw_locale_vectorISsEEPKc) for __rw::__rw_locale_imp::_C_parse_name(__rw::__rw_locale_vector<std::basic_string<char, std::char_traits<char>, std::allocator<char>>>&, const char*)
    locale.o(i._ZNSt6localeC1ERKS_PKci) refers to main.o(t._ZNSsaSEPKc) for std::basic_string<char, std::char_traits<char>, std::allocator<char>>::operator =(const char*)
    locale.o(i._ZNSt6localeC1ERKS_PKci) refers to main.o(t._ZN4__rw18__rw_locale_vectorISsED1Ev) for __rw::__rw_locale_vector<std::basic_string<char, std::char_traits<char>, std::allocator<char>>>::~__rw_locale_vector()
    locale.o(i._ZNSt6localeC1ERKS_PKci) refers to main.o(t._ZNSsD1Ev) for std::basic_string<char, std::char_traits<char>, std::allocator<char>>::~basic_string()
    locale.o(i._ZNSt6localeC1ERKS_PKci) refers to locale.o(i.<Func5>) for <Func5>
    locale.o(i._ZNSt6localeC1ERKS_PKci.clean) refers to delete.o(i._ZdlPv) for operator delete (void*)
    locale.o(i._ZNSt6localeC1ERKS_PKci.clean) refers to arm_exceptions_cleanup.o(.emb_text) for __cxa_end_cleanup
    locale.o(i._ZNSt6localeC1ERKS_PKci.clean) refers to main.o(t._ZN4__rw18__rw_locale_vectorISsED1Ev) for __rw::__rw_locale_vector<std::basic_string<char, std::char_traits<char>, std::allocator<char>>>::~__rw_locale_vector()
    locale.o(i._ZNSt6localeC1ERKS_S1_i) refers to new.o(i._Znwj) for operator new(unsigned)
    locale.o(i._ZNSt6localeC1ERKS_S1_i) refers to locale.o(i._ZN4__rw15__rw_locale_impC1ERKS0_PKcj) for __rw::__rw_locale_imp::__rw_locale_imp(const __rw::__rw_locale_imp&, const char*, unsigned)
    locale.o(i._ZNSt6localeC1ERKS_S1_i) refers to vendor.o(i._ZN4__rw15__rw_locale_imp15_C_map_categoryEi) for __rw::__rw_locale_imp::_C_map_category(int)
    locale.o(i._ZNSt6localeC1ERKS_S1_i) refers to main.o(t._ZNSsaSERKSs) for std::basic_string<char, std::char_traits<char>, std::allocator<char>>::operator =(const std::basic_string<char, std::char_traits<char>, std::allocator<char>>&)
    locale.o(i._ZNSt6localeC1ERKS_S1_i) refers to locale.o(i._ZNSt6locale16_C_remove_facetsEi) for std::locale::_C_remove_facets(int)
    locale.o(i._ZNSt6localeC1ERKS_S1_i.clean) refers to delete.o(i._ZdlPv) for operator delete (void*)
    locale.o(i._ZNSt6localeC1ERKS_S1_i.clean) refers to arm_exceptions_cleanup.o(.emb_text) for __cxa_end_cleanup
    locale.o(i._ZNSt6localeaSERKS_) refers to ios.o(i._ZN4__rw15__rw_locale_impD1Ev) for __rw::__rw_locale_imp::~__rw_locale_imp()
    locale.o(i._ZNSt6localeaSERKS_) refers to delete.o(i._ZdlPv) for operator delete (void*)
    locale.o(i.__sti___10_locale_cpp_ff99fc7b) refers to locale.o(.data) for .data
    locale.o(.ARM.exidx) refers to locale.o(i.<Func5>) for i.<Func5>
    locale.o(.ARM.exidx) refers to unwind_pr0.o(.text) for __aeabi_unwind_cpp_pr0
    locale.o(.ARM.exidx) refers to locale.o(i._ZNSt6locale7_C_initEv) for i._ZNSt6locale7_C_initEv
    locale.o(.ARM.exidx) refers to unwind_pr0.o(.text) for __aeabi_unwind_cpp_pr0
    locale.o(.ARM.exidx) refers to locale.o(.ARM.extab) for .extab._ZNSt6locale7_C_initEv
    locale.o(.ARM.exidx) refers to locale.o(i._ZNSt6locale7_C_initEv.clean) for i._ZNSt6locale7_C_initEv.clean
    locale.o(.ARM.exidx) refers to locale.o(i._ZNSt6localeC1EPKc) for i._ZNSt6localeC1EPKc
    locale.o(.ARM.exidx) refers to unwind_pr0.o(.text) for __aeabi_unwind_cpp_pr0
    locale.o(.ARM.exidx) refers to locale.o(.ARM.extab) for .extab._ZNSt6localeC1EPKc
    locale.o(.ARM.exidx) refers to locale.o(i._ZNSt6localeC1EPKc.clean) for i._ZNSt6localeC1EPKc.clean
    locale.o(.ARM.exidx) refers to locale.o(i._ZNSt6localeC1ERKS_PKci) for i._ZNSt6localeC1ERKS_PKci
    locale.o(.ARM.exidx) refers to unwind_pr0.o(.text) for __aeabi_unwind_cpp_pr0
    locale.o(.ARM.exidx) refers to locale.o(.ARM.extab) for .extab._ZNSt6localeC1ERKS_PKci
    locale.o(.ARM.exidx) refers to locale.o(i._ZNSt6localeC1ERKS_PKci.clean) for i._ZNSt6localeC1ERKS_PKci.clean
    locale.o(.ARM.exidx) refers to locale.o(i._ZNSt6localeC1ERKS_S1_i) for i._ZNSt6localeC1ERKS_S1_i
    locale.o(.ARM.exidx) refers to unwind_pr0.o(.text) for __aeabi_unwind_cpp_pr0
    locale.o(.ARM.exidx) refers to locale.o(.ARM.extab) for .extab._ZNSt6localeC1ERKS_S1_i
    locale.o(.ARM.exidx) refers to locale.o(i._ZNSt6localeC1ERKS_S1_i.clean) for i._ZNSt6localeC1ERKS_S1_i.clean
    locale.o(.ARM.exidx) refers to locale.o(i._ZNSt6localeaSERKS_) for i._ZNSt6localeaSERKS_
    locale.o(.ARM.exidx) refers to locale.o(i._ZNKSt6locale4nameEv) for i._ZNKSt6locale4nameEv
    locale.o(.ARM.exidx) refers to unwind_pr0.o(.text) for __aeabi_unwind_cpp_pr0
    locale.o(.ARM.exidx) refers to locale.o(i._ZNSt6locale6globalERKS_) for i._ZNSt6locale6globalERKS_
    locale.o(.ARM.exidx) refers to unwind_pr0.o(.text) for __aeabi_unwind_cpp_pr0
    locale.o(.ARM.exidx) refers to locale.o(.ARM.extab) for .extab._ZNSt6locale6globalERKS_
    locale.o(.ARM.exidx) refers to locale.o(i._ZNSt6locale6globalERKS_.clean) for i._ZNSt6locale6globalERKS_.clean
    locale.o(.ARM.exidx) refers to locale.o(i._ZNSt6locale7classicEv) for i._ZNSt6locale7classicEv
    locale.o(.ARM.exidx) refers to unwind_pr0.o(.text) for __aeabi_unwind_cpp_pr0
    locale.o(.ARM.exidx) refers to locale.o(.ARM.extab) for .extab._ZNSt6locale7classicEv
    locale.o(.ARM.exidx) refers to locale.o(i._ZNSt6locale7classicEv.clean) for i._ZNSt6locale7classicEv.clean
    locale.o(.ARM.exidx) refers to locale.o(i._ZNKSt6locale16_C_install_facetEPN4__rw15__rw_facet_baseERKNS_2idE) for i._ZNKSt6locale16_C_install_facetEPN4__rw15__rw_facet_baseERKNS_2idE
    locale.o(.ARM.exidx) refers to unwind_pr0.o(.text) for __aeabi_unwind_cpp_pr0
    locale.o(.ARM.exidx) refers to locale.o(i._ZNKSt6locale13_C_make_facetERKNS_2idEbiPFPN4__rw15__rw_facet_baseEiPKcjE) for i._ZNKSt6locale13_C_make_facetERKNS_2idEbiPFPN4__rw15__rw_facet_baseEiPKcjE
    locale.o(.ARM.exidx) refers to unwind_pr0.o(.text) for __aeabi_unwind_cpp_pr0
    locale.o(.ARM.exidx) refers to locale.o(.ARM.extab) for .extab._ZNKSt6locale13_C_make_facetERKNS_2idEbiPFPN4__rw15__rw_facet_baseEiPKcjE
    locale.o(.ARM.exidx) refers to locale.o(i._ZNKSt6locale13_C_make_facetERKNS_2idEbiPFPN4__rw15__rw_facet_baseEiPKcjE.clean) for i._ZNKSt6locale13_C_make_facetERKNS_2idEbiPFPN4__rw15__rw_facet_baseEiPKcjE.clean
    locale.o(.ARM.exidx) refers to locale.o(i._ZNKSt14codecvt_bynameIwcSt11__mbstate_tE6do_outERS0_PKwS4_RS4_PcS6_RS6_) for i._ZNKSt14codecvt_bynameIwcSt11__mbstate_tE6do_outERS0_PKwS4_RS4_PcS6_RS6_
    locale.o(.ARM.exidx) refers to unwind_pr0.o(.text) for __aeabi_unwind_cpp_pr0
    locale.o(.ARM.exidx) refers to locale.o(i._ZNKSt14codecvt_bynameIwcSt11__mbstate_tE5do_inERS0_PKcS4_RS4_PwS6_RS6_) for i._ZNKSt14codecvt_bynameIwcSt11__mbstate_tE5do_inERS0_PKcS4_RS4_PwS6_RS6_
    locale.o(.ARM.exidx) refers to unwind_pr0.o(.text) for __aeabi_unwind_cpp_pr0
    locale.o(.ARM.exidx) refers to locale.o(i._ZN4__rw21__rw_use_c_lib_localeC1EPKci) for i._ZN4__rw21__rw_use_c_lib_localeC1EPKci
    locale.o(.ARM.exidx) refers to unwind_pr0.o(.text) for __aeabi_unwind_cpp_pr0
    locale.o(.ARM.exidx) refers to locale.o(i._ZN4__rw23__rw_numpunct_impl_base18_C_get_named_init_EPKc) for i._ZN4__rw23__rw_numpunct_impl_base18_C_get_named_init_EPKc
    locale.o(.ARM.exidx) refers to unwind_pr0.o(.text) for __aeabi_unwind_cpp_pr0
    locale.o(.ARM.exidx) refers to locale.o(.ARM.extab) for .extab._ZN4__rw23__rw_numpunct_impl_base18_C_get_named_init_EPKc
    locale.o(.ARM.exidx) refers to locale.o(i._ZN4__rw23__rw_numpunct_impl_base18_C_get_named_init_EPKc.clean) for i._ZN4__rw23__rw_numpunct_impl_base18_C_get_named_init_EPKc.clean
    locale.o(.ARM.exidx) refers to locale.o(i.__sti___10_locale_cpp_ff99fc7b) for i.__sti___10_locale_cpp_ff99fc7b
    locale.o(.ARM.extab) refers to locale.o(i._ZNSt6locale7_C_initEv.clean) for i._ZNSt6locale7_C_initEv.clean
    locale.o(.ARM.extab) refers to locale.o(i._ZNSt6locale7_C_initEv) for i._ZNSt6locale7_C_initEv
    locale.o(.ARM.extab) refers to locale.o(i._ZNSt6localeC1EPKc.clean) for i._ZNSt6localeC1EPKc.clean
    locale.o(.ARM.extab) refers to locale.o(i._ZNSt6localeC1ERKS_PKci.clean) for i._ZNSt6localeC1ERKS_PKci.clean
    locale.o(.ARM.extab) refers to locale.o(i._ZNSt6localeC1ERKS_S1_i.clean) for i._ZNSt6localeC1ERKS_S1_i.clean
    locale.o(.ARM.extab) refers to locale.o(i._ZNSt6locale6globalERKS_.clean) for i._ZNSt6locale6globalERKS_.clean
    locale.o(.ARM.extab) refers to locale.o(i._ZNSt6locale7classicEv.clean) for i._ZNSt6locale7classicEv.clean
    locale.o(.ARM.extab) refers to locale.o(i._ZNKSt6locale13_C_make_facetERKNS_2idEbiPFPN4__rw15__rw_facet_baseEiPKcjE.clean) for i._ZNKSt6locale13_C_make_facetERKNS_2idEbiPFPN4__rw15__rw_facet_baseEiPKcjE.clean
    locale.o(.ARM.extab) refers to locale.o(i._ZN4__rw23__rw_numpunct_impl_base18_C_get_named_init_EPKc.clean) for i._ZN4__rw23__rw_numpunct_impl_base18_C_get_named_init_EPKc.clean
    locale.o(.init_array) refers to locale.o(i.__sti___10_locale_cpp_ff99fc7b) for __sti___10_locale_cpp_ff99fc7b
    locale.o(.init_array) refers to init_aeabi.o(.text) for __cpp_initialize__aeabi_
    rwalloc.o(i._ZN4__rw13__rw_allocateEji) refers to new.o(i._Znwj) for operator new(unsigned)
    rwalloc.o(i._ZN4__rw13__rw_allocateEji) refers to rwstdexcept.o(i._ZN4__rw10__rw_throwEiz) for __rw::__rw_throw(int, ...)
    rwalloc.o(i._ZN4__rw13__rw_allocateEji) refers to arm_exceptions_begincatch.o(.text) for __cxa_begin_catch
    rwalloc.o(i._ZN4__rw13__rw_allocateEji) refers to arm_exceptions_endcatch.o(.text) for __cxa_end_catch
    rwalloc.o(i._ZN4__rw15__rw_deallocateEPvji) refers to delete.o(i._ZdlPv) for operator delete (void*)
    rwalloc.o(.ARM.exidx) refers to rwalloc.o(i._ZN4__rw13__rw_allocateEji) for i._ZN4__rw13__rw_allocateEji
    rwalloc.o(.ARM.exidx) refers to unwind_pr0.o(.text) for __aeabi_unwind_cpp_pr0
    rwalloc.o(.ARM.exidx) refers to rwalloc.o(.ARM.extab) for .extab._ZN4__rw13__rw_allocateEji
    rwalloc.o(.ARM.exidx) refers to rwalloc.o(i._ZN4__rw15__rw_deallocateEPvji) for i._ZN4__rw15__rw_deallocateEPvji
    rwalloc.o(.ARM.extab) refers to rwalloc.o(i._ZN4__rw13__rw_allocateEji) for i._ZN4__rw13__rw_allocateEji
    rwstdexcept.o(i._ZN37_INTERNAL_15_rwstdexcept_cpp_8697b68a4__rw13__rw_vfmatstrEPcjPKcSt9__va_list) refers to array_new.o(i._Znaj) for operator new[] (unsigned)
    rwstdexcept.o(i._ZN37_INTERNAL_15_rwstdexcept_cpp_8697b68a4__rw13__rw_vfmatstrEPcjPKcSt9__va_list) refers to vsnprintf.o(.text) for vsnprintf
    rwstdexcept.o(i._ZN37_INTERNAL_15_rwstdexcept_cpp_8697b68a4__rw13__rw_vfmatstrEPcjPKcSt9__va_list) refers to array_del.o(i._ZdaPv) for operator delete[] (void*)
    rwstdexcept.o(i._ZN37_INTERNAL_15_rwstdexcept_cpp_8697b68a4__rw13__rw_vfmatstrEPcjiSt9__va_list) refers to strrchr.o(.text) for strrchr
    rwstdexcept.o(i._ZN37_INTERNAL_15_rwstdexcept_cpp_8697b68a4__rw13__rw_vfmatstrEPcjiSt9__va_list) refers to sscanf.o(.text) for sscanf
    rwstdexcept.o(i._ZN37_INTERNAL_15_rwstdexcept_cpp_8697b68a4__rw13__rw_vfmatstrEPcjiSt9__va_list) refers to main.o(i._ZnwjPv) for operator new(unsigned, void*)
    rwstdexcept.o(i._ZN37_INTERNAL_15_rwstdexcept_cpp_8697b68a4__rw13__rw_vfmatstrEPcjiSt9__va_list) refers to main.o(t._ZNSaIcEC1Ev) for std::allocator<char>::allocator()
    rwstdexcept.o(i._ZN37_INTERNAL_15_rwstdexcept_cpp_8697b68a4__rw13__rw_vfmatstrEPcjiSt9__va_list) refers to main.o(t._ZNSsC1EPKcRKSaIcE) for std::basic_string<char, std::char_traits<char>, std::allocator<char>>::basic_string(const char*, const std::allocator<char>&)
    rwstdexcept.o(i._ZN37_INTERNAL_15_rwstdexcept_cpp_8697b68a4__rw13__rw_vfmatstrEPcjiSt9__va_list) refers to main.o(t._ZNSsC1ERKSs) for std::basic_string<char, std::char_traits<char>, std::allocator<char>>::basic_string(const std::basic_string<char, std::char_traits<char>, std::allocator<char>>&)
    rwstdexcept.o(i._ZN37_INTERNAL_15_rwstdexcept_cpp_8697b68a4__rw13__rw_vfmatstrEPcjiSt9__va_list) refers to main.o(t._ZNSsD1Ev) for std::basic_string<char, std::char_traits<char>, std::allocator<char>>::~basic_string()
    rwstdexcept.o(i._ZN37_INTERNAL_15_rwstdexcept_cpp_8697b68a4__rw13__rw_vfmatstrEPcjiSt9__va_list) refers to ios.o(i._ZNSt6localeC1Ev) for std::locale::locale()
    rwstdexcept.o(i._ZN37_INTERNAL_15_rwstdexcept_cpp_8697b68a4__rw13__rw_vfmatstrEPcjiSt9__va_list) refers to main.o(i._ZNSt6localeD1Ev) for std::locale::~locale()
    rwstdexcept.o(i._ZN37_INTERNAL_15_rwstdexcept_cpp_8697b68a4__rw13__rw_vfmatstrEPcjiSt9__va_list) refers to rwstdexcept.o(i._ZN37_INTERNAL_15_rwstdexcept_cpp_8697b68a4__rw13__rw_vfmatstrEPcjPKcSt9__va_list) for [local to rwstdexcept_cpp]::__rw::__rw_vfmatstr(char*, unsigned, const char*, std::__va_list)
    rwstdexcept.o(i._ZN37_INTERNAL_15_rwstdexcept_cpp_8697b68a4__rw13__rw_vfmatstrEPcjiSt9__va_list) refers to rwstdexcept.o(.data) for .data
    rwstdexcept.o(i._ZN37_INTERNAL_15_rwstdexcept_cpp_8697b68a4__rw13__rw_vfmatstrEPcjiSt9__va_list) refers to rwstdexcept.o(.bss) for .bss
    rwstdexcept.o(i._ZN37_INTERNAL_15_rwstdexcept_cpp_8697b68a4__rw13__rw_vfmatstrEPcjiSt9__va_list) refers to main.o(.constdata__ZTVNSt6locale5facetE) for vtable for std::locale::facet
    rwstdexcept.o(i._ZN37_INTERNAL_15_rwstdexcept_cpp_8697b68a4__rw13__rw_vfmatstrEPcjiSt9__va_list) refers to rwstdexcept.o(.constdata__ZZNSt8messagesIcEC1EjEs) for std::messages<char>::messages(unsigned)::string
    rwstdexcept.o(i._ZN37_INTERNAL_15_rwstdexcept_cpp_8697b68a4__rw13__rw_vfmatstrEPcjiSt9__va_list) refers to rwstdexcept.o(.constdata__ZTVSt8messagesIcE) for vtable for std::messages<char>
    rwstdexcept.o(i._ZN37_INTERNAL_15_rwstdexcept_cpp_8697b68a4__rw13__rw_vfmatstrEPcjiSt9__va_list.clean) refers to main.o(t._ZNSsD1Ev) for std::basic_string<char, std::char_traits<char>, std::allocator<char>>::~basic_string()
    rwstdexcept.o(i._ZN37_INTERNAL_15_rwstdexcept_cpp_8697b68a4__rw13__rw_vfmatstrEPcjiSt9__va_list.clean) refers to main.o(i._ZNSt6locale5facetD1Ev) for std::locale::facet::~facet()
    rwstdexcept.o(i._ZN37_INTERNAL_15_rwstdexcept_cpp_8697b68a4__rw13__rw_vfmatstrEPcjiSt9__va_list.clean) refers to main.o(i._ZdlPvS_) for operator delete (void*, void*)
    rwstdexcept.o(i._ZN37_INTERNAL_15_rwstdexcept_cpp_8697b68a4__rw13__rw_vfmatstrEPcjiSt9__va_list.clean) refers to main.o(i._ZNSt6localeD1Ev) for std::locale::~locale()
    rwstdexcept.o(i._ZN37_INTERNAL_15_rwstdexcept_cpp_8697b68a4__rw13__rw_vfmatstrEPcjiSt9__va_list.clean) refers to arm_exceptions_cleanup.o(.emb_text) for __cxa_end_cleanup
    rwstdexcept.o(i._ZN4__rw10__rw_throwEiz) refers to main.o(i._ZnwjPv) for operator new(unsigned, void*)
    rwstdexcept.o(i._ZN4__rw10__rw_throwEiz) refers to rwstdexcept.o(i._ZNSt14__rw_exceptionC1Ev) for std::__rw_exception::__rw_exception()
    rwstdexcept.o(i._ZN4__rw10__rw_throwEiz) refers to rwstdexcept.o(i._ZNSt14__rw_exception10_C_vformatEiSt9__va_list) for std::__rw_exception::_C_vformat(int, std::__va_list)
    rwstdexcept.o(i._ZN4__rw10__rw_throwEiz) refers to rwthrowproc.o(.data) for __rw_throw_proc
    rwstdexcept.o(i._ZN4__rw16__rw_assert_failEPKcS1_iS1_) refers to fprintf.o(.text) for fprintf
    rwstdexcept.o(i._ZN4__rw16__rw_assert_failEPKcS1_iS1_) refers to abort.o(.text) for abort
    rwstdexcept.o(i._ZN4__rw16__rw_assert_failEPKcS1_iS1_) refers to retarget.o(.data) for __stderr
    rwstdexcept.o(i._ZNSt14__rw_exception10_C_vformatEPKcSt9__va_list) refers to rwstdexcept.o(i._ZN37_INTERNAL_15_rwstdexcept_cpp_8697b68a4__rw13__rw_vfmatstrEPcjPKcSt9__va_list) for [local to rwstdexcept_cpp]::__rw::__rw_vfmatstr(char*, unsigned, const char*, std::__va_list)
    rwstdexcept.o(i._ZNSt14__rw_exception10_C_vformatEPKcSt9__va_list) refers to strlen.o(.text) for strlen
    rwstdexcept.o(i._ZNSt14__rw_exception10_C_vformatEPKcSt9__va_list) refers to array_new.o(i._Znaj) for operator new[] (unsigned)
    rwstdexcept.o(i._ZNSt14__rw_exception10_C_vformatEPKcSt9__va_list) refers to strcpy.o(.text) for strcpy
    rwstdexcept.o(i._ZNSt14__rw_exception10_C_vformatEPKcSt9__va_list) refers to strcat.o(.text) for strcat
    rwstdexcept.o(i._ZNSt14__rw_exception10_C_vformatEPKcSt9__va_list) refers to array_del.o(i._ZdaPv) for operator delete[] (void*)
    rwstdexcept.o(i._ZNSt14__rw_exception10_C_vformatEPKcSt9__va_list) refers to arm_exceptions_begincatch.o(.text) for __cxa_begin_catch
    rwstdexcept.o(i._ZNSt14__rw_exception10_C_vformatEPKcSt9__va_list) refers to arm_exceptions_endcatch.o(.text) for __cxa_end_catch
    rwstdexcept.o(i._ZNSt14__rw_exception10_C_vformatEiSt9__va_list) refers to rwstdexcept.o(i._ZN37_INTERNAL_15_rwstdexcept_cpp_8697b68a4__rw13__rw_vfmatstrEPcjiSt9__va_list) for [local to rwstdexcept_cpp]::__rw::__rw_vfmatstr(char*, unsigned, int, std::__va_list)
    rwstdexcept.o(i._ZNSt14__rw_exception10_C_vformatEiSt9__va_list) refers to rwstdexcept.o(i._ZN37_INTERNAL_15_rwstdexcept_cpp_8697b68a4__rw13__rw_vfmatstrEPcjPKcSt9__va_list) for [local to rwstdexcept_cpp]::__rw::__rw_vfmatstr(char*, unsigned, const char*, std::__va_list)
    rwstdexcept.o(i._ZNSt14__rw_exception10_C_vformatEiSt9__va_list) refers to strlen.o(.text) for strlen
    rwstdexcept.o(i._ZNSt14__rw_exception10_C_vformatEiSt9__va_list) refers to array_new.o(i._Znaj) for operator new[] (unsigned)
    rwstdexcept.o(i._ZNSt14__rw_exception10_C_vformatEiSt9__va_list) refers to strcpy.o(.text) for strcpy
    rwstdexcept.o(i._ZNSt14__rw_exception10_C_vformatEiSt9__va_list) refers to strcat.o(.text) for strcat
    rwstdexcept.o(i._ZNSt14__rw_exception10_C_vformatEiSt9__va_list) refers to array_del.o(i._ZdaPv) for operator delete[] (void*)
    rwstdexcept.o(i._ZNSt14__rw_exception10_C_vformatEiSt9__va_list) refers to arm_exceptions_begincatch.o(.text) for __cxa_begin_catch
    rwstdexcept.o(i._ZNSt14__rw_exception10_C_vformatEiSt9__va_list) refers to arm_exceptions_endcatch.o(.text) for __cxa_end_catch
    rwstdexcept.o(i._ZNSt14__rw_exception10_C_vformatEiSt9__va_list) refers to rwstdexcept.o(.constdata) for .constdata
    rwstdexcept.o(i._ZNSt14__rw_exception9_C_assignEPKcj) refers to strlen.o(.text) for strlen
    rwstdexcept.o(i._ZNSt14__rw_exception9_C_assignEPKcj) refers to array_new.o(i._Znaj) for operator new[] (unsigned)
    rwstdexcept.o(i._ZNSt14__rw_exception9_C_assignEPKcj) refers to strcpy.o(.text) for strcpy
    rwstdexcept.o(i._ZNSt14__rw_exception9_C_assignEPKcj) refers to array_del.o(i._ZdaPv) for operator delete[] (void*)
    rwstdexcept.o(i._ZNSt14__rw_exception9_C_assignEPKcj) refers to arm_exceptions_begincatch.o(.text) for __cxa_begin_catch
    rwstdexcept.o(i._ZNSt14__rw_exception9_C_assignEPKcj) refers to arm_exceptions_endcatch.o(.text) for __cxa_end_catch
    rwstdexcept.o(i._ZNSt14__rw_exceptionC1ERKSs) refers to exception_ctor.o(i._ZNSt9exceptionC1Ev) for std::exception::exception()
    rwstdexcept.o(i._ZNSt14__rw_exceptionC1ERKSs) refers to rwstdexcept.o(i._ZNSt14__rw_exception9_C_assignEPKcj) for std::__rw_exception::_C_assign(const char*, unsigned)
    rwstdexcept.o(i._ZNSt14__rw_exceptionC1ERKSs) refers to rwstdexcept.o(.constdata__ZTVSt14__rw_exception) for vtable for std::__rw_exception
    rwstdexcept.o(.ARM.exidx) refers to rwstdexcept.o(i._ZN37_INTERNAL_15_rwstdexcept_cpp_8697b68a4__rw13__rw_vfmatstrEPcjPKcSt9__va_list) for i._ZN37_INTERNAL_15_rwstdexcept_cpp_8697b68a4__rw13__rw_vfmatstrEPcjPKcSt9__va_list
    rwstdexcept.o(.ARM.exidx) refers to unwind_pr0.o(.text) for __aeabi_unwind_cpp_pr0
    rwstdexcept.o(.ARM.exidx) refers to rwstdexcept.o(i._ZN37_INTERNAL_15_rwstdexcept_cpp_8697b68a4__rw13__rw_vfmatstrEPcjiSt9__va_list) for i._ZN37_INTERNAL_15_rwstdexcept_cpp_8697b68a4__rw13__rw_vfmatstrEPcjiSt9__va_list
    rwstdexcept.o(.ARM.exidx) refers to unwind_pr0.o(.text) for __aeabi_unwind_cpp_pr0
    rwstdexcept.o(.ARM.exidx) refers to rwstdexcept.o(.ARM.extab) for .extab._ZN37_INTERNAL_15_rwstdexcept_cpp_8697b68a4__rw13__rw_vfmatstrEPcjiSt9__va_list
    rwstdexcept.o(.ARM.exidx) refers to rwstdexcept.o(i._ZN37_INTERNAL_15_rwstdexcept_cpp_8697b68a4__rw13__rw_vfmatstrEPcjiSt9__va_list.clean) for i._ZN37_INTERNAL_15_rwstdexcept_cpp_8697b68a4__rw13__rw_vfmatstrEPcjiSt9__va_list.clean
    rwstdexcept.o(.ARM.exidx) refers to rwstdexcept.o(i._ZNSt14__rw_exception10_C_vformatEiSt9__va_list) for i._ZNSt14__rw_exception10_C_vformatEiSt9__va_list
    rwstdexcept.o(.ARM.exidx) refers to unwind_pr0.o(.text) for __aeabi_unwind_cpp_pr0
    rwstdexcept.o(.ARM.exidx) refers to rwstdexcept.o(.ARM.extab) for .extab._ZNSt14__rw_exception10_C_vformatEiSt9__va_list
    rwstdexcept.o(.ARM.exidx) refers to rwstdexcept.o(i._ZN4__rw10__rw_throwEiz) for i._ZN4__rw10__rw_throwEiz
    rwstdexcept.o(.ARM.exidx) refers to unwind_pr0.o(.text) for __aeabi_unwind_cpp_pr0
    rwstdexcept.o(.ARM.exidx) refers to rwstdexcept.o(i._ZNSt14__rw_exception9_C_assignEPKcj) for i._ZNSt14__rw_exception9_C_assignEPKcj
    rwstdexcept.o(.ARM.exidx) refers to unwind_pr0.o(.text) for __aeabi_unwind_cpp_pr0
    rwstdexcept.o(.ARM.exidx) refers to rwstdexcept.o(.ARM.extab) for .extab._ZNSt14__rw_exception9_C_assignEPKcj
    rwstdexcept.o(.ARM.exidx) refers to rwstdexcept.o(i._ZNSt14__rw_exception10_C_vformatEPKcSt9__va_list) for i._ZNSt14__rw_exception10_C_vformatEPKcSt9__va_list
    rwstdexcept.o(.ARM.exidx) refers to unwind_pr0.o(.text) for __aeabi_unwind_cpp_pr0
    rwstdexcept.o(.ARM.exidx) refers to rwstdexcept.o(.ARM.extab) for .extab._ZNSt14__rw_exception10_C_vformatEPKcSt9__va_list
    rwstdexcept.o(.ARM.exidx) refers to rwstdexcept.o(i._ZNSt14__rw_exceptionC1ERKSs) for i._ZNSt14__rw_exceptionC1ERKSs
    rwstdexcept.o(.ARM.exidx) refers to rwstdexcept.o(i._ZN4__rw16__rw_assert_failEPKcS1_iS1_) for i._ZN4__rw16__rw_assert_failEPKcS1_iS1_
    rwstdexcept.o(.ARM.extab) refers to rwstdexcept.o(i._ZN37_INTERNAL_15_rwstdexcept_cpp_8697b68a4__rw13__rw_vfmatstrEPcjiSt9__va_list.clean) for i._ZN37_INTERNAL_15_rwstdexcept_cpp_8697b68a4__rw13__rw_vfmatstrEPcjiSt9__va_list.clean
    rwstdexcept.o(.ARM.extab) refers to arm_exceptions_callunex.o(.text) for __cxa_call_unexpected
    rwstdexcept.o(.ARM.extab) refers to rwstdexcept.o(i._ZNSt14__rw_exception10_C_vformatEiSt9__va_list) for i._ZNSt14__rw_exception10_C_vformatEiSt9__va_list
    rwstdexcept.o(.ARM.extab) refers to arm_exceptions_callunex.o(.text) for __cxa_call_unexpected
    rwstdexcept.o(.ARM.extab) refers to rwstdexcept.o(i._ZNSt14__rw_exception9_C_assignEPKcj) for i._ZNSt14__rw_exception9_C_assignEPKcj
    rwstdexcept.o(.ARM.extab) refers to arm_exceptions_callunex.o(.text) for __cxa_call_unexpected
    rwstdexcept.o(.ARM.extab) refers to rwstdexcept.o(i._ZNSt14__rw_exception10_C_vformatEPKcSt9__va_list) for i._ZNSt14__rw_exception10_C_vformatEPKcSt9__va_list
    rwstdexcept.o(.constdata) refers to rwstdexcept.o(.conststring) for .conststring
    vendor.o(i._ZN4__rw15__rw_locale_imp13_C_parse_nameERNS_18__rw_locale_vectorISsEEPKc) refers to locale.o(.text) for setlocale
    vendor.o(i._ZN4__rw15__rw_locale_imp13_C_parse_nameERNS_18__rw_locale_vectorISsEEPKc) refers to main.o(t._ZNSaIcEC1Ev) for std::allocator<char>::allocator()
    vendor.o(i._ZN4__rw15__rw_locale_imp13_C_parse_nameERNS_18__rw_locale_vectorISsEEPKc) refers to main.o(t._ZNSaIcEC1ERKS_) for std::allocator<char>::allocator(const std::allocator<char>&)
    vendor.o(i._ZN4__rw15__rw_locale_imp13_C_parse_nameERNS_18__rw_locale_vectorISsEEPKc) refers to strlen.o(.text) for strlen
    vendor.o(i._ZN4__rw15__rw_locale_imp13_C_parse_nameERNS_18__rw_locale_vectorISsEEPKc) refers to locale.o(t._ZNSs11_C_allocateEjjj) for std::basic_string<char, std::char_traits<char>, std::allocator<char>>::_C_allocate(unsigned, unsigned, unsigned)
    vendor.o(i._ZN4__rw15__rw_locale_imp13_C_parse_nameERNS_18__rw_locale_vectorISsEEPKc) refers to main.o(i._ZNSt11char_traitsIcE4copyEPcPKcj) for std::char_traits<char>::copy(char*, const char*, unsigned)
    vendor.o(i._ZN4__rw15__rw_locale_imp13_C_parse_nameERNS_18__rw_locale_vectorISsEEPKc) refers to main.o(t._ZNSsaSEPKc) for std::basic_string<char, std::char_traits<char>, std::allocator<char>>::operator =(const char*)
    vendor.o(i._ZN4__rw15__rw_locale_imp13_C_parse_nameERNS_18__rw_locale_vectorISsEEPKc) refers to main.o(t._ZNSsD1Ev) for std::basic_string<char, std::char_traits<char>, std::allocator<char>>::~basic_string()
    vendor.o(i._ZN4__rw15__rw_locale_imp13_C_parse_nameERNS_18__rw_locale_vectorISsEEPKc) refers to rwthrowproc_impl.o(.bss__ZNSs9__nullrefE) for std::basic_string<char, std::char_traits<char>, std::allocator<char>>::__nullref
    vendor.o(i._ZN4__rw15__rw_locale_imp13_C_parse_nameERNS_18__rw_locale_vectorISsEEPKc.clean) refers to main.o(t._ZNSsD1Ev) for std::basic_string<char, std::char_traits<char>, std::allocator<char>>::~basic_string()
    vendor.o(i._ZN4__rw15__rw_locale_imp13_C_parse_nameERNS_18__rw_locale_vectorISsEEPKc.clean) refers to arm_exceptions_cleanup.o(.emb_text) for __cxa_end_cleanup
    vendor.o(i._ZN4__rw22__rw_digit_reader_base10_C_reallocERPcS1_Rj) refers to array_new.o(i._Znaj) for operator new[] (unsigned)
    vendor.o(i._ZN4__rw22__rw_digit_reader_base10_C_reallocERPcS1_Rj) refers to array_del.o(i._ZdaPv) for operator delete[] (void*)
    vendor.o(i._ZN4__rw22__rw_digit_reader_base10_C_reallocERPcS1_Rj) refers to arm_exceptions_begincatch.o(.text) for __cxa_begin_catch
    vendor.o(i._ZN4__rw22__rw_digit_reader_base10_C_reallocERPcS1_Rj) refers to arm_exceptions_rethrow.o(.text) for __cxa_rethrow
    vendor.o(i._ZN4__rw22__rw_digit_reader_base10_C_reallocERPcS1_Rj.clean) refers to arm_exceptions_endcatch.o(.text) for __cxa_end_catch
    vendor.o(i._ZN4__rw22__rw_digit_reader_base10_C_reallocERPcS1_Rj.clean) refers to arm_exceptions_cleanup.o(.emb_text) for __cxa_end_cleanup
    vendor.o(i._ZN4__rw22__rw_digit_reader_base14_C_parse_floatEPKcS2_Pv) refers to vendor.o(i._ZN4__rw22__rw_digit_reader_base10_C_reallocERPcS1_Rj) for __rw::__rw_digit_reader_base::_C_realloc(char*&, char*, unsigned&)
    vendor.o(i._ZN4__rw22__rw_digit_reader_base14_C_parse_floatEPKcS2_Pv) refers to locale.o(i._ZN4__rw21__rw_use_c_lib_localeC1EPKci) for __rw::__rw_use_c_lib_locale::__rw_use_c_lib_locale(const char*, int)
    vendor.o(i._ZN4__rw22__rw_digit_reader_base14_C_parse_floatEPKcS2_Pv) refers to char.o(i._ZN4__rw21__rw_use_c_lib_localeD1Ev) for __rw::__rw_use_c_lib_locale::~__rw_use_c_lib_locale()
    vendor.o(i._ZN4__rw22__rw_digit_reader_base14_C_parse_floatEPKcS2_Pv) refers to sscanf.o(.text) for sscanf
    vendor.o(i._ZN4__rw22__rw_digit_reader_base14_C_parse_floatEPKcS2_Pv) refers to array_del.o(i._ZdaPv) for operator delete[] (void*)
    vendor.o(i._ZN4__rw22__rw_digit_reader_base14_C_parse_floatEPKcS2_Pv) refers to locale.o(.constdata) for __rw::__rw_digit_map_base::_C_digit_chars
    vendor.o(i._ZN4__rw22__rw_digit_reader_base8_C_parseEPKcPv) refers to vendor.o(i._ZN4__rw22__rw_digit_reader_base10_C_reallocERPcS1_Rj) for __rw::__rw_digit_reader_base::_C_realloc(char*&, char*, unsigned&)
    vendor.o(i._ZN4__rw22__rw_digit_reader_base8_C_parseEPKcPv) refers to sscanf.o(.text) for sscanf
    vendor.o(i._ZN4__rw22__rw_digit_reader_base8_C_parseEPKcPv) refers to array_del.o(i._ZdaPv) for operator delete[] (void*)
    vendor.o(i._ZN4__rw22__rw_digit_reader_base8_C_parseEPKcPv) refers to locale.o(.constdata) for __rw::__rw_digit_map_base::_C_digit_chars
    vendor.o(i._ZN4__rw22__rw_digit_reader_base8_C_parseEPKcm) refers to vendor.o(i._ZN4__rw22__rw_digit_reader_base16_C_parse_decimalEPKcS2_) for __rw::__rw_digit_reader_base::_C_parse_decimal(const char*, const char*)
    vendor.o(i._ZN4__rw22__rw_digit_reader_base8_C_parseEPKcy) refers to vendor.o(i._ZN4__rw22__rw_digit_reader_base10_C_reallocERPcS1_Rj) for __rw::__rw_digit_reader_base::_C_realloc(char*&, char*, unsigned&)
    vendor.o(i._ZN4__rw22__rw_digit_reader_base8_C_parseEPKcy) refers to strtoull.o(.text) for strtoull
    vendor.o(i._ZN4__rw22__rw_digit_reader_base8_C_parseEPKcy) refers to array_del.o(i._ZdaPv) for operator delete[] (void*)
    vendor.o(i._ZN4__rw22__rw_digit_writer_base11_C_digitizeEPKv) refers to sprintf.o(.text) for sprintf
    vendor.o(i._ZN4__rw22__rw_digit_writer_base11_C_digitizeEPKv) refers to rt_memmove_v6.o(.text) for __aeabi_memmove
    vendor.o(i._ZN4__rw22__rw_digit_writer_base11_C_digitizeEd) refers to _printf_pad.o(.text) for _printf_pre_padding
    vendor.o(i._ZN4__rw22__rw_digit_writer_base11_C_digitizeEd) refers to _printf_truncate.o(.text) for _printf_truncate_unsigned
    vendor.o(i._ZN4__rw22__rw_digit_writer_base11_C_digitizeEd) refers to _printf_percent.o(.ARM.Collect$$_printf_percent$$00000000) for _printf_percent
    vendor.o(i._ZN4__rw22__rw_digit_writer_base11_C_digitizeEd) refers to _printf_d.o(.ARM.Collect$$_printf_percent$$00000009) for _printf_d
    vendor.o(i._ZN4__rw22__rw_digit_writer_base11_C_digitizeEd) refers to _printf_i.o(.ARM.Collect$$_printf_percent$$00000008) for _printf_i
    vendor.o(i._ZN4__rw22__rw_digit_writer_base11_C_digitizeEd) refers to _printf_u.o(.ARM.Collect$$_printf_percent$$0000000A) for _printf_u
    vendor.o(i._ZN4__rw22__rw_digit_writer_base11_C_digitizeEd) refers to _printf_o.o(.ARM.Collect$$_printf_percent$$0000000B) for _printf_o
    vendor.o(i._ZN4__rw22__rw_digit_writer_base11_C_digitizeEd) refers to _printf_x.o(.ARM.Collect$$_printf_percent$$0000000C) for _printf_x
    vendor.o(i._ZN4__rw22__rw_digit_writer_base11_C_digitizeEd) refers to _printf_f.o(.ARM.Collect$$_printf_percent$$00000003) for _printf_f
    vendor.o(i._ZN4__rw22__rw_digit_writer_base11_C_digitizeEd) refers to _printf_e.o(.ARM.Collect$$_printf_percent$$00000004) for _printf_e
    vendor.o(i._ZN4__rw22__rw_digit_writer_base11_C_digitizeEd) refers to _printf_g.o(.ARM.Collect$$_printf_percent$$00000005) for _printf_g
    vendor.o(i._ZN4__rw22__rw_digit_writer_base11_C_digitizeEd) refers to _printf_c.o(.ARM.Collect$$_printf_percent$$00000013) for _printf_c
    vendor.o(i._ZN4__rw22__rw_digit_writer_base11_C_digitizeEd) refers to _printf_lc.o(.ARM.Collect$$_printf_percent$$00000015) for _printf_lc
    vendor.o(i._ZN4__rw22__rw_digit_writer_base11_C_digitizeEd) refers to _printf_a.o(.ARM.Collect$$_printf_percent$$00000006) for _printf_a
    vendor.o(i._ZN4__rw22__rw_digit_writer_base11_C_digitizeEd) refers to printf2.o(x$fpl$printf2) for _printf_fp_hex
    vendor.o(i._ZN4__rw22__rw_digit_writer_base11_C_digitizeEd) refers to _printf_dec.o(.text) for _printf_int_dec
    vendor.o(i._ZN4__rw22__rw_digit_writer_base11_C_digitizeEd) refers to _printf_oct_int_ll.o(.text) for _printf_longlong_oct
    vendor.o(i._ZN4__rw22__rw_digit_writer_base11_C_digitizeEd) refers to _printf_hex_int_ll_ptr.o(.text) for _printf_longlong_hex
    vendor.o(i._ZN4__rw22__rw_digit_writer_base11_C_digitizeEd) refers to printf1.o(x$fpl$printf1) for _printf_fp_dec
    vendor.o(i._ZN4__rw22__rw_digit_writer_base11_C_digitizeEd) refers to _printf_str.o(.text) for _printf_str
    vendor.o(i._ZN4__rw22__rw_digit_writer_base11_C_digitizeEd) refers to _printf_wctomb.o(.text) for _printf_wctomb
    vendor.o(i._ZN4__rw22__rw_digit_writer_base11_C_digitizeEd) refers to vendor.o(i._ZN4__rw22__rw_digit_writer_base16_C_get_f_patternEPcc) for __rw::__rw_digit_writer_base::_C_get_f_pattern(char*, char)
    vendor.o(i._ZN4__rw22__rw_digit_writer_base11_C_digitizeEd) refers to deqf.o(x$fpl$deqf) for __aeabi_cdcmpeq
    vendor.o(i._ZN4__rw22__rw_digit_writer_base11_C_digitizeEd) refers to dleqf.o(x$fpl$dleqf) for __aeabi_cdcmple
    vendor.o(i._ZN4__rw22__rw_digit_writer_base11_C_digitizeEd) refers to array_new.o(i._Znaj) for operator new[] (unsigned)
    vendor.o(i._ZN4__rw22__rw_digit_writer_base11_C_digitizeEd) refers to __2sprintf.o(.text) for __2sprintf
    vendor.o(i._ZN4__rw22__rw_digit_writer_base11_C_digitizeEe) refers to _printf_pad.o(.text) for _printf_pre_padding
    vendor.o(i._ZN4__rw22__rw_digit_writer_base11_C_digitizeEe) refers to _printf_truncate.o(.text) for _printf_truncate_unsigned
    vendor.o(i._ZN4__rw22__rw_digit_writer_base11_C_digitizeEe) refers to _printf_percent.o(.ARM.Collect$$_printf_percent$$00000000) for _printf_percent
    vendor.o(i._ZN4__rw22__rw_digit_writer_base11_C_digitizeEe) refers to _printf_d.o(.ARM.Collect$$_printf_percent$$00000009) for _printf_d
    vendor.o(i._ZN4__rw22__rw_digit_writer_base11_C_digitizeEe) refers to _printf_i.o(.ARM.Collect$$_printf_percent$$00000008) for _printf_i
    vendor.o(i._ZN4__rw22__rw_digit_writer_base11_C_digitizeEe) refers to _printf_u.o(.ARM.Collect$$_printf_percent$$0000000A) for _printf_u
    vendor.o(i._ZN4__rw22__rw_digit_writer_base11_C_digitizeEe) refers to _printf_o.o(.ARM.Collect$$_printf_percent$$0000000B) for _printf_o
    vendor.o(i._ZN4__rw22__rw_digit_writer_base11_C_digitizeEe) refers to _printf_x.o(.ARM.Collect$$_printf_percent$$0000000C) for _printf_x
    vendor.o(i._ZN4__rw22__rw_digit_writer_base11_C_digitizeEe) refers to _printf_f.o(.ARM.Collect$$_printf_percent$$00000003) for _printf_f
    vendor.o(i._ZN4__rw22__rw_digit_writer_base11_C_digitizeEe) refers to _printf_e.o(.ARM.Collect$$_printf_percent$$00000004) for _printf_e
    vendor.o(i._ZN4__rw22__rw_digit_writer_base11_C_digitizeEe) refers to _printf_g.o(.ARM.Collect$$_printf_percent$$00000005) for _printf_g
    vendor.o(i._ZN4__rw22__rw_digit_writer_base11_C_digitizeEe) refers to _printf_c.o(.ARM.Collect$$_printf_percent$$00000013) for _printf_c
    vendor.o(i._ZN4__rw22__rw_digit_writer_base11_C_digitizeEe) refers to _printf_lc.o(.ARM.Collect$$_printf_percent$$00000015) for _printf_lc
    vendor.o(i._ZN4__rw22__rw_digit_writer_base11_C_digitizeEe) refers to _printf_a.o(.ARM.Collect$$_printf_percent$$00000006) for _printf_a
    vendor.o(i._ZN4__rw22__rw_digit_writer_base11_C_digitizeEe) refers to printf2.o(x$fpl$printf2) for _printf_fp_hex
    vendor.o(i._ZN4__rw22__rw_digit_writer_base11_C_digitizeEe) refers to _printf_dec.o(.text) for _printf_int_dec
    vendor.o(i._ZN4__rw22__rw_digit_writer_base11_C_digitizeEe) refers to _printf_oct_int_ll.o(.text) for _printf_longlong_oct
    vendor.o(i._ZN4__rw22__rw_digit_writer_base11_C_digitizeEe) refers to _printf_hex_int_ll_ptr.o(.text) for _printf_longlong_hex
    vendor.o(i._ZN4__rw22__rw_digit_writer_base11_C_digitizeEe) refers to printf1.o(x$fpl$printf1) for _printf_fp_dec
    vendor.o(i._ZN4__rw22__rw_digit_writer_base11_C_digitizeEe) refers to _printf_str.o(.text) for _printf_str
    vendor.o(i._ZN4__rw22__rw_digit_writer_base11_C_digitizeEe) refers to _printf_wctomb.o(.text) for _printf_wctomb
    vendor.o(i._ZN4__rw22__rw_digit_writer_base11_C_digitizeEe) refers to vendor.o(i._ZN4__rw22__rw_digit_writer_base16_C_get_f_patternEPcc) for __rw::__rw_digit_writer_base::_C_get_f_pattern(char*, char)
    vendor.o(i._ZN4__rw22__rw_digit_writer_base11_C_digitizeEe) refers to deqf.o(x$fpl$deqf) for __aeabi_cdcmpeq
    vendor.o(i._ZN4__rw22__rw_digit_writer_base11_C_digitizeEe) refers to dleqf.o(x$fpl$dleqf) for __aeabi_cdcmple
    vendor.o(i._ZN4__rw22__rw_digit_writer_base11_C_digitizeEe) refers to array_new.o(i._Znaj) for operator new[] (unsigned)
    vendor.o(i._ZN4__rw22__rw_digit_writer_base11_C_digitizeEe) refers to __2sprintf.o(.text) for __2sprintf
    vendor.o(i._ZN4__rw22__rw_digit_writer_base11_C_digitizeEmbPKc) refers to _printf_pad.o(.text) for _printf_pre_padding
    vendor.o(i._ZN4__rw22__rw_digit_writer_base11_C_digitizeEmbPKc) refers to _printf_truncate.o(.text) for _printf_truncate_unsigned
    vendor.o(i._ZN4__rw22__rw_digit_writer_base11_C_digitizeEmbPKc) refers to _printf_percent.o(.ARM.Collect$$_printf_percent$$00000000) for _printf_percent
    vendor.o(i._ZN4__rw22__rw_digit_writer_base11_C_digitizeEmbPKc) refers to _printf_d.o(.ARM.Collect$$_printf_percent$$00000009) for _printf_d
    vendor.o(i._ZN4__rw22__rw_digit_writer_base11_C_digitizeEmbPKc) refers to _printf_i.o(.ARM.Collect$$_printf_percent$$00000008) for _printf_i
    vendor.o(i._ZN4__rw22__rw_digit_writer_base11_C_digitizeEmbPKc) refers to _printf_u.o(.ARM.Collect$$_printf_percent$$0000000A) for _printf_u
    vendor.o(i._ZN4__rw22__rw_digit_writer_base11_C_digitizeEmbPKc) refers to _printf_o.o(.ARM.Collect$$_printf_percent$$0000000B) for _printf_o
    vendor.o(i._ZN4__rw22__rw_digit_writer_base11_C_digitizeEmbPKc) refers to _printf_x.o(.ARM.Collect$$_printf_percent$$0000000C) for _printf_x
    vendor.o(i._ZN4__rw22__rw_digit_writer_base11_C_digitizeEmbPKc) refers to _printf_c.o(.ARM.Collect$$_printf_percent$$00000013) for _printf_c
    vendor.o(i._ZN4__rw22__rw_digit_writer_base11_C_digitizeEmbPKc) refers to _printf_lc.o(.ARM.Collect$$_printf_percent$$00000015) for _printf_lc
    vendor.o(i._ZN4__rw22__rw_digit_writer_base11_C_digitizeEmbPKc) refers to _printf_dec.o(.text) for _printf_int_dec
    vendor.o(i._ZN4__rw22__rw_digit_writer_base11_C_digitizeEmbPKc) refers to _printf_oct_int_ll.o(.text) for _printf_longlong_oct
    vendor.o(i._ZN4__rw22__rw_digit_writer_base11_C_digitizeEmbPKc) refers to _printf_hex_int_ll_ptr.o(.text) for _printf_longlong_hex
    vendor.o(i._ZN4__rw22__rw_digit_writer_base11_C_digitizeEmbPKc) refers to _printf_str.o(.text) for _printf_str
    vendor.o(i._ZN4__rw22__rw_digit_writer_base11_C_digitizeEmbPKc) refers to _printf_wctomb.o(.text) for _printf_wctomb
    vendor.o(i._ZN4__rw22__rw_digit_writer_base11_C_digitizeEmbPKc) refers to vendor.o(i._ZN4__rw22__rw_digit_writer_base14_C_get_patternEPcPKcb) for __rw::__rw_digit_writer_base::_C_get_pattern(char*, const char*, bool)
    vendor.o(i._ZN4__rw22__rw_digit_writer_base11_C_digitizeEmbPKc) refers to __2sprintf.o(.text) for __2sprintf
    vendor.o(i._ZN4__rw22__rw_digit_writer_base11_C_digitizeEmbPKc) refers to vendor.o(i._ZN4__rw22__rw_digit_writer_base12_C_to_binaryEm) for __rw::__rw_digit_writer_base::_C_to_binary(unsigned long)
    vendor.o(i._ZN4__rw22__rw_digit_writer_base11_C_digitizeEyb) refers to _printf_pad.o(.text) for _printf_pre_padding
    vendor.o(i._ZN4__rw22__rw_digit_writer_base11_C_digitizeEyb) refers to _printf_truncate.o(.text) for _printf_truncate_unsigned
    vendor.o(i._ZN4__rw22__rw_digit_writer_base11_C_digitizeEyb) refers to _printf_percent.o(.ARM.Collect$$_printf_percent$$00000000) for _printf_percent
    vendor.o(i._ZN4__rw22__rw_digit_writer_base11_C_digitizeEyb) refers to _printf_d.o(.ARM.Collect$$_printf_percent$$00000009) for _printf_d
    vendor.o(i._ZN4__rw22__rw_digit_writer_base11_C_digitizeEyb) refers to _printf_i.o(.ARM.Collect$$_printf_percent$$00000008) for _printf_i
    vendor.o(i._ZN4__rw22__rw_digit_writer_base11_C_digitizeEyb) refers to _printf_u.o(.ARM.Collect$$_printf_percent$$0000000A) for _printf_u
    vendor.o(i._ZN4__rw22__rw_digit_writer_base11_C_digitizeEyb) refers to _printf_lld.o(.ARM.Collect$$_printf_percent$$0000000E) for _printf_lld
    vendor.o(i._ZN4__rw22__rw_digit_writer_base11_C_digitizeEyb) refers to _printf_lli.o(.ARM.Collect$$_printf_percent$$0000000D) for _printf_lli
    vendor.o(i._ZN4__rw22__rw_digit_writer_base11_C_digitizeEyb) refers to _printf_llu.o(.ARM.Collect$$_printf_percent$$0000000F) for _printf_llu
    vendor.o(i._ZN4__rw22__rw_digit_writer_base11_C_digitizeEyb) refers to _printf_o.o(.ARM.Collect$$_printf_percent$$0000000B) for _printf_o
    vendor.o(i._ZN4__rw22__rw_digit_writer_base11_C_digitizeEyb) refers to _printf_llo.o(.ARM.Collect$$_printf_percent$$00000010) for _printf_llo
    vendor.o(i._ZN4__rw22__rw_digit_writer_base11_C_digitizeEyb) refers to _printf_x.o(.ARM.Collect$$_printf_percent$$0000000C) for _printf_x
    vendor.o(i._ZN4__rw22__rw_digit_writer_base11_C_digitizeEyb) refers to _printf_llx.o(.ARM.Collect$$_printf_percent$$00000011) for _printf_llx
    vendor.o(i._ZN4__rw22__rw_digit_writer_base11_C_digitizeEyb) refers to _printf_c.o(.ARM.Collect$$_printf_percent$$00000013) for _printf_c
    vendor.o(i._ZN4__rw22__rw_digit_writer_base11_C_digitizeEyb) refers to _printf_lc.o(.ARM.Collect$$_printf_percent$$00000015) for _printf_lc
    vendor.o(i._ZN4__rw22__rw_digit_writer_base11_C_digitizeEyb) refers to _printf_dec.o(.text) for _printf_int_dec
    vendor.o(i._ZN4__rw22__rw_digit_writer_base11_C_digitizeEyb) refers to _printf_longlong_dec.o(.text) for _printf_longlong_dec
    vendor.o(i._ZN4__rw22__rw_digit_writer_base11_C_digitizeEyb) refers to _printf_oct_int_ll.o(.text) for _printf_longlong_oct
    vendor.o(i._ZN4__rw22__rw_digit_writer_base11_C_digitizeEyb) refers to _printf_hex_int_ll_ptr.o(.text) for _printf_longlong_hex
    vendor.o(i._ZN4__rw22__rw_digit_writer_base11_C_digitizeEyb) refers to _printf_str.o(.text) for _printf_str
    vendor.o(i._ZN4__rw22__rw_digit_writer_base11_C_digitizeEyb) refers to _printf_wctomb.o(.text) for _printf_wctomb
    vendor.o(i._ZN4__rw22__rw_digit_writer_base11_C_digitizeEyb) refers to vendor.o(i._ZN4__rw22__rw_digit_writer_base14_C_get_patternEPcPKcb) for __rw::__rw_digit_writer_base::_C_get_pattern(char*, const char*, bool)
    vendor.o(i._ZN4__rw22__rw_digit_writer_base11_C_digitizeEyb) refers to __2sprintf.o(.text) for __2sprintf
    vendor.o(i._ZN4__rw22__rw_digit_writer_base11_C_digitizeEyb) refers to vendor.o(i._ZN4__rw22__rw_digit_writer_base12_C_to_binaryEy) for __rw::__rw_digit_writer_base::_C_to_binary(unsigned long long)
    vendor.o(i._ZN4__rw22__rw_digit_writer_base12_C_to_binaryEy) refers to vendor.o(.data) for .data
    vendor.o(i._ZN4__rw22__rw_digit_writer_base12_C_to_binaryEy) refers to locale.o(.constdata) for __rw::__rw_digit_map_base::_C_digit_chars
    vendor.o(.ARM.exidx) refers to vendor.o(i._ZN4__rw15__rw_locale_imp15_C_map_categoryEi) for i._ZN4__rw15__rw_locale_imp15_C_map_categoryEi
    vendor.o(.ARM.exidx) refers to vendor.o(i._ZN4__rw15__rw_locale_imp13_C_parse_nameERNS_18__rw_locale_vectorISsEEPKc) for i._ZN4__rw15__rw_locale_imp13_C_parse_nameERNS_18__rw_locale_vectorISsEEPKc
    vendor.o(.ARM.exidx) refers to unwind_pr0.o(.text) for __aeabi_unwind_cpp_pr0
    vendor.o(.ARM.exidx) refers to vendor.o(.ARM.extab) for .extab._ZN4__rw15__rw_locale_imp13_C_parse_nameERNS_18__rw_locale_vectorISsEEPKc
    vendor.o(.ARM.exidx) refers to vendor.o(i._ZN4__rw15__rw_locale_imp13_C_parse_nameERNS_18__rw_locale_vectorISsEEPKc.clean) for i._ZN4__rw15__rw_locale_imp13_C_parse_nameERNS_18__rw_locale_vectorISsEEPKc.clean
    vendor.o(.ARM.exidx) refers to vendor.o(i._ZN4__rw22__rw_digit_reader_base16_C_parse_decimalEPKcS2_) for i._ZN4__rw22__rw_digit_reader_base16_C_parse_decimalEPKcS2_
    vendor.o(.ARM.exidx) refers to vendor.o(i._ZN4__rw22__rw_digit_reader_base8_C_parseEPKcm) for i._ZN4__rw22__rw_digit_reader_base8_C_parseEPKcm
    vendor.o(.ARM.exidx) refers to unwind_pr0.o(.text) for __aeabi_unwind_cpp_pr0
    vendor.o(.ARM.exidx) refers to vendor.o(i._ZN4__rw22__rw_digit_reader_base10_C_reallocERPcS1_Rj) for i._ZN4__rw22__rw_digit_reader_base10_C_reallocERPcS1_Rj
    vendor.o(.ARM.exidx) refers to unwind_pr0.o(.text) for __aeabi_unwind_cpp_pr0
    vendor.o(.ARM.exidx) refers to vendor.o(.ARM.extab) for .extab._ZN4__rw22__rw_digit_reader_base10_C_reallocERPcS1_Rj
    vendor.o(.ARM.exidx) refers to vendor.o(i._ZN4__rw22__rw_digit_reader_base10_C_reallocERPcS1_Rj.clean) for i._ZN4__rw22__rw_digit_reader_base10_C_reallocERPcS1_Rj.clean
    vendor.o(.ARM.exidx) refers to vendor.o(i._ZN4__rw22__rw_digit_reader_base8_C_parseEPKcy) for i._ZN4__rw22__rw_digit_reader_base8_C_parseEPKcy
    vendor.o(.ARM.exidx) refers to unwind_pr0.o(.text) for __aeabi_unwind_cpp_pr0
    vendor.o(.ARM.exidx) refers to vendor.o(i._ZN4__rw22__rw_digit_reader_base8_C_parseEPKcPv) for i._ZN4__rw22__rw_digit_reader_base8_C_parseEPKcPv
    vendor.o(.ARM.exidx) refers to unwind_pr0.o(.text) for __aeabi_unwind_cpp_pr0
    vendor.o(.ARM.exidx) refers to vendor.o(i._ZN4__rw22__rw_digit_reader_base14_C_parse_floatEPKcS2_Pv) for i._ZN4__rw22__rw_digit_reader_base14_C_parse_floatEPKcS2_Pv
    vendor.o(.ARM.exidx) refers to unwind_pr0.o(.text) for __aeabi_unwind_cpp_pr0
    vendor.o(.ARM.exidx) refers to vendor.o(i._ZN4__rw22__rw_digit_writer_base14_C_get_patternEPcPKcb) for i._ZN4__rw22__rw_digit_writer_base14_C_get_patternEPcPKcb
    vendor.o(.ARM.exidx) refers to vendor.o(i._ZN4__rw22__rw_digit_writer_base16_C_get_f_patternEPcc) for i._ZN4__rw22__rw_digit_writer_base16_C_get_f_patternEPcc
    vendor.o(.ARM.exidx) refers to vendor.o(i._ZN4__rw22__rw_digit_writer_base12_C_to_binaryEm) for i._ZN4__rw22__rw_digit_writer_base12_C_to_binaryEm
    vendor.o(.ARM.exidx) refers to vendor.o(i._ZN4__rw22__rw_digit_writer_base11_C_digitizeEmbPKc) for i._ZN4__rw22__rw_digit_writer_base11_C_digitizeEmbPKc
    vendor.o(.ARM.exidx) refers to unwind_pr0.o(.text) for __aeabi_unwind_cpp_pr0
    vendor.o(.ARM.exidx) refers to vendor.o(i._ZN4__rw22__rw_digit_writer_base11_C_digitizeEPKv) for i._ZN4__rw22__rw_digit_writer_base11_C_digitizeEPKv
    vendor.o(.ARM.exidx) refers to vendor.o(i._ZN4__rw22__rw_digit_writer_base12_C_to_binaryEy) for i._ZN4__rw22__rw_digit_writer_base12_C_to_binaryEy
    vendor.o(.ARM.exidx) refers to vendor.o(i._ZN4__rw22__rw_digit_writer_base11_C_digitizeEyb) for i._ZN4__rw22__rw_digit_writer_base11_C_digitizeEyb
    vendor.o(.ARM.exidx) refers to unwind_pr0.o(.text) for __aeabi_unwind_cpp_pr0
    vendor.o(.ARM.exidx) refers to vendor.o(i._ZN4__rw22__rw_digit_writer_base11_C_digitizeEd) for i._ZN4__rw22__rw_digit_writer_base11_C_digitizeEd
    vendor.o(.ARM.exidx) refers to unwind_pr0.o(.text) for __aeabi_unwind_cpp_pr0
    vendor.o(.ARM.exidx) refers to vendor.o(i._ZN4__rw22__rw_digit_writer_base11_C_digitizeEe) for i._ZN4__rw22__rw_digit_writer_base11_C_digitizeEe
    vendor.o(.ARM.exidx) refers to unwind_pr0.o(.text) for __aeabi_unwind_cpp_pr0
    vendor.o(.ARM.exidx) refers to vendor.o(i._ZN4__rw22__rw_digit_writer_base14_C_calc_groupsEiPKc) for i._ZN4__rw22__rw_digit_writer_base14_C_calc_groupsEiPKc
    vendor.o(.ARM.extab) refers to vendor.o(i._ZN4__rw15__rw_locale_imp13_C_parse_nameERNS_18__rw_locale_vectorISsEEPKc.clean) for i._ZN4__rw15__rw_locale_imp13_C_parse_nameERNS_18__rw_locale_vectorISsEEPKc.clean
    vendor.o(.ARM.extab) refers to vendor.o(i._ZN4__rw22__rw_digit_reader_base10_C_reallocERPcS1_Rj) for i._ZN4__rw22__rw_digit_reader_base10_C_reallocERPcS1_Rj
    vendor.o(.ARM.extab) refers to vendor.o(i._ZN4__rw22__rw_digit_reader_base10_C_reallocERPcS1_Rj.clean) for i._ZN4__rw22__rw_digit_reader_base10_C_reallocERPcS1_Rj.clean
    array_del.o(i._ZdaPv) refers to delete.o(i._ZdlPv) for operator delete (void*)
    array_del.o(.ARM.exidx) refers to array_del.o(i._ZdaPv) for i._ZdaPv
    array_new.o(i._Znaj) refers to new.o(i._Znwj) for operator new(unsigned)
    array_new.o(.ARM.exidx) refers to array_new.o(i._Znaj) for i._Znaj
    array_new.o(.ARM.exidx) refers to unwind_pr0.o(.text) for __aeabi_unwind_cpp_pr0
    array_new.o(.ARM.exidx) refers to array_new.o(.ARM.extab) for .extab._Znaj
    array_new.o(.ARM.extab) refers to arm_exceptions_callunex.o(.text) for __cxa_call_unexpected
    array_new.o(.ARM.extab) refers to bad_alloc_dtor.o(.constdata__ZTISt9bad_alloc) for typeinfo for std::bad_alloc
    delete.o(i._ZdlPv) refers to h1_free.o(.text) for free
    delete.o(.ARM.exidx) refers to delete.o(i._ZdlPv) for i._ZdlPv
    new.o(i._Znwj) refers to rt_new_handler_addr_intlibspace.o(.text) for __rt_new_handler_addr
    new.o(i._Znwj) refers to h1_alloc.o(.text) for malloc
    new.o(i._Znwj) refers to newhandler.o(i._Z21__default_new_handlerv) for __default_new_handler()
    new.o(.ARM.exidx) refers to new.o(i._Znwj) for i._Znwj
    new.o(.ARM.exidx) refers to unwind_pr0.o(.text) for __aeabi_unwind_cpp_pr0
    new.o(.ARM.exidx) refers to new.o(.ARM.extab) for .extab._Znwj
    new.o(.ARM.extab) refers to arm_exceptions_callunex.o(.text) for __cxa_call_unexpected
    new.o(.ARM.extab) refers to bad_alloc_dtor.o(.constdata__ZTISt9bad_alloc) for typeinfo for std::bad_alloc
    cxa_guard_acquire.o(.ARM.exidx) refers to cxa_guard_acquire.o(i.__cxa_guard_acquire) for i.__cxa_guard_acquire
    cxa_guard_release.o(.ARM.exidx) refers to cxa_guard_release.o(i.__cxa_guard_release) for i.__cxa_guard_release
    cxa_throw_bad_array_new_length.o(.ARM.exidx) refers to cxa_throw_bad_array_new_length.o(i.__cxa_throw_bad_array_new_length) for i.__cxa_throw_bad_array_new_length
    lib_rtti_impl.o(i._ZN10__cxxabiv116__enum_type_infoD0Ev) refers to lib_rtti_impl.o(i._ZN10__cxxabiv116__enum_type_infoD1Ev) for __cxxabiv1::__enum_type_info::~__enum_type_info()
    lib_rtti_impl.o(i._ZN10__cxxabiv117__array_type_infoD0Ev) refers to lib_rtti_impl.o(i._ZN10__cxxabiv117__array_type_infoD1Ev) for __cxxabiv1::__array_type_info::~__array_type_info()
    lib_rtti_impl.o(i._ZN10__cxxabiv117__class_type_infoD0Ev) refers to lib_rtti_impl.o(i._ZN10__cxxabiv117__class_type_infoD1Ev) for __cxxabiv1::__class_type_info::~__class_type_info()
    lib_rtti_impl.o(i._ZN10__cxxabiv117__pbase_type_infoD0Ev) refers to lib_rtti_impl.o(i._ZN10__cxxabiv117__pbase_type_infoD1Ev) for __cxxabiv1::__pbase_type_info::~__pbase_type_info()
    lib_rtti_impl.o(i._ZN10__cxxabiv119__pointer_type_infoD0Ev) refers to lib_rtti_impl.o(i._ZN10__cxxabiv119__pointer_type_infoD1Ev) for __cxxabiv1::__pointer_type_info::~__pointer_type_info()
    lib_rtti_impl.o(i._ZN10__cxxabiv119__pointer_type_infoD1Ev) refers to lib_rtti_impl.o(i._ZN10__cxxabiv117__pbase_type_infoD1Ev) for __cxxabiv1::__pbase_type_info::~__pbase_type_info()
    lib_rtti_impl.o(i._ZN10__cxxabiv120__function_type_infoD0Ev) refers to lib_rtti_impl.o(i._ZN10__cxxabiv120__function_type_infoD1Ev) for __cxxabiv1::__function_type_info::~__function_type_info()
    lib_rtti_impl.o(i._ZN10__cxxabiv120__si_class_type_infoD0Ev) refers to lib_rtti_impl.o(i._ZN10__cxxabiv120__si_class_type_infoD1Ev) for __cxxabiv1::__si_class_type_info::~__si_class_type_info()
    lib_rtti_impl.o(i._ZN10__cxxabiv120__si_class_type_infoD1Ev) refers to lib_rtti_impl.o(i._ZN10__cxxabiv117__class_type_infoD1Ev) for __cxxabiv1::__class_type_info::~__class_type_info()
    lib_rtti_impl.o(i._ZN10__cxxabiv121__vmi_class_type_infoD0Ev) refers to lib_rtti_impl.o(i._ZN10__cxxabiv121__vmi_class_type_infoD1Ev) for __cxxabiv1::__vmi_class_type_info::~__vmi_class_type_info()
    lib_rtti_impl.o(i._ZN10__cxxabiv121__vmi_class_type_infoD1Ev) refers to lib_rtti_impl.o(i._ZN10__cxxabiv117__class_type_infoD1Ev) for __cxxabiv1::__class_type_info::~__class_type_info()
    lib_rtti_impl.o(i._ZN10__cxxabiv123__fundamental_type_infoD0Ev) refers to lib_rtti_impl.o(i._ZN10__cxxabiv123__fundamental_type_infoD1Ev) for __cxxabiv1::__fundamental_type_info::~__fundamental_type_info()
    lib_rtti_impl.o(i._ZN10__cxxabiv129__pointer_to_member_type_infoD0Ev) refers to lib_rtti_impl.o(i._ZN10__cxxabiv129__pointer_to_member_type_infoD1Ev) for __cxxabiv1::__pointer_to_member_type_info::~__pointer_to_member_type_info()
    lib_rtti_impl.o(i._ZN10__cxxabiv129__pointer_to_member_type_infoD1Ev) refers to lib_rtti_impl.o(i._ZN10__cxxabiv117__pbase_type_infoD1Ev) for __cxxabiv1::__pbase_type_info::~__pbase_type_info()
    lib_rtti_impl.o(.ARM.exidx) refers to lib_rtti_impl.o(i._ZN10__cxxabiv123__fundamental_type_infoD1Ev) for i._ZN10__cxxabiv123__fundamental_type_infoD1Ev
    lib_rtti_impl.o(.ARM.exidx) refers to lib_rtti_impl.o(i._ZN10__cxxabiv123__fundamental_type_infoD0Ev) for i._ZN10__cxxabiv123__fundamental_type_infoD0Ev
    lib_rtti_impl.o(.ARM.exidx) refers to lib_rtti_impl.o(i._ZN10__cxxabiv117__array_type_infoD1Ev) for i._ZN10__cxxabiv117__array_type_infoD1Ev
    lib_rtti_impl.o(.ARM.exidx) refers to lib_rtti_impl.o(i._ZN10__cxxabiv117__array_type_infoD0Ev) for i._ZN10__cxxabiv117__array_type_infoD0Ev
    lib_rtti_impl.o(.ARM.exidx) refers to lib_rtti_impl.o(i._ZN10__cxxabiv120__function_type_infoD1Ev) for i._ZN10__cxxabiv120__function_type_infoD1Ev
    lib_rtti_impl.o(.ARM.exidx) refers to lib_rtti_impl.o(i._ZN10__cxxabiv120__function_type_infoD0Ev) for i._ZN10__cxxabiv120__function_type_infoD0Ev
    lib_rtti_impl.o(.ARM.exidx) refers to lib_rtti_impl.o(i._ZN10__cxxabiv116__enum_type_infoD1Ev) for i._ZN10__cxxabiv116__enum_type_infoD1Ev
    lib_rtti_impl.o(.ARM.exidx) refers to lib_rtti_impl.o(i._ZN10__cxxabiv116__enum_type_infoD0Ev) for i._ZN10__cxxabiv116__enum_type_infoD0Ev
    lib_rtti_impl.o(.ARM.exidx) refers to lib_rtti_impl.o(i._ZN10__cxxabiv117__class_type_infoD1Ev) for i._ZN10__cxxabiv117__class_type_infoD1Ev
    lib_rtti_impl.o(.ARM.exidx) refers to lib_rtti_impl.o(i._ZN10__cxxabiv117__class_type_infoD0Ev) for i._ZN10__cxxabiv117__class_type_infoD0Ev
    lib_rtti_impl.o(.ARM.exidx) refers to lib_rtti_impl.o(i._ZN10__cxxabiv120__si_class_type_infoD1Ev) for i._ZN10__cxxabiv120__si_class_type_infoD1Ev
    lib_rtti_impl.o(.ARM.exidx) refers to lib_rtti_impl.o(i._ZN10__cxxabiv120__si_class_type_infoD0Ev) for i._ZN10__cxxabiv120__si_class_type_infoD0Ev
    lib_rtti_impl.o(.ARM.exidx) refers to lib_rtti_impl.o(i._ZN10__cxxabiv121__vmi_class_type_infoD1Ev) for i._ZN10__cxxabiv121__vmi_class_type_infoD1Ev
    lib_rtti_impl.o(.ARM.exidx) refers to lib_rtti_impl.o(i._ZN10__cxxabiv121__vmi_class_type_infoD0Ev) for i._ZN10__cxxabiv121__vmi_class_type_infoD0Ev
    lib_rtti_impl.o(.ARM.exidx) refers to lib_rtti_impl.o(i._ZN10__cxxabiv117__pbase_type_infoD1Ev) for i._ZN10__cxxabiv117__pbase_type_infoD1Ev
    lib_rtti_impl.o(.ARM.exidx) refers to lib_rtti_impl.o(i._ZN10__cxxabiv117__pbase_type_infoD0Ev) for i._ZN10__cxxabiv117__pbase_type_infoD0Ev
    lib_rtti_impl.o(.ARM.exidx) refers to lib_rtti_impl.o(i._ZN10__cxxabiv119__pointer_type_infoD1Ev) for i._ZN10__cxxabiv119__pointer_type_infoD1Ev
    lib_rtti_impl.o(.ARM.exidx) refers to lib_rtti_impl.o(i._ZN10__cxxabiv119__pointer_type_infoD0Ev) for i._ZN10__cxxabiv119__pointer_type_infoD0Ev
    lib_rtti_impl.o(.ARM.exidx) refers to lib_rtti_impl.o(i._ZN10__cxxabiv129__pointer_to_member_type_infoD1Ev) for i._ZN10__cxxabiv129__pointer_to_member_type_infoD1Ev
    lib_rtti_impl.o(.ARM.exidx) refers to lib_rtti_impl.o(i._ZN10__cxxabiv129__pointer_to_member_type_infoD0Ev) for i._ZN10__cxxabiv129__pointer_to_member_type_infoD0Ev
    aeabi_vec_delete.o(i.__aeabi_vec_delete) refers to aeabi_vec_dtor_cookie.o(i.__aeabi_vec_dtor_cookie) for __aeabi_vec_dtor_cookie
    aeabi_vec_delete.o(i.__aeabi_vec_delete) refers to array_del.o(i._ZdaPv) for operator delete[] (void*)
    aeabi_vec_delete.o(i.__aeabi_vec_delete) refers to arm_exceptions_begincatch.o(.text) for __cxa_begin_catch
    aeabi_vec_delete.o(i.__aeabi_vec_delete) refers to arm_exceptions_rethrow.o(.text) for __cxa_rethrow
    aeabi_vec_delete.o(i.__aeabi_vec_delete.clean) refers to arm_exceptions_endcatch.o(.text) for __cxa_end_catch
    aeabi_vec_delete.o(i.__aeabi_vec_delete.clean) refers to arm_exceptions_cleanup.o(.emb_text) for __cxa_end_cleanup
    aeabi_vec_delete.o(.ARM.exidx) refers to aeabi_vec_delete.o(i.__aeabi_vec_delete) for i.__aeabi_vec_delete
    aeabi_vec_delete.o(.ARM.exidx) refers to unwind_pr0.o(.text) for __aeabi_unwind_cpp_pr0
    aeabi_vec_delete.o(.ARM.exidx) refers to aeabi_vec_delete.o(.ARM.extab) for .extab.__aeabi_vec_delete
    aeabi_vec_delete.o(.ARM.exidx) refers to aeabi_vec_delete.o(i.__aeabi_vec_delete.clean) for i.__aeabi_vec_delete.clean
    aeabi_vec_delete.o(.ARM.extab) refers to aeabi_vec_delete.o(i.__aeabi_vec_delete) for i.__aeabi_vec_delete
    aeabi_vec_delete.o(.ARM.extab) refers to aeabi_vec_delete.o(i.__aeabi_vec_delete.clean) for i.__aeabi_vec_delete.clean
    arm_exceptions_cleanup.o(.emb_text) refers to arm_exceptions_cleanup.o(.text) for __ARM_cxa_end_cleanup
    arm_exceptions_cleanup.o(.emb_text) refers (Weak) to unwinder.o(.emb_text) for _Unwind_Resume
    arm_exceptions_cleanup.o(.ARM.exidx) refers to arm_exceptions_cleanup.o(.emb_text) for __cxa_end_cleanup
    arm_exceptions_cleanup.o(.text) refers to arm_exceptions_globs.o(.text) for __cxa_get_globals
    arm_exceptions_cleanup.o(.text) refers to arm_exceptions_support.o(.text) for __ARM::is_foreign_exception(_Unwind_Control_Block*)
    arm_exceptions_cleanup.o(.text) refers to arm_exceptions_foreign.o(.text) for __ARM::get_foreign_intermediary(__cxa_exception*, _Unwind_Control_Block*)
    arm_exceptions_cleanup.o(.text) refers to arm_exceptions_terminate.o(.text) for std::terminate()
    arm_exceptions_cleanup.o(.text) refers to arm_exceptions_free.o(.text) for __cxa_free_exception
    arm_exceptions_cleanup.o(.ARM.exidx) refers to arm_exceptions_cleanup.o(.text) for .text
    arm_exceptions_uncaught.o(.text) refers to arm_exceptions_globs.o(.text) for __cxa_get_globals
    arm_exceptions_uncaught.o(.ARM.exidx) refers to arm_exceptions_uncaught.o(.text) for .text
    arm_exceptions_uncaught.o(.ARM.exidx) refers to unwind_pr0.o(.text) for __aeabi_unwind_cpp_pr0
    arm_exceptions_uncaught.o(.ARM.exidx) refers to arm_exceptions_uncaught.o(.ARM.extab) for .extab._ZSt18uncaught_exceptionv
    arm_exceptions_uncaught.o(.ARM.extab) refers to arm_exceptions_callunex.o(.text) for __cxa_call_unexpected
    arm_exceptions_rethrow.o(.text) refers to arm_exceptions_globs.o(.text) for __cxa_get_globals
    arm_exceptions_rethrow.o(.text) refers to arm_exceptions_callterm.o(.text) for __ARM::call_terminate_handler(_Unwind_Control_Block*)
    arm_exceptions_rethrow.o(.text) refers to arm_exceptions_support.o(.text) for __ARM::is_foreign_exception(_Unwind_Control_Block*)
    arm_exceptions_rethrow.o(.text) refers to unwind_activity.o(.emb_text) for _Unwind_Activity
    arm_exceptions_rethrow.o(.text) refers (Weak) to unwinder.o(.emb_text) for _Unwind_RaiseException
    arm_exceptions_rethrow.o(.ARM.exidx) refers to arm_exceptions_rethrow.o(.text) for .text
    arm_exceptions_rethrow.o(.ARM.exidx) refers to unwind_pr0.o(.text) for __aeabi_unwind_cpp_pr0
    arm_exceptions_callunex.o(.text) refers to arm_exceptions_globs.o(.text) for __cxa_get_globals
    arm_exceptions_callunex.o(.text) refers to arm_exceptions_begincatch.o(.text) for __cxa_begin_catch
    arm_exceptions_callunex.o(.text) refers to arm_exceptions_support.o(.text) for __ARM::is_foreign_exception(_Unwind_Control_Block*)
    arm_exceptions_callunex.o(.text) refers to arm_exceptions_unexpected.o(.text) for std::unexpected()
    arm_exceptions_callunex.o(.text) refers to arm_exceptions_endcatch.o(.text) for __cxa_end_catch
    arm_exceptions_callunex.o(.text) refers to arm_exceptions_terminate.o(.text) for std::terminate()
    arm_exceptions_callunex.o(.text) refers to arm_exceptions_throw.o(.text) for __cxa_type_match
    arm_exceptions_callunex.o(.text) refers to arm_exceptions_rethrow.o(.text) for __cxa_rethrow
    arm_exceptions_callunex.o(.text) refers to type_info_eq.o(i._ZNKSt9type_infoeqERKS_) for std::type_info::operator ==(const std::type_info&) const
    arm_exceptions_callunex.o(.text) refers to bad_exception_ctor.o(i._ZNSt13bad_exceptionC1Ev) for std::bad_exception::bad_exception()
    arm_exceptions_callunex.o(.text) refers to arm_exceptions_alloc.o(.text) for __cxa_allocate_exception
    arm_exceptions_callunex.o(.text) refers to bad_exception_cctor.o(i._ZNSt13bad_exceptionC1ERKS_) for std::bad_exception::bad_exception(const std::bad_exception&)
    arm_exceptions_callunex.o(.text) refers to bad_exception_dtor.o(i._ZNSt13bad_exceptionD1Ev) for std::bad_exception::~bad_exception()
    arm_exceptions_callunex.o(.text) refers to arm_exceptions_callterm.o(.text) for __ARM::call_terminate_handler(_Unwind_Control_Block*)
    arm_exceptions_callunex.o(.text) refers to bad_exception_dtor.o(.constdata__ZTISt13bad_exception) for typeinfo for std::bad_exception
    arm_exceptions_callunex.o(.text.clean) refers to arm_exceptions_endcatch.o(.text) for __cxa_end_catch
    arm_exceptions_callunex.o(.text.clean) refers to arm_exceptions_cleanup.o(.emb_text) for __cxa_end_cleanup
    arm_exceptions_callunex.o(.ARM.exidx) refers to arm_exceptions_callunex.o(.text) for .text
    arm_exceptions_callunex.o(.ARM.exidx) refers to unwind_pr0.o(.text) for __aeabi_unwind_cpp_pr0
    arm_exceptions_callunex.o(.ARM.exidx) refers to arm_exceptions_callunex.o(.ARM.extab) for .extab.__cxa_call_unexpected
    arm_exceptions_callunex.o(.ARM.exidx) refers to arm_exceptions_callunex.o(.text.clean) for .text.clean
    arm_exceptions_callunex.o(.ARM.extab) refers to arm_exceptions_callunex.o(.text) for .text
    arm_exceptions_callunex.o(.ARM.extab) refers to arm_exceptions_callunex.o(.text.clean) for .text.clean
    arm_exceptions_begincatch.o(.text) refers to arm_exceptions_globs.o(.text) for __cxa_get_globals
    arm_exceptions_begincatch.o(.text) refers to arm_exceptions_support.o(.text) for __ARM::is_foreign_exception(_Unwind_Control_Block*)
    arm_exceptions_begincatch.o(.text) refers to arm_exceptions_foreign.o(.text) for __ARM::get_foreign_intermediary(__cxa_exception*, _Unwind_Control_Block*)
    arm_exceptions_begincatch.o(.text) refers (Weak) to unwinder.o(.text) for _Unwind_Complete
    arm_exceptions_begincatch.o(.ARM.exidx) refers to arm_exceptions_begincatch.o(.text) for .text
    arm_exceptions_endcatch.o(.text) refers to arm_exceptions_globs.o(.text) for __cxa_get_globals
    arm_exceptions_endcatch.o(.text) refers to arm_exceptions_terminate.o(.text) for std::terminate()
    arm_exceptions_endcatch.o(.text) refers to arm_exceptions_support.o(.text) for __ARM::is_foreign_exception(_Unwind_Control_Block*)
    arm_exceptions_endcatch.o(.text) refers to arm_exceptions_free.o(.text) for __cxa_free_exception
    arm_exceptions_endcatch.o(.text) refers to unwind_delete.o(.text) for _Unwind_DeleteException
    arm_exceptions_endcatch.o(.ARM.exidx) refers to arm_exceptions_endcatch.o(.text) for .text
    arm_exceptions_endcatch.o(.ARM.exidx) refers to unwind_pr0.o(.text) for __aeabi_unwind_cpp_pr0
    unwind_pr1.o(.text) refers to unwind_prcommon.o(.text) for __ARM_unwind_cpp_prcommon
    unwind_pr1.o(.ARM.exidx) refers to unwind_pr1.o(.text) for .text
    unwind_pr0.o(.text) refers to unwind_prcommon.o(.text) for __ARM_unwind_cpp_prcommon
    unwind_pr0.o(.ARM.exidx) refers to unwind_pr0.o(.text) for .text
    __rtentry2.o(.ARM.Collect$$rtentry$$00000008) refers to boardinit2.o(.text) for _platform_post_stackheap_init
    __rtentry2.o(.ARM.Collect$$rtentry$$0000000A) refers to libinit.o(.ARM.Collect$$libinit$$00000000) for __rt_lib_init
    __rtentry2.o(.ARM.Collect$$rtentry$$0000000B) refers to boardinit3.o(.text) for _platform_post_lib_init
    __rtentry2.o(.ARM.Collect$$rtentry$$0000000D) refers to main.o(.text) for main
    __rtentry2.o(.ARM.Collect$$rtentry$$0000000D) refers to exit.o(.text) for exit
    __rtentry2.o(.ARM.exidx) refers to __rtentry2.o(.ARM.Collect$$rtentry$$00000001) for .ARM.Collect$$rtentry$$00000001
    __rtentry2.o(.ARM.exidx) refers to __rtentry2.o(.ARM.Collect$$rtentry$$00000008) for .ARM.Collect$$rtentry$$00000008
    __rtentry2.o(.ARM.exidx) refers to __rtentry2.o(.ARM.Collect$$rtentry$$0000000A) for .ARM.Collect$$rtentry$$0000000A
    __rtentry2.o(.ARM.exidx) refers to __rtentry2.o(.ARM.Collect$$rtentry$$0000000B) for .ARM.Collect$$rtentry$$0000000B
    __rtentry2.o(.ARM.exidx) refers to __rtentry2.o(.ARM.Collect$$rtentry$$0000000D) for .ARM.Collect$$rtentry$$0000000D
    __rtentry4.o(.ARM.Collect$$rtentry$$00000004) refers to sys_stackheap_outer.o(.text) for __user_setup_stackheap
    __rtentry4.o(.ARM.exidx) refers to __rtentry4.o(.ARM.Collect$$rtentry$$00000004) for .ARM.Collect$$rtentry$$00000004
    rt_ctype_table.o(.text) refers to rt_locale_intlibspace.o(.text) for __rt_locale
    rt_ctype_table.o(.text) refers to lc_ctype_c.o(locale$$code) for _get_lc_ctype
    rt_new_handler_addr.o(.text) refers to rt_new_handler_addr.o(.bss) for __rt_new_handler_addr_data
    rt_new_handler_addr_intlibspace.o(.text) refers to libspace.o(.bss) for __libspace_start
    rt_ddtor_pointer_addr.o(.text) refers to rt_ddtor_pointer_addr.o(.bss) for __rt_ddtor_pointer_addr_data
    rt_ddtor_pointer_addr_intlibspace.o(.text) refers to libspace.o(.bss) for __libspace_start
    malloc.o(.text) refers (Special) to hguard.o(.text) for __heap$guard
    malloc.o(.text) refers (Special) to init_alloc.o(.text) for _init_alloc
    malloc.o(.text) refers to rt_heap_descriptor_intlibspace.o(.text) for __rt_heap_descriptor
    malloc.o(.text) refers to heapstubs.o(.text) for __Heap_Alloc
    free.o(.text) refers (Special) to hguard.o(.text) for __heap$guard
    free.o(.text) refers to rt_heap_descriptor_intlibspace.o(.text) for __rt_heap_descriptor
    free.o(.text) refers to heapstubs.o(.text) for __Heap_Free
    h1_alloc.o(.text) refers (Special) to h1_init.o(.text) for __Heap_Initialize
    h1_alloc.o(.text) refers to rt_heap_descriptor_intlibspace.o(.text) for __rt_heap_descriptor
    h1_alloc.o(.text) refers to init_alloc.o(.text) for __Heap_Full
    h1_free.o(.text) refers to rt_heap_descriptor_intlibspace.o(.text) for __rt_heap_descriptor
    h1_alloc_mt.o(.text) refers (Special) to h1_init.o(.text) for __Heap_Initialize
    h1_alloc_mt.o(.text) refers to init_alloc.o(.text) for __Heap_Full
    h1_alloc_mt.o(.text) refers to rt_heap_descriptor_intlibspace.o(.text) for __rt_heap_descriptor
    h1_free_mt.o(.text) refers to rt_heap_descriptor_intlibspace.o(.text) for __rt_heap_descriptor
    heap2.o(i._FDIterate) refers to heap2.o(.conststring) for .conststring
    heap2.o(i.___Heap_ProvideMemory$realtime) refers to fdtree.o(i._FDTree_Delete) for _FDTree_Delete
    heap2.o(i.___Heap_ProvideMemory$realtime) refers to fdtree.o(i._FDTree_Insert) for _FDTree_Insert
    heap2.o(i.___Heap_Stats$realtime) refers to heap2.o(i._Heap2_StatsIterate) for _Heap2_StatsIterate
    heap2.o(i.___Heap_Valid$realtime) refers to heap2.o(i._FDIterate) for _FDIterate
    heap2.o(i.___Heap_Valid$realtime) refers to heap2.o(.conststring) for .conststring
    heap2.o(i._free$realtime) refers to rt_heap_descriptor_intlibspace.o(.text) for __rt_heap_descriptor
    heap2.o(i._free$realtime) refers to fdtree.o(i._FDTree_Delete) for _FDTree_Delete
    heap2.o(i._free$realtime) refers to fdtree.o(i._FDTree_Insert) for _FDTree_Insert
    heap2.o(i._malloc$realtime) refers to rt_heap_descriptor_intlibspace.o(.text) for __rt_heap_descriptor
    heap2.o(i._malloc$realtime) refers to fdtree.o(i._FDTree_FindFirst) for _FDTree_FindFirst
    heap2.o(i._malloc$realtime) refers to init_alloc.o(.text) for __Heap_Full
    heap2.o(i._malloc$realtime) refers to fdtree.o(i._FDTree_RemoveNode) for _FDTree_RemoveNode
    heap2.o(i._malloc$realtime) refers to fdtree.o(i._FDTree_Insert) for _FDTree_Insert
    heap2.o(i._posix_memalign$realtime) refers to rt_heap_descriptor_intlibspace.o(.text) for __rt_heap_descriptor
    heap2.o(i._posix_memalign$realtime) refers to fdtree.o(i._FDTree_FindFirst) for _FDTree_FindFirst
    heap2.o(i._posix_memalign$realtime) refers to init_alloc.o(.text) for __Heap_Full
    heap2.o(i._posix_memalign$realtime) refers to fdtree.o(i._FDTree_RemoveNode) for _FDTree_RemoveNode
    heap2.o(i._posix_memalign$realtime) refers to fdtree.o(i._FDTree_Insert) for _FDTree_Insert
    heap2.o(i._realloc$realtime) refers to rt_heap_descriptor_intlibspace.o(.text) for __rt_heap_descriptor
    heap2.o(i._realloc$realtime) refers to fdtree.o(i._FDTree_Insert) for _FDTree_Insert
    heap2.o(i._realloc$realtime) refers to h1_free.o(.text) for free
    heap2.o(i._realloc$realtime) refers to h1_alloc.o(.text) for malloc
    heap2.o(i._realloc$realtime) refers to fdtree.o(i._FDTree_Delete) for _FDTree_Delete
    heap2.o(i._realloc$realtime) refers to rt_memcpy_w.o(.text) for __aeabi_memcpy4
    heap2mt.o(i._FDIterate) refers to heap2mt.o(.conststring) for .conststring
    heap2mt.o(i.___Heap_Initialize$realtime$concurrent) refers to mutex_dummy.o(.text) for _mutex_initialize
    heap2mt.o(i.___Heap_ProvideMemory$realtime$concurrent) refers to fdtree.o(i._FDTree_Delete) for _FDTree_Delete
    heap2mt.o(i.___Heap_ProvideMemory$realtime$concurrent) refers to fdtree.o(i._FDTree_Insert) for _FDTree_Insert
    heap2mt.o(i.___Heap_Stats$realtime$concurrent) refers to heap2mt.o(i._Heap2_StatsIterate) for _Heap2_StatsIterate
    heap2mt.o(i.___Heap_Valid$realtime$concurrent) refers to heap2mt.o(i._FDIterate) for _FDIterate
    heap2mt.o(i.___Heap_Valid$realtime$concurrent) refers to heap2mt.o(.conststring) for .conststring
    heap2mt.o(i._free$realtime$concurrent) refers to rt_heap_descriptor_intlibspace.o(.text) for __rt_heap_descriptor
    heap2mt.o(i._free$realtime$concurrent) refers to fdtree.o(i._FDTree_Delete) for _FDTree_Delete
    heap2mt.o(i._free$realtime$concurrent) refers to fdtree.o(i._FDTree_Insert) for _FDTree_Insert
    heap2mt.o(i._malloc$realtime$concurrent) refers to rt_heap_descriptor_intlibspace.o(.text) for __rt_heap_descriptor
    heap2mt.o(i._malloc$realtime$concurrent) refers to fdtree.o(i._FDTree_FindFirst) for _FDTree_FindFirst
    heap2mt.o(i._malloc$realtime$concurrent) refers to init_alloc.o(.text) for __Heap_Full
    heap2mt.o(i._malloc$realtime$concurrent) refers to fdtree.o(i._FDTree_RemoveNode) for _FDTree_RemoveNode
    heap2mt.o(i._malloc$realtime$concurrent) refers to fdtree.o(i._FDTree_Insert) for _FDTree_Insert
    heap2mt.o(i._posix_memalign$realtime$concurrent) refers to rt_heap_descriptor_intlibspace.o(.text) for __rt_heap_descriptor
    heap2mt.o(i._posix_memalign$realtime$concurrent) refers to fdtree.o(i._FDTree_FindFirst) for _FDTree_FindFirst
    heap2mt.o(i._posix_memalign$realtime$concurrent) refers to init_alloc.o(.text) for __Heap_Full
    heap2mt.o(i._posix_memalign$realtime$concurrent) refers to fdtree.o(i._FDTree_RemoveNode) for _FDTree_RemoveNode
    heap2mt.o(i._posix_memalign$realtime$concurrent) refers to fdtree.o(i._FDTree_Insert) for _FDTree_Insert
    heap2mt.o(i._realloc$realtime$concurrent) refers to rt_heap_descriptor_intlibspace.o(.text) for __rt_heap_descriptor
    heap2mt.o(i._realloc$realtime$concurrent) refers to fdtree.o(i._FDTree_Insert) for _FDTree_Insert
    heap2mt.o(i._realloc$realtime$concurrent) refers to h1_free.o(.text) for free
    heap2mt.o(i._realloc$realtime$concurrent) refers to h1_alloc.o(.text) for malloc
    heap2mt.o(i._realloc$realtime$concurrent) refers to fdtree.o(i._FDTree_Delete) for _FDTree_Delete
    heap2mt.o(i._realloc$realtime$concurrent) refers to rt_memcpy_w.o(.text) for __aeabi_memcpy4
    fprintf.o(.text) refers (Special) to _printf_a.o(.ARM.Collect$$_printf_percent$$00000006) for _printf_a
    fprintf.o(.text) refers (Special) to _printf_c.o(.ARM.Collect$$_printf_percent$$00000013) for _printf_c
    fprintf.o(.text) refers (Special) to _printf_charcount.o(.text) for _printf_charcount
    fprintf.o(.text) refers (Special) to _printf_d.o(.ARM.Collect$$_printf_percent$$00000009) for _printf_d
    fprintf.o(.text) refers (Special) to _printf_e.o(.ARM.Collect$$_printf_percent$$00000004) for _printf_e
    fprintf.o(.text) refers (Special) to _printf_f.o(.ARM.Collect$$_printf_percent$$00000003) for _printf_f
    fprintf.o(.text) refers (Special) to printf1.o(x$fpl$printf1) for _printf_fp_dec
    fprintf.o(.text) refers (Special) to printf2.o(x$fpl$printf2) for _printf_fp_hex
    fprintf.o(.text) refers (Special) to _printf_g.o(.ARM.Collect$$_printf_percent$$00000005) for _printf_g
    fprintf.o(.text) refers (Special) to _printf_i.o(.ARM.Collect$$_printf_percent$$00000008) for _printf_i
    fprintf.o(.text) refers (Special) to _printf_dec.o(.text) for _printf_int_dec
    fprintf.o(.text) refers (Special) to _printf_l.o(.ARM.Collect$$_printf_percent$$00000012) for _printf_l
    fprintf.o(.text) refers (Special) to _printf_lc.o(.ARM.Collect$$_printf_percent$$00000015) for _printf_lc
    fprintf.o(.text) refers (Special) to _printf_ll.o(.ARM.Collect$$_printf_percent$$00000007) for _printf_ll
    fprintf.o(.text) refers (Special) to _printf_lld.o(.ARM.Collect$$_printf_percent$$0000000E) for _printf_lld
    fprintf.o(.text) refers (Special) to _printf_lli.o(.ARM.Collect$$_printf_percent$$0000000D) for _printf_lli
    fprintf.o(.text) refers (Special) to _printf_llo.o(.ARM.Collect$$_printf_percent$$00000010) for _printf_llo
    fprintf.o(.text) refers (Special) to _printf_llu.o(.ARM.Collect$$_printf_percent$$0000000F) for _printf_llu
    fprintf.o(.text) refers (Special) to _printf_llx.o(.ARM.Collect$$_printf_percent$$00000011) for _printf_llx
    fprintf.o(.text) refers (Special) to _printf_longlong_dec.o(.text) for _printf_longlong_dec
    fprintf.o(.text) refers (Special) to _printf_hex_int_ll_ptr.o(.text) for _printf_longlong_hex
    fprintf.o(.text) refers (Special) to _printf_oct_int_ll.o(.text) for _printf_longlong_oct
    fprintf.o(.text) refers (Special) to _printf_ls.o(.ARM.Collect$$_printf_percent$$00000016) for _printf_ls
    fprintf.o(.text) refers (Special) to _printf_n.o(.ARM.Collect$$_printf_percent$$00000001) for _printf_n
    fprintf.o(.text) refers (Special) to _printf_o.o(.ARM.Collect$$_printf_percent$$0000000B) for _printf_o
    fprintf.o(.text) refers (Special) to _printf_p.o(.ARM.Collect$$_printf_percent$$00000002) for _printf_p
    fprintf.o(.text) refers (Special) to _printf_percent.o(.ARM.Collect$$_printf_percent$$00000000) for _printf_percent
    fprintf.o(.text) refers (Special) to _printf_pad.o(.text) for _printf_post_padding
    fprintf.o(.text) refers (Special) to _printf_s.o(.ARM.Collect$$_printf_percent$$00000014) for _printf_s
    fprintf.o(.text) refers (Special) to _printf_str.o(.text) for _printf_str
    fprintf.o(.text) refers (Special) to _printf_truncate.o(.text) for _printf_truncate_signed
    fprintf.o(.text) refers (Special) to _printf_u.o(.ARM.Collect$$_printf_percent$$0000000A) for _printf_u
    fprintf.o(.text) refers (Special) to _printf_wctomb.o(.text) for _printf_wctomb
    fprintf.o(.text) refers (Special) to _printf_x.o(.ARM.Collect$$_printf_percent$$0000000C) for _printf_x
    fprintf.o(.text) refers to _printf_char_file.o(.text) for _printf_char_file
    sprintf.o(.text) refers (Special) to _printf_a.o(.ARM.Collect$$_printf_percent$$00000006) for _printf_a
    sprintf.o(.text) refers (Special) to _printf_c.o(.ARM.Collect$$_printf_percent$$00000013) for _printf_c
    sprintf.o(.text) refers (Special) to _printf_charcount.o(.text) for _printf_charcount
    sprintf.o(.text) refers (Special) to _printf_d.o(.ARM.Collect$$_printf_percent$$00000009) for _printf_d
    sprintf.o(.text) refers (Special) to _printf_e.o(.ARM.Collect$$_printf_percent$$00000004) for _printf_e
    sprintf.o(.text) refers (Special) to _printf_f.o(.ARM.Collect$$_printf_percent$$00000003) for _printf_f
    sprintf.o(.text) refers (Special) to printf1.o(x$fpl$printf1) for _printf_fp_dec
    sprintf.o(.text) refers (Special) to printf2.o(x$fpl$printf2) for _printf_fp_hex
    sprintf.o(.text) refers (Special) to _printf_g.o(.ARM.Collect$$_printf_percent$$00000005) for _printf_g
    sprintf.o(.text) refers (Special) to _printf_i.o(.ARM.Collect$$_printf_percent$$00000008) for _printf_i
    sprintf.o(.text) refers (Special) to _printf_dec.o(.text) for _printf_int_dec
    sprintf.o(.text) refers (Special) to _printf_l.o(.ARM.Collect$$_printf_percent$$00000012) for _printf_l
    sprintf.o(.text) refers (Special) to _printf_lc.o(.ARM.Collect$$_printf_percent$$00000015) for _printf_lc
    sprintf.o(.text) refers (Special) to _printf_ll.o(.ARM.Collect$$_printf_percent$$00000007) for _printf_ll
    sprintf.o(.text) refers (Special) to _printf_lld.o(.ARM.Collect$$_printf_percent$$0000000E) for _printf_lld
    sprintf.o(.text) refers (Special) to _printf_lli.o(.ARM.Collect$$_printf_percent$$0000000D) for _printf_lli
    sprintf.o(.text) refers (Special) to _printf_llo.o(.ARM.Collect$$_printf_percent$$00000010) for _printf_llo
    sprintf.o(.text) refers (Special) to _printf_llu.o(.ARM.Collect$$_printf_percent$$0000000F) for _printf_llu
    sprintf.o(.text) refers (Special) to _printf_llx.o(.ARM.Collect$$_printf_percent$$00000011) for _printf_llx
    sprintf.o(.text) refers (Special) to _printf_longlong_dec.o(.text) for _printf_longlong_dec
    sprintf.o(.text) refers (Special) to _printf_hex_int_ll_ptr.o(.text) for _printf_longlong_hex
    sprintf.o(.text) refers (Special) to _printf_oct_int_ll.o(.text) for _printf_longlong_oct
    sprintf.o(.text) refers (Special) to _printf_ls.o(.ARM.Collect$$_printf_percent$$00000016) for _printf_ls
    sprintf.o(.text) refers (Special) to _printf_n.o(.ARM.Collect$$_printf_percent$$00000001) for _printf_n
    sprintf.o(.text) refers (Special) to _printf_o.o(.ARM.Collect$$_printf_percent$$0000000B) for _printf_o
    sprintf.o(.text) refers (Special) to _printf_p.o(.ARM.Collect$$_printf_percent$$00000002) for _printf_p
    sprintf.o(.text) refers (Special) to _printf_percent.o(.ARM.Collect$$_printf_percent$$00000000) for _printf_percent
    sprintf.o(.text) refers (Special) to _printf_pad.o(.text) for _printf_post_padding
    sprintf.o(.text) refers (Special) to _printf_s.o(.ARM.Collect$$_printf_percent$$00000014) for _printf_s
    sprintf.o(.text) refers (Special) to _printf_str.o(.text) for _printf_str
    sprintf.o(.text) refers (Special) to _printf_truncate.o(.text) for _printf_truncate_signed
    sprintf.o(.text) refers (Special) to _printf_u.o(.ARM.Collect$$_printf_percent$$0000000A) for _printf_u
    sprintf.o(.text) refers (Special) to _printf_wctomb.o(.text) for _printf_wctomb
    sprintf.o(.text) refers (Special) to _printf_x.o(.ARM.Collect$$_printf_percent$$0000000C) for _printf_x
    sprintf.o(.text) refers to _printf_char_common.o(.text) for _printf_char_common
    sprintf.o(.text) refers to _sputc.o(.text) for _sputc
    vsnprintf.o(.text) refers (Special) to _printf_a.o(.ARM.Collect$$_printf_percent$$00000006) for _printf_a
    vsnprintf.o(.text) refers (Special) to _printf_c.o(.ARM.Collect$$_printf_percent$$00000013) for _printf_c
    vsnprintf.o(.text) refers (Special) to _printf_charcount.o(.text) for _printf_charcount
    vsnprintf.o(.text) refers (Special) to _printf_d.o(.ARM.Collect$$_printf_percent$$00000009) for _printf_d
    vsnprintf.o(.text) refers (Special) to _printf_e.o(.ARM.Collect$$_printf_percent$$00000004) for _printf_e
    vsnprintf.o(.text) refers (Special) to _printf_f.o(.ARM.Collect$$_printf_percent$$00000003) for _printf_f
    vsnprintf.o(.text) refers (Special) to printf1.o(x$fpl$printf1) for _printf_fp_dec
    vsnprintf.o(.text) refers (Special) to printf2.o(x$fpl$printf2) for _printf_fp_hex
    vsnprintf.o(.text) refers (Special) to _printf_g.o(.ARM.Collect$$_printf_percent$$00000005) for _printf_g
    vsnprintf.o(.text) refers (Special) to _printf_i.o(.ARM.Collect$$_printf_percent$$00000008) for _printf_i
    vsnprintf.o(.text) refers (Special) to _printf_dec.o(.text) for _printf_int_dec
    vsnprintf.o(.text) refers (Special) to _printf_l.o(.ARM.Collect$$_printf_percent$$00000012) for _printf_l
    vsnprintf.o(.text) refers (Special) to _printf_lc.o(.ARM.Collect$$_printf_percent$$00000015) for _printf_lc
    vsnprintf.o(.text) refers (Special) to _printf_ll.o(.ARM.Collect$$_printf_percent$$00000007) for _printf_ll
    vsnprintf.o(.text) refers (Special) to _printf_lld.o(.ARM.Collect$$_printf_percent$$0000000E) for _printf_lld
    vsnprintf.o(.text) refers (Special) to _printf_lli.o(.ARM.Collect$$_printf_percent$$0000000D) for _printf_lli
    vsnprintf.o(.text) refers (Special) to _printf_llo.o(.ARM.Collect$$_printf_percent$$00000010) for _printf_llo
    vsnprintf.o(.text) refers (Special) to _printf_llu.o(.ARM.Collect$$_printf_percent$$0000000F) for _printf_llu
    vsnprintf.o(.text) refers (Special) to _printf_llx.o(.ARM.Collect$$_printf_percent$$00000011) for _printf_llx
    vsnprintf.o(.text) refers (Special) to _printf_longlong_dec.o(.text) for _printf_longlong_dec
    vsnprintf.o(.text) refers (Special) to _printf_hex_int_ll_ptr.o(.text) for _printf_longlong_hex
    vsnprintf.o(.text) refers (Special) to _printf_oct_int_ll.o(.text) for _printf_longlong_oct
    vsnprintf.o(.text) refers (Special) to _printf_ls.o(.ARM.Collect$$_printf_percent$$00000016) for _printf_ls
    vsnprintf.o(.text) refers (Special) to _printf_n.o(.ARM.Collect$$_printf_percent$$00000001) for _printf_n
    vsnprintf.o(.text) refers (Special) to _printf_o.o(.ARM.Collect$$_printf_percent$$0000000B) for _printf_o
    vsnprintf.o(.text) refers (Special) to _printf_p.o(.ARM.Collect$$_printf_percent$$00000002) for _printf_p
    vsnprintf.o(.text) refers (Special) to _printf_percent.o(.ARM.Collect$$_printf_percent$$00000000) for _printf_percent
    vsnprintf.o(.text) refers (Special) to _printf_pad.o(.text) for _printf_post_padding
    vsnprintf.o(.text) refers (Special) to _printf_s.o(.ARM.Collect$$_printf_percent$$00000014) for _printf_s
    vsnprintf.o(.text) refers (Special) to _printf_str.o(.text) for _printf_str
    vsnprintf.o(.text) refers (Special) to _printf_truncate.o(.text) for _printf_truncate_signed
    vsnprintf.o(.text) refers (Special) to _printf_u.o(.ARM.Collect$$_printf_percent$$0000000A) for _printf_u
    vsnprintf.o(.text) refers (Special) to _printf_wctomb.o(.text) for _printf_wctomb
    vsnprintf.o(.text) refers (Special) to _printf_x.o(.ARM.Collect$$_printf_percent$$0000000C) for _printf_x
    vsnprintf.o(.text) refers to _printf_char_common.o(.text) for _printf_char_common
    vsnprintf.o(.text) refers to _sputc.o(.text) for _sputc
    vsnprintf.o(.text) refers to _snputc.o(.text) for _snputc
    __2sprintf.o(.text) refers to _printf_char_common.o(.text) for _printf_char_common
    __2sprintf.o(.text) refers to _sputc.o(.text) for _sputc
    noretval__2sprintf.o(.text) refers to _printf_char_common.o(.text) for _printf_char_common
    noretval__2sprintf.o(.text) refers to _sputc.o(.text) for _sputc
    __printf.o(.text) refers to _printf_percent.o(.ARM.Collect$$_printf_percent$$00000000) for _printf_percent
    _printf_str.o(.text) refers (Special) to _printf_char.o(.text) for _printf_cs_common
    _printf_str.o(.text) refers (Weak) to _printf_pad.o(.text) for _printf_pre_padding
    _printf_str.o(.text) refers (Weak) to _printf_pad.o(.text) for _printf_post_padding
    _printf_dec.o(.text) refers (Weak) to _printf_truncate.o(.text) for _printf_truncate_signed
    _printf_dec.o(.text) refers (Weak) to _printf_truncate.o(.text) for _printf_truncate_unsigned
    _printf_dec.o(.text) refers to _printf_intcommon.o(.text) for _printf_int_common
    _printf_wctomb.o(.text) refers (Special) to _printf_wchar.o(.text) for _printf_lcs_common
    _printf_wctomb.o(.text) refers to _wcrtomb.o(.text) for _wcrtomb
    _printf_wctomb.o(.text) refers (Weak) to _printf_pad.o(.text) for _printf_pre_padding
    _printf_wctomb.o(.text) refers (Weak) to _printf_pad.o(.text) for _printf_post_padding
    _printf_wctomb.o(.text) refers to _printf_wctomb.o(.constdata) for .constdata
    _printf_wctomb.o(.constdata) refers (Special) to _printf_wchar.o(.text) for _printf_lcs_common
    _printf_longlong_dec.o(.text) refers to lludiv10.o(.text) for _ll_udiv10
    _printf_longlong_dec.o(.text) refers to _printf_intcommon.o(.text) for _printf_int_common
    _printf_oct_ll.o(.text) refers to _printf_intcommon.o(.text) for _printf_int_common
    _printf_oct_int.o(.text) refers (Weak) to _printf_truncate.o(.text) for _printf_truncate_unsigned
    _printf_oct_int.o(.text) refers to _printf_intcommon.o(.text) for _printf_int_common
    _printf_oct_int_ll.o(.text) refers to _printf_intcommon.o(.text) for _printf_int_common
    _printf_oct_int_ll.o(.text) refers (Weak) to _printf_truncate.o(.text) for _printf_truncate_unsigned
    _printf_hex_ll.o(.text) refers to _printf_intcommon.o(.text) for _printf_int_common
    _printf_hex_ll.o(.text) refers to _printf_hex_ll.o(.constdata) for .constdata
    _printf_hex_int.o(.text) refers (Weak) to _printf_truncate.o(.text) for _printf_truncate_unsigned
    _printf_hex_int.o(.text) refers to _printf_intcommon.o(.text) for _printf_int_common
    _printf_hex_int.o(.text) refers to _printf_hex_int.o(.constdata) for .constdata
    _printf_hex_int_ll.o(.text) refers to _printf_intcommon.o(.text) for _printf_int_common
    _printf_hex_int_ll.o(.text) refers (Weak) to _printf_truncate.o(.text) for _printf_truncate_unsigned
    _printf_hex_int_ll.o(.text) refers to _printf_hex_int_ll.o(.constdata) for .constdata
    _printf_hex_ptr.o(.text) refers to _printf_intcommon.o(.text) for _printf_int_common
    _printf_hex_ptr.o(.text) refers to _printf_hex_ptr.o(.constdata) for .constdata
    _printf_hex_int_ptr.o(.text) refers to _printf_intcommon.o(.text) for _printf_int_common
    _printf_hex_int_ptr.o(.text) refers (Weak) to _printf_truncate.o(.text) for _printf_truncate_unsigned
    _printf_hex_int_ptr.o(.text) refers to _printf_hex_int_ptr.o(.constdata) for .constdata
    _printf_hex_ll_ptr.o(.text) refers to _printf_intcommon.o(.text) for _printf_int_common
    _printf_hex_ll_ptr.o(.text) refers to _printf_hex_ll_ptr.o(.constdata) for .constdata
    _printf_hex_int_ll_ptr.o(.text) refers to _printf_intcommon.o(.text) for _printf_int_common
    _printf_hex_int_ll_ptr.o(.text) refers (Weak) to _printf_truncate.o(.text) for _printf_truncate_unsigned
    _printf_hex_int_ll_ptr.o(.text) refers to _printf_hex_int_ll_ptr.o(.constdata) for .constdata
    __printf_flags.o(.text) refers to _printf_percent.o(.ARM.Collect$$_printf_percent$$00000000) for _printf_percent
    __printf_flags.o(.text) refers to __printf_flags.o(.constdata) for .constdata
    __printf_ss.o(.text) refers to _printf_percent.o(.ARM.Collect$$_printf_percent$$00000000) for _printf_percent
    __printf_flags_ss.o(.text) refers to _printf_percent.o(.ARM.Collect$$_printf_percent$$00000000) for _printf_percent
    __printf_flags_ss.o(.text) refers to __printf_flags_ss.o(.constdata) for .constdata
    __printf_wp.o(.text) refers to __printf_wp.o(i._is_digit) for _is_digit
    __printf_wp.o(.text) refers to _printf_percent.o(.ARM.Collect$$_printf_percent$$00000000) for _printf_percent
    __printf_flags_wp.o(.text) refers to __printf_wp.o(i._is_digit) for _is_digit
    __printf_flags_wp.o(.text) refers to _printf_percent.o(.ARM.Collect$$_printf_percent$$00000000) for _printf_percent
    __printf_flags_wp.o(.text) refers to __printf_flags_wp.o(.constdata) for .constdata
    __printf_ss_wp.o(.text) refers to __printf_wp.o(i._is_digit) for _is_digit
    __printf_ss_wp.o(.text) refers to _printf_percent.o(.ARM.Collect$$_printf_percent$$00000000) for _printf_percent
    __printf_flags_ss_wp.o(.text) refers to __printf_wp.o(i._is_digit) for _is_digit
    __printf_flags_ss_wp.o(.text) refers to _printf_percent.o(.ARM.Collect$$_printf_percent$$00000000) for _printf_percent
    __printf_flags_ss_wp.o(.text) refers to __printf_flags_ss_wp.o(.constdata) for .constdata
    _printf_c.o(.ARM.Collect$$_printf_percent$$00000013) refers (Weak) to _printf_char.o(.text) for _printf_char
    _printf_x.o(.ARM.Collect$$_printf_percent$$0000000C) refers (Weak) to _printf_hex_int_ll_ptr.o(.text) for _printf_int_hex
    _printf_o.o(.ARM.Collect$$_printf_percent$$0000000B) refers (Weak) to _printf_oct_int_ll.o(.text) for _printf_int_oct
    _printf_i.o(.ARM.Collect$$_printf_percent$$00000008) refers (Weak) to _printf_dec.o(.text) for _printf_int_dec
    _printf_d.o(.ARM.Collect$$_printf_percent$$00000009) refers (Weak) to _printf_dec.o(.text) for _printf_int_dec
    _printf_u.o(.ARM.Collect$$_printf_percent$$0000000A) refers (Weak) to _printf_dec.o(.text) for _printf_int_dec
    _printf_f.o(.ARM.Collect$$_printf_percent$$00000003) refers (Weak) to printf1.o(x$fpl$printf1) for _printf_fp_dec
    _printf_e.o(.ARM.Collect$$_printf_percent$$00000004) refers (Weak) to printf1.o(x$fpl$printf1) for _printf_fp_dec
    _printf_g.o(.ARM.Collect$$_printf_percent$$00000005) refers (Weak) to printf1.o(x$fpl$printf1) for _printf_fp_dec
    _printf_a.o(.ARM.Collect$$_printf_percent$$00000006) refers (Weak) to printf2.o(x$fpl$printf2) for _printf_fp_hex
    _printf_percent.o(.ARM.Collect$$_printf_percent$$00000000) refers (Special) to _printf_percent_end.o(.ARM.Collect$$_printf_percent$$00000017) for _printf_percent_end
    _printf_lli.o(.ARM.Collect$$_printf_percent$$0000000D) refers (Special) to _printf_ll.o(.ARM.Collect$$_printf_percent$$00000007) for _printf_ll
    _printf_lli.o(.ARM.Collect$$_printf_percent$$0000000D) refers (Weak) to _printf_longlong_dec.o(.text) for _printf_longlong_dec
    _printf_lld.o(.ARM.Collect$$_printf_percent$$0000000E) refers (Special) to _printf_ll.o(.ARM.Collect$$_printf_percent$$00000007) for _printf_ll
    _printf_lld.o(.ARM.Collect$$_printf_percent$$0000000E) refers (Weak) to _printf_longlong_dec.o(.text) for _printf_longlong_dec
    _printf_llu.o(.ARM.Collect$$_printf_percent$$0000000F) refers (Special) to _printf_ll.o(.ARM.Collect$$_printf_percent$$00000007) for _printf_ll
    _printf_llu.o(.ARM.Collect$$_printf_percent$$0000000F) refers (Weak) to _printf_longlong_dec.o(.text) for _printf_longlong_dec
    _printf_lc.o(.ARM.Collect$$_printf_percent$$00000015) refers (Special) to _printf_l.o(.ARM.Collect$$_printf_percent$$00000012) for _printf_l
    _printf_lc.o(.ARM.Collect$$_printf_percent$$00000015) refers (Weak) to _printf_wchar.o(.text) for _printf_wchar
    _printf_llo.o(.ARM.Collect$$_printf_percent$$00000010) refers (Special) to _printf_ll.o(.ARM.Collect$$_printf_percent$$00000007) for _printf_ll
    _printf_llo.o(.ARM.Collect$$_printf_percent$$00000010) refers (Weak) to _printf_oct_int_ll.o(.text) for _printf_ll_oct
    _printf_llx.o(.ARM.Collect$$_printf_percent$$00000011) refers (Special) to _printf_ll.o(.ARM.Collect$$_printf_percent$$00000007) for _printf_ll
    _printf_llx.o(.ARM.Collect$$_printf_percent$$00000011) refers (Weak) to _printf_hex_int_ll_ptr.o(.text) for _printf_ll_hex
    sscanf.o(.text) refers (Special) to _scanf_int.o(.text) for _scanf_int
    sscanf.o(.text) refers (Special) to _scanf_longlong.o(.text) for _scanf_longlong
    sscanf.o(.text) refers (Special) to _scanf_mbtowc.o(.text) for _scanf_mbtowc
    sscanf.o(.text) refers (Special) to scanf1.o(x$fpl$scanf1) for _scanf_real
    sscanf.o(.text) refers (Special) to _scanf_str.o(.text) for _scanf_string
    sscanf.o(.text) refers (Special) to _scanf_wctomb.o(.text) for _scanf_wctomb
    sscanf.o(.text) refers (Special) to _scanf_wstr.o(.text) for _scanf_wstring
    sscanf.o(.text) refers to scanf_char.o(.text) for __vfscanf_char
    sscanf.o(.text) refers to _sgetc.o(.text) for _sgetc
    strtoull.o(.text) refers to __strtoull.o(.text) for __strtoull
    ftell.o(.text) refers to rt_errno_addr_intlibspace.o(.text) for __aeabi_errno_addr
    fwrite.o(.text) refers to retarget.o(.text) for fputc
    fread_bytes_avail_replaced.o(.text) refers to retarget.o(.text) for fgetc
    ftell_locked.o(.text) refers to ftell.o(.text) for _ftell_internal
    locale.o(.text) refers to locale_r.o(.text) for _setlocale_r
    locale.o(.text) refers to locale.o(.bss) for .bss
    localeconv.o(.text) refers to _lconv.o(.text) for _get_lconv
    localeconv.o(.text) refers to localeconv.o(.bss) for .bss
    mbrtowc.o(.text) refers to _mbrtowc.o(.text) for _mbrtowc
    mbrtowc.o(.text) refers to rt_errno_addr_intlibspace.o(.text) for __aeabi_errno_addr
    wcrtomb.o(.text) refers to _wcrtomb.o(.text) for _wcrtomb
    wcrtomb.o(.text) refers to rt_memcpy_v6.o(.text) for __aeabi_memcpy
    wcrtomb.o(.text) refers to rt_errno_addr_intlibspace.o(.text) for __aeabi_errno_addr
    _mbcurmax.o(.text) refers to rt_ctype_table.o(.text) for __rt_ctype_table
    abort.o(.text) refers to defsig_abrt_outer.o(.text) for __rt_SIGABRT
    abort.o(.text) refers (Weak) to libshutdown.o(.ARM.Collect$$libshutdown$$00000000) for __rt_lib_shutdown
    abort.o(.text) refers to retarget.o(.text) for _sys_exit
    cxa_finalize.o(.text) refers (Special) to libshutdown2.o(.ARM.Collect$$libshutdown$$00000001) for __rt_lib_shutdown_cpp_2
    cxa_finalize.o(.text) refers to rt_ddtor_pointer_addr_intlibspace.o(.text) for __rt_ddtor_pointer_addr
    cxa_finalize.o(.text) refers to h1_free.o(.text) for free
    cxa_finalize.o(.ARM.exidx) refers (Special) to libshutdown2.o(.ARM.Collect$$libshutdown$$00000001) for __rt_lib_shutdown_cpp_2
    cxa_finalize.o(.ARM.exidx) refers to cxa_finalize.o(.text) for .text
    strcoll.o(.text) refers (Special) to lc_collate_c.o(locale$$code) for _get_lc_collate
    strcoll.o(.text) refers to rt_locale_intlibspace.o(.text) for __rt_locale
    strcoll.o(.text) refers to strcmpv7m.o(.text) for strcmp
    strxfrm.o(.text) refers (Special) to lc_collate_c.o(locale$$code) for _get_lc_collate
    strxfrm.o(.text) refers to strlen.o(.text) for strlen
    strxfrm.o(.text) refers to rt_locale_intlibspace.o(.text) for __rt_locale
    wmemmove.o(.text) refers to memmove.o(.text) for memmove
    memcpy.o(.text) refers to rt_memcpy_v6.o(.text) for __aeabi_memcpy
    rt_memmove_w.o(.text) refers to rt_memcpy_w.o(.text) for __aeabi_memcpy4
    libinit2.o(.ARM.Collect$$libinit$$00000005) refers (Weak) to init_alloc.o(.text) for _init_alloc
    libinit2.o(.ARM.Collect$$libinit$$0000000F) refers (Weak) to rt_locale_intlibspace.o(.text) for __rt_locale
    libinit2.o(.ARM.Collect$$libinit$$00000010) refers to libinit2.o(.ARM.Collect$$libinit$$0000000F) for .ARM.Collect$$libinit$$0000000F
    libinit2.o(.ARM.Collect$$libinit$$00000010) refers (Weak) to lc_collate_c.o(locale$$code) for _get_lc_collate
    libinit2.o(.ARM.Collect$$libinit$$00000012) refers to libinit2.o(.ARM.Collect$$libinit$$0000000F) for .ARM.Collect$$libinit$$0000000F
    libinit2.o(.ARM.Collect$$libinit$$00000012) refers (Weak) to lc_ctype_c.o(locale$$code) for _get_lc_ctype
    libinit2.o(.ARM.Collect$$libinit$$00000014) refers to libinit2.o(.ARM.Collect$$libinit$$0000000F) for .ARM.Collect$$libinit$$0000000F
    libinit2.o(.ARM.Collect$$libinit$$00000014) refers (Weak) to lc_monetary_c.o(locale$$code) for _get_lc_monetary
    libinit2.o(.ARM.Collect$$libinit$$00000016) refers to libinit2.o(.ARM.Collect$$libinit$$0000000F) for .ARM.Collect$$libinit$$0000000F
    libinit2.o(.ARM.Collect$$libinit$$00000016) refers (Weak) to lc_numeric_c.o(locale$$code) for _get_lc_numeric
    libinit2.o(.ARM.Collect$$libinit$$00000018) refers to libinit2.o(.ARM.Collect$$libinit$$0000000F) for .ARM.Collect$$libinit$$0000000F
    libinit2.o(.ARM.Collect$$libinit$$00000026) refers to argv_veneer.o(.emb_text) for __ARM_argv_veneer
    libinit2.o(.ARM.Collect$$libinit$$00000027) refers to argv_veneer.o(.emb_text) for __ARM_argv_veneer
    libinit2.o(.ARM.Collect$$libinit$$00000031) refers (Weak) to init_aeabi.o(.text) for __cpp_initialize__aeabi_
    messages.o(i._ZNKSt18__rw_messages_base11_C_cat_openERKSsRKSt6locale) refers to locale.o(i._ZN4__rw21__rw_use_c_lib_localeC1EPKci) for __rw::__rw_use_c_lib_locale::__rw_use_c_lib_locale(const char*, int)
    messages.o(i._ZNKSt18__rw_messages_base11_C_cat_openERKSsRKSt6locale) refers to rwcats.o(i._Z7catopenPKci) for catopen(const char*, int)
    messages.o(i._ZNKSt18__rw_messages_base11_C_cat_openERKSsRKSt6locale) refers to messages.o(i._ZSt13__rw_get_catsv) for std::__rw_get_cats()
    messages.o(i._ZNKSt18__rw_messages_base11_C_cat_openERKSsRKSt6locale) refers to messages.o(t._ZN4__rw18__rw_locale_vectorISt18__rw_open_cat_dataE6resizeEj) for __rw::__rw_locale_vector<std::__rw_open_cat_data>::resize(unsigned)
    messages.o(i._ZNKSt18__rw_messages_base11_C_cat_openERKSsRKSt6locale) refers to char.o(i._ZN4__rw21__rw_use_c_lib_localeD1Ev) for __rw::__rw_use_c_lib_locale::~__rw_use_c_lib_locale()
    messages.o(i._ZNKSt18__rw_messages_base11_C_cat_openERKSsRKSt6locale) refers to locale.o(i._ZNSt6localeaSERKS_) for std::locale::operator =(const std::locale&)
    messages.o(i._ZNKSt18__rw_messages_base11_C_cat_openERKSsRKSt6locale.clean) refers to char.o(i._ZN4__rw21__rw_use_c_lib_localeD1Ev) for __rw::__rw_use_c_lib_locale::~__rw_use_c_lib_locale()
    messages.o(i._ZNKSt18__rw_messages_base11_C_cat_openERKSsRKSt6locale.clean) refers to arm_exceptions_cleanup.o(.emb_text) for __cxa_end_cleanup
    messages.o(i._ZNKSt18__rw_messages_base12_C_cat_closeEi) refers to messages.o(i._ZSt13__rw_get_catsv) for std::__rw_get_cats()
    messages.o(i._ZNKSt18__rw_messages_base12_C_cat_closeEi) refers to rwcats.o(i._Z8catclosePN4__rw8__rw_catE) for catclose(__rw::__rw_cat*)
    messages.o(i._ZNKSt18__rw_messages_base12_C_cat_closeEi) refers to locale.o(i._ZNSt6locale7classicEv) for std::locale::classic()
    messages.o(i._ZNKSt18__rw_messages_base12_C_cat_closeEi) refers to locale.o(i._ZNSt6localeaSERKS_) for std::locale::operator =(const std::locale&)
    messages.o(i._ZNKSt18__rw_messages_base13_C_get_localeEi) refers to messages.o(i._ZSt13__rw_get_catsv) for std::__rw_get_cats()
    messages.o(i._ZNKSt18__rw_messages_base13_C_get_localeEi) refers to locale.o(i._ZNSt6locale7classicEv) for std::locale::classic()
    messages.o(i._ZNKSt18__rw_messages_base14_C_get_messageEiii) refers to messages.o(i._ZSt13__rw_get_catsv) for std::__rw_get_cats()
    messages.o(i._ZNKSt18__rw_messages_base14_C_get_messageEiii) refers to rwcats.o(i._Z7catgetsPN4__rw8__rw_catEiiPKc) for catgets(__rw::__rw_cat*, int, int, const char*)
    messages.o(i._ZNSt18__rw_messages_base18_C_get_locale_nameEPKc) refers to locale.o(i._ZN4__rw21__rw_use_c_lib_localeC1EPKci) for __rw::__rw_use_c_lib_locale::__rw_use_c_lib_locale(const char*, int)
    messages.o(i._ZNSt18__rw_messages_base18_C_get_locale_nameEPKc) refers to locale.o(.text) for setlocale
    messages.o(i._ZNSt18__rw_messages_base18_C_get_locale_nameEPKc) refers to main.o(t._ZNSaIcEC1Ev) for std::allocator<char>::allocator()
    messages.o(i._ZNSt18__rw_messages_base18_C_get_locale_nameEPKc) refers to main.o(t._ZNSaIcEC1ERKS_) for std::allocator<char>::allocator(const std::allocator<char>&)
    messages.o(i._ZNSt18__rw_messages_base18_C_get_locale_nameEPKc) refers to strlen.o(.text) for strlen
    messages.o(i._ZNSt18__rw_messages_base18_C_get_locale_nameEPKc) refers to locale.o(t._ZNSs11_C_allocateEjjj) for std::basic_string<char, std::char_traits<char>, std::allocator<char>>::_C_allocate(unsigned, unsigned, unsigned)
    messages.o(i._ZNSt18__rw_messages_base18_C_get_locale_nameEPKc) refers to main.o(i._ZNSt11char_traitsIcE4copyEPcPKcj) for std::char_traits<char>::copy(char*, const char*, unsigned)
    messages.o(i._ZNSt18__rw_messages_base18_C_get_locale_nameEPKc) refers to char.o(i._ZN4__rw21__rw_use_c_lib_localeD1Ev) for __rw::__rw_use_c_lib_locale::~__rw_use_c_lib_locale()
    messages.o(i._ZNSt18__rw_messages_base18_C_get_locale_nameEPKc) refers to rwthrowproc_impl.o(.bss__ZNSs9__nullrefE) for std::basic_string<char, std::char_traits<char>, std::allocator<char>>::__nullref
    messages.o(i._ZNSt18__rw_messages_base18_C_get_locale_nameEPKc.clean) refers to char.o(i._ZN4__rw21__rw_use_c_lib_localeD1Ev) for __rw::__rw_use_c_lib_locale::~__rw_use_c_lib_locale()
    messages.o(i._ZNSt18__rw_messages_base18_C_get_locale_nameEPKc.clean) refers to arm_exceptions_cleanup.o(.emb_text) for __cxa_end_cleanup
    messages.o(.ARM.exidx) refers to messages.o(i._ZNKSt18__rw_messages_base11_C_cat_openERKSsRKSt6locale) for i._ZNKSt18__rw_messages_base11_C_cat_openERKSsRKSt6locale
    messages.o(.ARM.exidx) refers to unwind_pr0.o(.text) for __aeabi_unwind_cpp_pr0
    messages.o(.ARM.exidx) refers to messages.o(.ARM.extab) for .extab._ZNKSt18__rw_messages_base11_C_cat_openERKSsRKSt6locale
    messages.o(.ARM.exidx) refers to messages.o(i._ZNKSt18__rw_messages_base11_C_cat_openERKSsRKSt6locale.clean) for i._ZNKSt18__rw_messages_base11_C_cat_openERKSsRKSt6locale.clean
    messages.o(.ARM.exidx) refers to messages.o(i._ZNKSt18__rw_messages_base14_C_get_messageEiii) for i._ZNKSt18__rw_messages_base14_C_get_messageEiii
    messages.o(.ARM.exidx) refers to unwind_pr0.o(.text) for __aeabi_unwind_cpp_pr0
    messages.o(.ARM.exidx) refers to messages.o(i._ZNKSt18__rw_messages_base13_C_get_localeEi) for i._ZNKSt18__rw_messages_base13_C_get_localeEi
    messages.o(.ARM.exidx) refers to unwind_pr0.o(.text) for __aeabi_unwind_cpp_pr0
    messages.o(.ARM.exidx) refers to messages.o(i._ZNKSt18__rw_messages_base12_C_cat_closeEi) for i._ZNKSt18__rw_messages_base12_C_cat_closeEi
    messages.o(.ARM.exidx) refers to unwind_pr0.o(.text) for __aeabi_unwind_cpp_pr0
    messages.o(.ARM.exidx) refers to messages.o(i._ZNSt18__rw_messages_base18_C_get_locale_nameEPKc) for i._ZNSt18__rw_messages_base18_C_get_locale_nameEPKc
    messages.o(.ARM.exidx) refers to unwind_pr0.o(.text) for __aeabi_unwind_cpp_pr0
    messages.o(.ARM.exidx) refers to messages.o(.ARM.extab) for .extab._ZNSt18__rw_messages_base18_C_get_locale_nameEPKc
    messages.o(.ARM.exidx) refers to messages.o(i._ZNSt18__rw_messages_base18_C_get_locale_nameEPKc.clean) for i._ZNSt18__rw_messages_base18_C_get_locale_nameEPKc.clean
    messages.o(.ARM.extab) refers to messages.o(i._ZNKSt18__rw_messages_base11_C_cat_openERKSsRKSt6locale.clean) for i._ZNKSt18__rw_messages_base11_C_cat_openERKSsRKSt6locale.clean
    messages.o(.ARM.extab) refers to messages.o(i._ZNSt18__rw_messages_base18_C_get_locale_nameEPKc.clean) for i._ZNSt18__rw_messages_base18_C_get_locale_nameEPKc.clean
    rwthrowproc.o(.data) refers to rwthrowproc_impl.o(i._ZN4__rw20__rw_throw_exceptionEiPc) for __rw::__rw_throw_exception(int, char*)
    newhandler.o(i._Z21__default_new_handlerv) refers to bad_alloc_ctor.o(i._ZNSt9bad_allocC1Ev) for std::bad_alloc::bad_alloc()
    newhandler.o(i._Z21__default_new_handlerv) refers to arm_exceptions_alloc.o(.text) for __cxa_allocate_exception
    newhandler.o(i._Z21__default_new_handlerv) refers to bad_alloc_cctor.o(i._ZNSt9bad_allocC1ERKS_) for std::bad_alloc::bad_alloc(const std::bad_alloc&)
    newhandler.o(i._Z21__default_new_handlerv) refers to bad_alloc_dtor.o(i._ZNSt9bad_allocD1Ev) for std::bad_alloc::~bad_alloc()
    newhandler.o(i._Z21__default_new_handlerv) refers to arm_exceptions_throw.o(.text) for __cxa_throw
    newhandler.o(i._Z21__default_new_handlerv) refers to bad_alloc_dtor.o(.constdata__ZTISt9bad_alloc) for typeinfo for std::bad_alloc
    newhandler.o(.ARM.exidx) refers to newhandler.o(i._Z21__default_new_handlerv) for i._Z21__default_new_handlerv
    newhandler.o(.ARM.exidx) refers to unwind_pr0.o(.text) for __aeabi_unwind_cpp_pr0
    bad_alloc_dtor.o(i._ZNSt9bad_allocD0Ev) refers to bad_alloc_dtor.o(i._ZNSt9bad_allocD1Ev) for std::bad_alloc::~bad_alloc()
    bad_alloc_dtor.o(i._ZNSt9bad_allocD0Ev) refers to delete.o(i._ZdlPv) for operator delete (void*)
    bad_alloc_dtor.o(.ARM.exidx) refers to bad_alloc_dtor.o(i._ZNSt9bad_allocD1Ev) for i._ZNSt9bad_allocD1Ev
    bad_alloc_dtor.o(.ARM.exidx) refers to bad_alloc_dtor.o(i._ZNSt9bad_allocD0Ev) for i._ZNSt9bad_allocD0Ev
    bad_exception_cctor.o(i._ZNSt13bad_exceptionC1ERKS_) refers to exception_cctor.o(i._ZNSt9exceptionC1ERKS_) for std::exception::exception(const std::exception&)
    bad_exception_cctor.o(i._ZNSt13bad_exceptionC1ERKS_) refers to bad_exception_dtor.o(.constdata__ZTVSt13bad_exception) for vtable for std::bad_exception
    bad_exception_cctor.o(.ARM.exidx) refers to bad_exception_cctor.o(i._ZNSt13bad_exceptionC1ERKS_) for i._ZNSt13bad_exceptionC1ERKS_
    bad_exception_ctor.o(i._ZNSt13bad_exceptionC1Ev) refers to exception_ctor.o(i._ZNSt9exceptionC1Ev) for std::exception::exception()
    bad_exception_ctor.o(i._ZNSt13bad_exceptionC1Ev) refers to bad_exception_dtor.o(.constdata__ZTVSt13bad_exception) for vtable for std::bad_exception
    bad_exception_ctor.o(.ARM.exidx) refers to bad_exception_ctor.o(i._ZNSt13bad_exceptionC1Ev) for i._ZNSt13bad_exceptionC1Ev
    bad_exception_dtor.o(i._ZNSt13bad_exceptionD0Ev) refers to bad_exception_dtor.o(i._ZNSt13bad_exceptionD1Ev) for std::bad_exception::~bad_exception()
    bad_exception_dtor.o(i._ZNSt13bad_exceptionD0Ev) refers to delete.o(i._ZdlPv) for operator delete (void*)
    bad_exception_dtor.o(.ARM.exidx) refers to bad_exception_dtor.o(i._ZNSt13bad_exceptionD1Ev) for i._ZNSt13bad_exceptionD1Ev
    bad_exception_dtor.o(.ARM.exidx) refers to bad_exception_dtor.o(i._ZNSt13bad_exceptionD0Ev) for i._ZNSt13bad_exceptionD0Ev
    cxa_guard_abort.o(.ARM.exidx) refers to cxa_guard_abort.o(i.__cxa_guard_abort) for i.__cxa_guard_abort
    exception_ctor.o(i._ZNSt9exceptionC1Ev) refers to exception_dtor.o(.constdata__ZTVSt9exception) for vtable for std::exception
    exception_ctor.o(.ARM.exidx) refers to exception_ctor.o(i._ZNSt9exceptionC1Ev) for i._ZNSt9exceptionC1Ev
    exception_dtor.o(i._ZNSt9exceptionD0Ev) refers to delete.o(i._ZdlPv) for operator delete (void*)
    exception_dtor.o(.ARM.exidx) refers to exception_dtor.o(i._ZNSt9exceptionD1Ev) for i._ZNSt9exceptionD1Ev
    exception_dtor.o(.ARM.exidx) refers to exception_dtor.o(i._ZNSt9exceptionD0Ev) for i._ZNSt9exceptionD0Ev
    type_info_dtor.o(.ARM.exidx) refers to type_info_dtor.o(i._ZNSt9type_infoD1Ev) for i._ZNSt9type_infoD1Ev
    type_info_dtor.o(.ARM.exidx) refers to type_info_dtor.o(i._ZNSt9type_infoD0Ev) for i._ZNSt9type_infoD0Ev
    type_info_eq.o(.ARM.exidx) refers to type_info_eq.o(i._ZNKSt9type_infoeqERKS_) for i._ZNKSt9type_infoeqERKS_
    aeabi_vec_new_cookie.o(i.__aeabi_vec_new_cookie) refers to cxa_vec_new.o(i.__cxa_vec_new) for __cxa_vec_new
    aeabi_vec_new_cookie.o(.ARM.exidx) refers to aeabi_vec_new_cookie.o(i.__aeabi_vec_new_cookie) for i.__aeabi_vec_new_cookie
    aeabi_vec_new_cookie.o(.ARM.exidx) refers to unwind_pr0.o(.text) for __aeabi_unwind_cpp_pr0
    aeabi_vec_dtor_cookie.o(i.__aeabi_vec_dtor_cookie) refers to aeabi_vec_dtor.o(i.__aeabi_vec_dtor) for __aeabi_vec_dtor
    aeabi_vec_dtor_cookie.o(.ARM.exidx) refers to aeabi_vec_dtor_cookie.o(i.__aeabi_vec_dtor_cookie) for i.__aeabi_vec_dtor_cookie
    arm_exceptions_alloc.o(.text) refers to arm_exceptions_globs.o(.text) for __cxa_get_globals
    arm_exceptions_alloc.o(.text) refers to h1_alloc.o(.text) for malloc
    arm_exceptions_alloc.o(.text) refers to arm_exceptions_mem.o(.text) for __ARM_exceptions_buffer_allocate
    arm_exceptions_alloc.o(.text) refers to arm_exceptions_callterm.o(.text) for __ARM::call_terminate_handler(_Unwind_Control_Block*)
    arm_exceptions_alloc.o(.ARM.exidx) refers to arm_exceptions_alloc.o(.text) for .text
    arm_exceptions_callterm.o(.text) refers to arm_exceptions_globs.o(.text) for __cxa_get_globals
    arm_exceptions_callterm.o(.text) refers to arm_exceptions_support.o(.text) for __ARM::is_foreign_exception(_Unwind_Control_Block*)
    arm_exceptions_callterm.o(.text) refers to arm_exceptions_terminate.o(.text) for std::terminate()
    arm_exceptions_callterm.o(.text) refers to arm_exceptions_begincatch.o(.text) for __cxa_begin_catch
    arm_exceptions_callterm.o(.ARM.exidx) refers to arm_exceptions_callterm.o(.text) for .text
    arm_exceptions_support.o(.text) refers to arm_exceptions_support.o(.constdata) for .constdata
    arm_exceptions_support.o(.ARM.exidx) refers to arm_exceptions_support.o(.text) for .text
    arm_exceptions_throw.o(.text) refers to arm_exceptions_globs.o(.text) for __cxa_get_globals
    arm_exceptions_throw.o(.text) refers to arm_exceptions_free.o(.text) for __cxa_free_exception
    arm_exceptions_throw.o(.text) refers to arm_exceptions_begincatch.o(.text) for __cxa_begin_catch
    arm_exceptions_throw.o(.text) refers to arm_exceptions_rethrow.o(.text) for __cxa_rethrow
    arm_exceptions_throw.o(.text) refers to unwind_activity.o(.emb_text) for _Unwind_Activity
    arm_exceptions_throw.o(.text) refers to unwinder.o(.emb_text) for _Unwind_RaiseException
    arm_exceptions_throw.o(.text) refers to arm_exceptions_callterm.o(.text) for __cxa_call_terminate
    arm_exceptions_throw.o(.text) refers to arm_exceptions_support.o(.text) for __ARM::is_foreign_exception(_Unwind_Control_Block*)
    arm_exceptions_throw.o(.text) refers to type_info_eq.o(i._ZNKSt9type_infoeqERKS_) for std::type_info::operator ==(const std::type_info&) const
    arm_exceptions_throw.o(.text) refers to arm_exceptions_throw.o(i.__ARM_common_get_typeid) for __ARM_common_get_typeid
    arm_exceptions_throw.o(.text) refers to type_info_ne.o(i._ZNKSt9type_infoneERKS_) for std::type_info::operator !=(const std::type_info&) const
    arm_exceptions_throw.o(.text) refers to rtti.o(i.__derived_to_base_conversion) for __derived_to_base_conversion
    arm_exceptions_throw.o(.text) refers to lib_rtti_impl.o(.constdata__ZTIN10__cxxabiv119__pointer_type_infoE) for typeinfo for __cxxabiv1::__pointer_type_info
    arm_exceptions_throw.o(.text) refers to arm_exceptions_throw.o(.constdata__ZTIv) for typeinfo for void
    arm_exceptions_throw.o(.text) refers to lib_rtti_impl.o(.constdata__ZTIN10__cxxabiv120__si_class_type_infoE) for typeinfo for __cxxabiv1::__si_class_type_info
    arm_exceptions_throw.o(.text) refers to lib_rtti_impl.o(.constdata__ZTIN10__cxxabiv121__vmi_class_type_infoE) for typeinfo for __cxxabiv1::__vmi_class_type_info
    arm_exceptions_throw.o(.text.clean) refers to arm_exceptions_endcatch.o(.text) for __cxa_end_catch
    arm_exceptions_throw.o(.text.clean) refers to arm_exceptions_cleanup.o(.emb_text) for __cxa_end_cleanup
    arm_exceptions_throw.o(.ARM.exidx) refers to arm_exceptions_throw.o(.text) for .text
    arm_exceptions_throw.o(.ARM.exidx) refers to unwind_pr0.o(.text) for __aeabi_unwind_cpp_pr0
    arm_exceptions_throw.o(.ARM.exidx) refers to arm_exceptions_throw.o(.ARM.extab) for .extab._ZN38_INTERNAL_16_arm_exceptions_c_8b2d39d624armcpp_exception_cleanupE19_Unwind_Reason_CodeP21_Unwind_Control_Block
    arm_exceptions_throw.o(.ARM.exidx) refers to arm_exceptions_throw.o(.text.clean) for .text.clean
    arm_exceptions_throw.o(.ARM.extab) refers to arm_exceptions_throw.o(.text) for .text
    arm_exceptions_throw.o(.ARM.extab) refers to arm_exceptions_throw.o(.text.clean) for .text.clean
    arm_exceptions_free.o(.text) refers to arm_exceptions_globs.o(.text) for __cxa_get_globals
    arm_exceptions_free.o(.text) refers to arm_exceptions_mem.o(.text) for __ARM_exceptions_buffer_free
    arm_exceptions_free.o(.text) refers to h1_free.o(.text) for free
    arm_exceptions_free.o(.ARM.exidx) refers to arm_exceptions_free.o(.text) for .text
    arm_exceptions_terminate.o(.text) refers to arm_exceptions_globs.o(.text) for __cxa_get_globals
    arm_exceptions_terminate.o(.text) refers to abort.o(.text) for abort
    arm_exceptions_terminate.o(.ARM.exidx) refers to arm_exceptions_terminate.o(.text) for .text
    arm_exceptions_globs.o(.text) refers to abort.o(.text) for abort
    arm_exceptions_globs.o(.text) refers to rt_eh_globals_addr_intlibspace.o(.text) for __rt_eh_globals_addr
    arm_exceptions_globs.o(.text) refers to h1_alloc.o(.text) for malloc
    arm_exceptions_globs.o(.text) refers to arm_exceptions_mem.o(.text) for __ARM_exceptions_buffer_init
    arm_exceptions_globs.o(.text) refers (Weak) to arm_exceptions_unexpected.o(.text) for __ARM::default_unexpected_handler()
    arm_exceptions_globs.o(.ARM.exidx) refers to arm_exceptions_globs.o(.text) for .text
    arm_exceptions_unexpected.o(.text) refers to arm_exceptions_globs.o(.text) for __cxa_get_globals
    arm_exceptions_unexpected.o(.text) refers to abort.o(.text) for abort
    arm_exceptions_unexpected.o(.text) refers to arm_exceptions_terminate.o(.text) for std::terminate()
    arm_exceptions_unexpected.o(.ARM.exidx) refers to arm_exceptions_unexpected.o(.text) for .text
    arm_exceptions_unexpected.o(.ARM.exidx) refers to unwind_pr0.o(.text) for __aeabi_unwind_cpp_pr0
    arm_exceptions_foreign.o(.text) refers to arm_exceptions_support.o(.text) for __ARM::same_exceptions_class(const void*, const void*)
    arm_exceptions_foreign.o(.text) refers to arm_exceptions_alloc.o(.text) for __cxa_allocate_exception
    arm_exceptions_foreign.o(.ARM.exidx) refers to arm_exceptions_foreign.o(.text) for .text
    unwind_prcommon.o(.text) refers to unwinder.o(.text) for _Unwind_VRS_Get
    unwind_prcommon.o(.text) refers (Weak) to arm_exceptions_cleanup.o(.text) for __cxa_begin_cleanup
    unwind_prcommon.o(.text) refers (Weak) to arm_exceptions_throw.o(.text) for __cxa_type_match
    unwind_prcommon.o(.text) refers to unwind_activity.o(.emb_text) for _Unwind_Activity
    unwind_prcommon.o(.text) refers (Weak) to arm_exceptions_throw.o(.text) for __cxa_type_match
    unwind_prcommon.o(.text) refers (Weak) to arm_exceptions_callunex.o(.text) for __cxa_call_unexpected
    unwind_prcommon.o(.ARM.exidx) refers to unwind_prcommon.o(.text) for .text
    unwind_delete.o(.ARM.exidx) refers to unwind_delete.o(.text) for .text
    deqf.o(x$fpl$deqf) refers (Special) to usenofp.o(x$fpl$usenofp) for __I$use$fp
    deqf.o(x$fpl$deqf) refers to dnaninf.o(x$fpl$dnaninf) for __fpl_dnaninf
    deqf.o(x$fpl$deqf) refers to dcmpi.o(x$fpl$dcmpinf) for __fpl_dcmp_Inf
    dleqf.o(x$fpl$dleqf) refers (Special) to usenofp.o(x$fpl$usenofp) for __I$use$fp
    dleqf.o(x$fpl$dleqf) refers to dnaninf.o(x$fpl$dnaninf) for __fpl_dnaninf
    dleqf.o(x$fpl$dleqf) refers to dcmpi.o(x$fpl$dcmpinf) for __fpl_dcmp_Inf
    printf1.o(x$fpl$printf1) refers to _printf_fp_dec.o(.text) for _printf_fp_dec_real
    printf2.o(x$fpl$printf2) refers to _printf_fp_hex.o(.text) for _printf_fp_hex_real
    printf2b.o(x$fpl$printf2) refers to _printf_fp_hex.o(.text) for _printf_fp_hex_real
    libspace.o(.text) refers to libspace.o(.bss) for __libspace_start
    sys_stackheap_outer.o(.text) refers to libspace.o(.text) for __user_perproc_libspace
    sys_stackheap_outer.o(.text) refers to startup_stm32f10x_hd.o(.text) for __user_initial_stackheap
    rt_heap_descriptor.o(.text) refers to rt_heap_descriptor.o(.bss) for __rt_heap_descriptor_data
    rt_heap_descriptor_intlibspace.o(.text) refers to libspace.o(.bss) for __libspace_start
    rt_locale.o(.text) refers to rt_locale.o(.bss) for __rt_locale_data
    rt_locale_intlibspace.o(.text) refers to libspace.o(.bss) for __libspace_start
    rt_eh_globals_addr.o(.text) refers to rt_eh_globals_addr.o(.bss) for __rt_eh_globals_addr_data
    rt_eh_globals_addr_intlibspace.o(.text) refers to libspace.o(.bss) for __libspace_start
    rt_errno_addr.o(.text) refers to rt_errno_addr.o(.bss) for __aeabi_errno_addr_data
    rt_errno_addr_intlibspace.o(.text) refers to libspace.o(.bss) for __libspace_start
    init_alloc.o(.text) refers (Special) to hguard.o(.text) for __heap$guard
    init_alloc.o(.text) refers (Special) to libinit2.o(.ARM.Collect$$libinit$$00000005) for __rt_lib_init_heap_2
    init_alloc.o(.text) refers (Special) to maybetermalloc1.o(.emb_text) for _maybe_terminate_alloc
    init_alloc.o(.text) refers to h1_extend.o(.text) for __Heap_ProvideMemory
    init_alloc.o(.text) refers to defsig_rtmem_outer.o(.text) for __rt_SIGRTMEM
    init_alloc.o(.text) refers to rt_heap_descriptor_intlibspace.o(.text) for __rt_heap_descriptor
    init_alloc.o(.text) refers to h1_init.o(.text) for __Heap_Initialize
    h1_init_mt.o(.text) refers to mutex_dummy.o(.text) for _mutex_initialize
    _printf_intcommon.o(.text) refers (Weak) to _printf_pad.o(.text) for _printf_pre_padding
    _printf_intcommon.o(.text) refers (Weak) to _printf_pad.o(.text) for _printf_pre_padding
    _printf_intcommon.o(.text) refers (Weak) to _printf_pad.o(.text) for _printf_post_padding
    _printf_fp_dec.o(.text) refers (Special) to usenofp.o(x$fpl$usenofp) for __I$use$fp
    _printf_fp_dec.o(.text) refers (Special) to lc_numeric_c.o(locale$$code) for _get_lc_numeric
    _printf_fp_dec.o(.text) refers to bigflt0.o(.text) for _btod_etento
    _printf_fp_dec.o(.text) refers to btod.o(CL$$btod_d2e) for _btod_d2e
    _printf_fp_dec.o(.text) refers to btod.o(CL$$btod_ediv) for _btod_ediv
    _printf_fp_dec.o(.text) refers to btod.o(CL$$btod_emul) for _btod_emul
    _printf_fp_dec.o(.text) refers to lludiv10.o(.text) for _ll_udiv10
    _printf_fp_dec.o(.text) refers to fpclassify.o(i.__ARM_fpclassify) for __ARM_fpclassify
    _printf_fp_dec.o(.text) refers to _printf_fp_infnan.o(.text) for _printf_fp_infnan
    _printf_fp_dec.o(.text) refers (Weak) to _printf_pad.o(.text) for _printf_pre_padding
    _printf_fp_dec.o(.text) refers (Weak) to _printf_pad.o(.text) for _printf_pre_padding
    _printf_fp_dec.o(.text) refers to rt_locale_intlibspace.o(.text) for __rt_locale
    _printf_fp_dec.o(.text) refers (Weak) to _printf_pad.o(.text) for _printf_post_padding
    _printf_fp_hex.o(.text) refers (Special) to usenofp.o(x$fpl$usenofp) for __I$use$fp
    _printf_fp_hex.o(.text) refers to fpclassify.o(i.__ARM_fpclassify) for __ARM_fpclassify
    _printf_fp_hex.o(.text) refers to _printf_fp_infnan.o(.text) for _printf_fp_infnan
    _printf_fp_hex.o(.text) refers (Weak) to _printf_pad.o(.text) for _printf_pre_padding
    _printf_fp_hex.o(.text) refers (Weak) to _printf_pad.o(.text) for _printf_pre_padding
    _printf_fp_hex.o(.text) refers (Weak) to _printf_pad.o(.text) for _printf_post_padding
    _printf_fp_hex.o(.text) refers to _printf_fp_hex.o(.constdata) for .constdata
    _printf_fp_hex.o(.constdata) refers (Special) to usenofp.o(x$fpl$usenofp) for __I$use$fp
    _printf_char_common.o(.text) refers to __printf_flags_ss_wp.o(.text) for __printf
    _printf_char.o(.text) refers (Weak) to _printf_str.o(.text) for _printf_str
    _printf_char_file.o(.text) refers to _printf_char_common.o(.text) for _printf_char_common
    _printf_char_file.o(.text) refers to retarget.o(.text) for ferror
    _printf_wchar.o(.text) refers (Weak) to _printf_wctomb.o(.text) for _printf_wctomb
    _printf_s.o(.ARM.Collect$$_printf_percent$$00000014) refers (Weak) to _printf_char.o(.text) for _printf_string
    _printf_n.o(.ARM.Collect$$_printf_percent$$00000001) refers (Weak) to _printf_charcount.o(.text) for _printf_charcount
    _printf_p.o(.ARM.Collect$$_printf_percent$$00000002) refers (Weak) to _printf_hex_int_ll_ptr.o(.text) for _printf_hex_ptr
    _printf_ls.o(.ARM.Collect$$_printf_percent$$00000016) refers (Special) to _printf_l.o(.ARM.Collect$$_printf_percent$$00000012) for _printf_l
    _printf_ls.o(.ARM.Collect$$_printf_percent$$00000016) refers (Weak) to _printf_wchar.o(.text) for _printf_wstring
    _scanf_longlong.o(.text) refers to _chval.o(.text) for _chval
    _scanf_int.o(.text) refers to _chval.o(.text) for _chval
    scanf_char.o(.text) refers to _scanf.o(.text) for __vfscanf
    scanf_char.o(.text) refers to isspace.o(.text) for isspace
    __strtoull.o(.text) refers to rt_errno_addr_intlibspace.o(.text) for __aeabi_errno_addr
    __strtoull.o(.text) refers to rt_ctype_table.o(.text) for __rt_ctype_table
    __strtoull.o(.text) refers to _strtoull.o(.text) for _strtoull
    _scanf_mbtowc.o(.text) refers to _mbrtowc.o(.text) for _mbrtowc
    _scanf_wctomb.o(.text) refers to _wcrtomb.o(.text) for _wcrtomb
    _scanf_wctomb.o(.text) refers to _scanf_wcharmap.o(.text) for _scanf_wcharmap
    _scanf_wstr.o(.text) refers to _scanf_wcharmap.o(.text) for _scanf_wcharmap
    _lconv.o(.text) refers (Special) to lc_monetary_c.o(locale$$code) for _get_lc_monetary
    _lconv.o(.text) refers (Special) to lc_numeric_c.o(locale$$code) for _get_lc_numeric
    _lconv.o(.text) refers to rt_locale_intlibspace.o(.text) for __rt_locale
    locale_r.o(.text) refers to rt_locale_intlibspace.o(.text) for __rt_locale
    locale_r.o(.text) refers (Weak) to lc_ctype_c.o(locale$$code) for _get_lc_ctype
    locale_r.o(.text) refers (Weak) to lc_collate_c.o(locale$$code) for _get_lc_collate
    locale_r.o(.text) refers (Weak) to lc_monetary_c.o(locale$$code) for _get_lc_monetary
    locale_r.o(.text) refers (Weak) to lc_numeric_c.o(locale$$code) for _get_lc_numeric
    locale_r.o(.text) refers to null_locale.o(locale$$data) for __lcnull_start
    _mbrtowc.o(.text) refers to rt_ctype_table.o(.text) for __rt_ctype_table
    _wcrtomb.o(.text) refers to rt_ctype_table.o(.text) for __rt_ctype_table
    lc_ctype_c.o(locale$$data) refers (Special) to libinit2.o(.ARM.Collect$$libinit$$00000012) for __rt_lib_init_lc_ctype_2
    lc_ctype_c.o(locale$$code) refers (Special) to libinit2.o(.ARM.Collect$$libinit$$00000012) for __rt_lib_init_lc_ctype_2
    lc_ctype_c.o(locale$$code) refers to strcmpv7m.o(.text) for strcmp
    lc_ctype_c.o(locale$$code) refers to lc_ctype_c.o(locale$$data) for __lcctype_c_name
    lc_collate_c.o(locale$$data) refers (Special) to libinit2.o(.ARM.Collect$$libinit$$00000010) for __rt_lib_init_lc_collate_2
    lc_collate_c.o(locale$$code) refers (Special) to libinit2.o(.ARM.Collect$$libinit$$00000010) for __rt_lib_init_lc_collate_2
    lc_collate_c.o(locale$$code) refers to strcmpv7m.o(.text) for strcmp
    lc_collate_c.o(locale$$code) refers to lc_collate_c.o(locale$$data) for __lccoll_c_name
    exit.o(.text) refers to rtexit.o(.ARM.Collect$$rtexit$$00000000) for __rt_exit
    defsig_abrt_outer.o(.text) refers to defsig_abrt_inner.o(.text) for __rt_SIGABRT_inner
    defsig_abrt_outer.o(.text) refers to defsig_exit.o(.text) for __sig_exit
    defsig_abrt_formal.o(.text) refers to rt_raise.o(.text) for __rt_raise
    memmove.o(.text) refers to rt_memmove_v6.o(.text) for __aeabi_memmove
    _get_argv.o(.text) refers (Special) to hrguard.o(.text) for __heap_region$guard
    _get_argv.o(.text) refers to h1_alloc.o(.text) for malloc
    _get_argv.o(.text) refers to defsig_rtmem_outer.o(.text) for __rt_SIGRTMEM
    _get_argv.o(.text) refers to sys_command.o(.text) for _sys_command_string
    argv_veneer.o(.emb_text) refers to no_argv.o(.text) for __ARM_get_argv
    libinit.o(.ARM.Collect$$libinit$$00000000) refers (Special) to libinit2.o(.ARM.Collect$$libinit$$0000002E) for __rt_lib_init_alloca_1
    libinit.o(.ARM.Collect$$libinit$$00000000) refers (Special) to libinit2.o(.ARM.Collect$$libinit$$0000002C) for __rt_lib_init_argv_1
    libinit.o(.ARM.Collect$$libinit$$00000000) refers (Special) to libinit2.o(.ARM.Collect$$libinit$$0000001B) for __rt_lib_init_atexit_1
    libinit.o(.ARM.Collect$$libinit$$00000000) refers (Special) to libinit2.o(.ARM.Collect$$libinit$$00000021) for __rt_lib_init_clock_1
    libinit.o(.ARM.Collect$$libinit$$00000000) refers (Special) to libinit2.o(.ARM.Collect$$libinit$$00000032) for __rt_lib_init_cpp_1
    libinit.o(.ARM.Collect$$libinit$$00000000) refers (Special) to libinit2.o(.ARM.Collect$$libinit$$00000030) for __rt_lib_init_exceptions_1
    libinit.o(.ARM.Collect$$libinit$$00000000) refers (Special) to libinit2.o(.ARM.Collect$$libinit$$00000002) for __rt_lib_init_fp_1
    libinit.o(.ARM.Collect$$libinit$$00000000) refers (Special) to libinit2.o(.ARM.Collect$$libinit$$0000001F) for __rt_lib_init_fp_trap_1
    libinit.o(.ARM.Collect$$libinit$$00000000) refers (Special) to libinit2.o(.ARM.Collect$$libinit$$00000023) for __rt_lib_init_getenv_1
    libinit.o(.ARM.Collect$$libinit$$00000000) refers (Special) to libinit2.o(.ARM.Collect$$libinit$$0000000A) for __rt_lib_init_heap_1
    libinit.o(.ARM.Collect$$libinit$$00000000) refers (Special) to libinit2.o(.ARM.Collect$$libinit$$00000011) for __rt_lib_init_lc_collate_1
    libinit.o(.ARM.Collect$$libinit$$00000000) refers (Special) to libinit2.o(.ARM.Collect$$libinit$$00000013) for __rt_lib_init_lc_ctype_1
    libinit.o(.ARM.Collect$$libinit$$00000000) refers (Special) to libinit2.o(.ARM.Collect$$libinit$$00000015) for __rt_lib_init_lc_monetary_1
    libinit.o(.ARM.Collect$$libinit$$00000000) refers (Special) to libinit2.o(.ARM.Collect$$libinit$$00000017) for __rt_lib_init_lc_numeric_1
    libinit.o(.ARM.Collect$$libinit$$00000000) refers (Special) to libinit2.o(.ARM.Collect$$libinit$$00000019) for __rt_lib_init_lc_time_1
    libinit.o(.ARM.Collect$$libinit$$00000000) refers (Special) to libinit2.o(.ARM.Collect$$libinit$$00000004) for __rt_lib_init_preinit_1
    libinit.o(.ARM.Collect$$libinit$$00000000) refers (Special) to libinit2.o(.ARM.Collect$$libinit$$0000000E) for __rt_lib_init_rand_1
    libinit.o(.ARM.Collect$$libinit$$00000000) refers (Special) to libinit2.o(.ARM.Collect$$libinit$$00000033) for __rt_lib_init_return
    libinit.o(.ARM.Collect$$libinit$$00000000) refers (Special) to libinit2.o(.ARM.Collect$$libinit$$0000001D) for __rt_lib_init_signal_1
    libinit.o(.ARM.Collect$$libinit$$00000000) refers (Special) to libinit2.o(.ARM.Collect$$libinit$$00000025) for __rt_lib_init_stdio_1
    libinit.o(.ARM.Collect$$libinit$$00000000) refers (Special) to libinit2.o(.ARM.Collect$$libinit$$0000000C) for __rt_lib_init_user_alloc_1
    libshutdown2.o(.ARM.Collect$$libshutdown$$00000001) refers (Weak) to cxa_finalize.o(.text) for __cxa_finalize
    libshutdown2.o(.ARM.Collect$$libshutdown$$0000000D) refers (Weak) to term_alloc.o(.text) for _terminate_alloc
    rwcats.o(i._Z7catgetsPN4__rw8__rw_catEiiPKc) refers to rwcats.o(i._ZN4__rw9__catfindEPNS_8__rw_catE) for __rw::__catfind(__rw::__rw_cat*)
    rwcats.o(i._Z7catgetsPN4__rw8__rw_catEiiPKc) refers to arm_exceptions_begincatch.o(.text) for __cxa_begin_catch
    rwcats.o(i._Z7catgetsPN4__rw8__rw_catEiiPKc) refers to arm_exceptions_endcatch.o(.text) for __cxa_end_catch
    rwcats.o(i._Z7catgetsPN4__rw8__rw_catEiiPKc) refers to rwcats.o(.data) for .data
    rwcats.o(i._Z7catopenPKci) refers to new.o(i._Znwj) for operator new(unsigned)
    rwcats.o(i._Z7catopenPKci) refers to delete.o(i._ZdlPv) for operator delete (void*)
    rwcats.o(i._Z7catopenPKci) refers to arm_exceptions_begincatch.o(.text) for __cxa_begin_catch
    rwcats.o(i._Z7catopenPKci) refers to arm_exceptions_endcatch.o(.text) for __cxa_end_catch
    rwcats.o(i._Z7catopenPKci.clean) refers to arm_exceptions_cleanup.o(.emb_text) for __cxa_end_cleanup
    rwcats.o(i._Z8catclosePN4__rw8__rw_catE) refers to rwcats.o(i._ZN4__rw9__catfindEPNS_8__rw_catE) for __rw::__catfind(__rw::__rw_cat*)
    rwcats.o(i._Z8catclosePN4__rw8__rw_catE) refers to delete.o(i._ZdlPv) for operator delete (void*)
    rwcats.o(i._Z8catclosePN4__rw8__rw_catE) refers to rwcats.o(.data) for .data
    rwcats.o(i._ZN4__rw9__catfindEPNS_8__rw_catE) refers to rwcats.o(.data) for .data
    rwcats.o(i.__sti___10_rwcats_cpp_64e8068e) refers to array_new.o(i._Znaj) for operator new[] (unsigned)
    rwcats.o(i.__sti___10_rwcats_cpp_64e8068e) refers to aeabi_atexit.o(.text) for __aeabi_atexit
    rwcats.o(i.__sti___10_rwcats_cpp_64e8068e) refers to rwcats.o(.data) for .data
    rwcats.o(i.__sti___10_rwcats_cpp_64e8068e) refers to rwcats.o(t._ZN4__rw18__rw_locale_vectorIPNS_8__rw_catEED1Ev) for __rw::__rw_locale_vector<__rw::__rw_cat*>::~__rw_locale_vector()
    rwcats.o(.ARM.exidx) refers to rwcats.o(i._Z7catopenPKci) for i._Z7catopenPKci
    rwcats.o(.ARM.exidx) refers to unwind_pr0.o(.text) for __aeabi_unwind_cpp_pr0
    rwcats.o(.ARM.exidx) refers to rwcats.o(.ARM.extab) for .extab._Z7catopenPKci
    rwcats.o(.ARM.exidx) refers to rwcats.o(i._Z7catopenPKci.clean) for i._Z7catopenPKci.clean
    rwcats.o(.ARM.exidx) refers to rwcats.o(i._ZN4__rw9__catfindEPNS_8__rw_catE) for i._ZN4__rw9__catfindEPNS_8__rw_catE
    rwcats.o(.ARM.exidx) refers to rwcats.o(i._Z7catgetsPN4__rw8__rw_catEiiPKc) for i._Z7catgetsPN4__rw8__rw_catEiiPKc
    rwcats.o(.ARM.exidx) refers to unwind_pr0.o(.text) for __aeabi_unwind_cpp_pr0
    rwcats.o(.ARM.exidx) refers to rwcats.o(.ARM.extab) for .extab._Z7catgetsPN4__rw8__rw_catEiiPKc
    rwcats.o(.ARM.exidx) refers to rwcats.o(i._Z8catclosePN4__rw8__rw_catE) for i._Z8catclosePN4__rw8__rw_catE
    rwcats.o(.ARM.exidx) refers to unwind_pr0.o(.text) for __aeabi_unwind_cpp_pr0
    rwcats.o(.ARM.exidx) refers to rwcats.o(i.__sti___10_rwcats_cpp_64e8068e) for i.__sti___10_rwcats_cpp_64e8068e
    rwcats.o(.ARM.exidx) refers to unwind_pr0.o(.text) for __aeabi_unwind_cpp_pr0
    rwcats.o(.ARM.extab) refers to rwcats.o(i._Z7catopenPKci) for i._Z7catopenPKci
    rwcats.o(.ARM.extab) refers to rwcats.o(i._Z7catgetsPN4__rw8__rw_catEiiPKc) for i._Z7catgetsPN4__rw8__rw_catEiiPKc
    rwcats.o(.init_array) refers to rwcats.o(i.__sti___10_rwcats_cpp_64e8068e) for __sti___10_rwcats_cpp_64e8068e
    rwcats.o(.init_array) refers to init_aeabi.o(.text) for __cpp_initialize__aeabi_
    rwthrowproc_impl.o(i._ZN4__rw20__rw_throw_exceptionEiPc) refers to exception_ctor.o(i._ZNSt9exceptionC1Ev) for std::exception::exception()
    rwthrowproc_impl.o(i._ZN4__rw20__rw_throw_exceptionEiPc) refers to arm_exceptions_alloc.o(.text) for __cxa_allocate_exception
    rwthrowproc_impl.o(i._ZN4__rw20__rw_throw_exceptionEiPc) refers to exception_cctor.o(i._ZNSt9exceptionC1ERKS_) for std::exception::exception(const std::exception&)
    rwthrowproc_impl.o(i._ZN4__rw20__rw_throw_exceptionEiPc) refers to bad_exception_ctor.o(i._ZNSt13bad_exceptionC1Ev) for std::bad_exception::bad_exception()
    rwthrowproc_impl.o(i._ZN4__rw20__rw_throw_exceptionEiPc) refers to bad_exception_cctor.o(i._ZNSt13bad_exceptionC1ERKS_) for std::bad_exception::bad_exception(const std::bad_exception&)
    rwthrowproc_impl.o(i._ZN4__rw20__rw_throw_exceptionEiPc) refers to bad_exception_dtor.o(i._ZNSt13bad_exceptionD1Ev) for std::bad_exception::~bad_exception()
    rwthrowproc_impl.o(i._ZN4__rw20__rw_throw_exceptionEiPc) refers to arm_exceptions_throw.o(.text) for __cxa_throw
    rwthrowproc_impl.o(i._ZN4__rw20__rw_throw_exceptionEiPc) refers to bad_alloc_ctor.o(i._ZNSt9bad_allocC1Ev) for std::bad_alloc::bad_alloc()
    rwthrowproc_impl.o(i._ZN4__rw20__rw_throw_exceptionEiPc) refers to bad_alloc_cctor.o(i._ZNSt9bad_allocC1ERKS_) for std::bad_alloc::bad_alloc(const std::bad_alloc&)
    rwthrowproc_impl.o(i._ZN4__rw20__rw_throw_exceptionEiPc) refers to bad_alloc_dtor.o(i._ZNSt9bad_allocD1Ev) for std::bad_alloc::~bad_alloc()
    rwthrowproc_impl.o(i._ZN4__rw20__rw_throw_exceptionEiPc) refers to bad_cast.o(i._ZNSt8bad_castC1Ev) for std::bad_cast::bad_cast()
    rwthrowproc_impl.o(i._ZN4__rw20__rw_throw_exceptionEiPc) refers to bad_cast.o(i._ZNSt8bad_castC1ERKS_) for std::bad_cast::bad_cast(const std::bad_cast&)
    rwthrowproc_impl.o(i._ZN4__rw20__rw_throw_exceptionEiPc) refers to bad_cast.o(i._ZNSt8bad_castD1Ev) for std::bad_cast::~bad_cast()
    rwthrowproc_impl.o(i._ZN4__rw20__rw_throw_exceptionEiPc) refers to rwthrowproc_impl.o(i._ZNSt11logic_errorC1EPKc) for std::logic_error::logic_error(const char*)
    rwthrowproc_impl.o(i._ZN4__rw20__rw_throw_exceptionEiPc) refers to rwstdexcept.o(i._ZNSt14__rw_exception9_C_assignEPKcj) for std::__rw_exception::_C_assign(const char*, unsigned)
    rwthrowproc_impl.o(i._ZN4__rw20__rw_throw_exceptionEiPc) refers to rwthrowproc_impl.o(i._ZNSt11logic_errorC1ERKS_) for std::logic_error::logic_error(const std::logic_error&)
    rwthrowproc_impl.o(i._ZN4__rw20__rw_throw_exceptionEiPc) refers to rwthrowproc_impl.o(i._ZNSt12domain_errorC1EPKc) for std::domain_error::domain_error(const char*)
    rwthrowproc_impl.o(i._ZN4__rw20__rw_throw_exceptionEiPc) refers to rwthrowproc_impl.o(i._ZNSt12domain_errorC1ERKS_) for std::domain_error::domain_error(const std::domain_error&)
    rwthrowproc_impl.o(i._ZN4__rw20__rw_throw_exceptionEiPc) refers to rwthrowproc_impl.o(i._ZNSt16invalid_argumentC1EPKc) for std::invalid_argument::invalid_argument(const char*)
    rwthrowproc_impl.o(i._ZN4__rw20__rw_throw_exceptionEiPc) refers to rwthrowproc_impl.o(i._ZNSt16invalid_argumentC1ERKS_) for std::invalid_argument::invalid_argument(const std::invalid_argument&)
    rwthrowproc_impl.o(i._ZN4__rw20__rw_throw_exceptionEiPc) refers to rwthrowproc_impl.o(i._ZNSt12length_errorC1EPKc) for std::length_error::length_error(const char*)
    rwthrowproc_impl.o(i._ZN4__rw20__rw_throw_exceptionEiPc) refers to rwthrowproc_impl.o(i._ZNSt12length_errorC1ERKS_) for std::length_error::length_error(const std::length_error&)
    rwthrowproc_impl.o(i._ZN4__rw20__rw_throw_exceptionEiPc) refers to rwthrowproc_impl.o(i._ZNSt12out_of_rangeC1EPKc) for std::out_of_range::out_of_range(const char*)
    rwthrowproc_impl.o(i._ZN4__rw20__rw_throw_exceptionEiPc) refers to rwthrowproc_impl.o(i._ZNSt12out_of_rangeC1ERKS_) for std::out_of_range::out_of_range(const std::out_of_range&)
    rwthrowproc_impl.o(i._ZN4__rw20__rw_throw_exceptionEiPc) refers to rwthrowproc_impl.o(i._ZNSt13runtime_errorC1EPKc) for std::runtime_error::runtime_error(const char*)
    rwthrowproc_impl.o(i._ZN4__rw20__rw_throw_exceptionEiPc) refers to rwthrowproc_impl.o(i._ZNSt13runtime_errorC1ERKS_) for std::runtime_error::runtime_error(const std::runtime_error&)
    rwthrowproc_impl.o(i._ZN4__rw20__rw_throw_exceptionEiPc) refers to rwthrowproc_impl.o(i._ZNSt11range_errorC1EPKc) for std::range_error::range_error(const char*)
    rwthrowproc_impl.o(i._ZN4__rw20__rw_throw_exceptionEiPc) refers to rwthrowproc_impl.o(i._ZNSt11range_errorC1ERKS_) for std::range_error::range_error(const std::range_error&)
    rwthrowproc_impl.o(i._ZN4__rw20__rw_throw_exceptionEiPc) refers to rwthrowproc_impl.o(i._ZNSt14overflow_errorC1EPKc) for std::overflow_error::overflow_error(const char*)
    rwthrowproc_impl.o(i._ZN4__rw20__rw_throw_exceptionEiPc) refers to rwthrowproc_impl.o(i._ZNSt14overflow_errorC1ERKS_) for std::overflow_error::overflow_error(const std::overflow_error&)
    rwthrowproc_impl.o(i._ZN4__rw20__rw_throw_exceptionEiPc) refers to rwthrowproc_impl.o(i._ZNSt15underflow_errorC1EPKc) for std::underflow_error::underflow_error(const char*)
    rwthrowproc_impl.o(i._ZN4__rw20__rw_throw_exceptionEiPc) refers to rwthrowproc_impl.o(i._ZNSt15underflow_errorC1ERKS_) for std::underflow_error::underflow_error(const std::underflow_error&)
    rwthrowproc_impl.o(i._ZN4__rw20__rw_throw_exceptionEiPc) refers to rwthrowproc_impl.o(i._ZNSt8ios_base7failureC1EPKc) for std::ios_base::failure::failure(const char*)
    rwthrowproc_impl.o(i._ZN4__rw20__rw_throw_exceptionEiPc) refers to rwthrowproc_impl.o(i._ZNSt8ios_base11failbit_setC1ERKS0_) for std::ios_base::failbit_set::failbit_set(const std::ios_base::failbit_set&)
    rwthrowproc_impl.o(i._ZN4__rw20__rw_throw_exceptionEiPc) refers to rwthrowproc_impl.o(i._ZNSt8ios_base10badbit_setC1ERKS0_) for std::ios_base::badbit_set::badbit_set(const std::ios_base::badbit_set&)
    rwthrowproc_impl.o(i._ZN4__rw20__rw_throw_exceptionEiPc) refers to rwthrowproc_impl.o(i._ZNSt8ios_base10eofbit_setC1ERKS0_) for std::ios_base::eofbit_set::eofbit_set(const std::ios_base::eofbit_set&)
    rwthrowproc_impl.o(i._ZN4__rw20__rw_throw_exceptionEiPc) refers to rwthrowproc_impl.o(i._ZNSt8ios_base7failureC1ERKS0_) for std::ios_base::failure::failure(const std::ios_base::failure&)
    rwthrowproc_impl.o(i._ZN4__rw20__rw_throw_exceptionEiPc) refers to array_del.o(i._ZdaPv) for operator delete[] (void*)
    rwthrowproc_impl.o(i._ZN4__rw20__rw_throw_exceptionEiPc) refers to exception_dtor.o(i._ZNSt9exceptionD1Ev) for std::exception::~exception()
    rwthrowproc_impl.o(i._ZN4__rw20__rw_throw_exceptionEiPc) refers to exception_dtor.o(.constdata__ZTISt9exception) for typeinfo for std::exception
    rwthrowproc_impl.o(i._ZN4__rw20__rw_throw_exceptionEiPc) refers to bad_exception_dtor.o(.constdata__ZTISt13bad_exception) for typeinfo for std::bad_exception
    rwthrowproc_impl.o(i._ZN4__rw20__rw_throw_exceptionEiPc) refers to bad_alloc_dtor.o(.constdata__ZTISt9bad_alloc) for typeinfo for std::bad_alloc
    rwthrowproc_impl.o(i._ZN4__rw20__rw_throw_exceptionEiPc) refers to bad_cast.o(.constdata__ZTISt8bad_cast) for typeinfo for std::bad_cast
    rwthrowproc_impl.o(i._ZN4__rw20__rw_throw_exceptionEiPc) refers to rwthrowproc_impl.o(i._ZNSt11logic_errorD1Ev) for std::logic_error::~logic_error()
    rwthrowproc_impl.o(i._ZN4__rw20__rw_throw_exceptionEiPc) refers to rwthrowproc_impl.o(.constdata__ZTISt11logic_error) for typeinfo for std::logic_error
    rwthrowproc_impl.o(i._ZN4__rw20__rw_throw_exceptionEiPc) refers to rwthrowproc_impl.o(i._ZNSt12domain_errorD1Ev) for std::domain_error::~domain_error()
    rwthrowproc_impl.o(i._ZN4__rw20__rw_throw_exceptionEiPc) refers to rwthrowproc_impl.o(.constdata__ZTISt12domain_error) for typeinfo for std::domain_error
    rwthrowproc_impl.o(i._ZN4__rw20__rw_throw_exceptionEiPc) refers to rwthrowproc_impl.o(i._ZNSt16invalid_argumentD1Ev) for std::invalid_argument::~invalid_argument()
    rwthrowproc_impl.o(i._ZN4__rw20__rw_throw_exceptionEiPc) refers to rwthrowproc_impl.o(.constdata__ZTISt16invalid_argument) for typeinfo for std::invalid_argument
    rwthrowproc_impl.o(i._ZN4__rw20__rw_throw_exceptionEiPc) refers to rwthrowproc_impl.o(i._ZNSt12length_errorD1Ev) for std::length_error::~length_error()
    rwthrowproc_impl.o(i._ZN4__rw20__rw_throw_exceptionEiPc) refers to rwthrowproc_impl.o(.constdata__ZTISt12length_error) for typeinfo for std::length_error
    rwthrowproc_impl.o(i._ZN4__rw20__rw_throw_exceptionEiPc) refers to rwthrowproc_impl.o(i._ZNSt12out_of_rangeD1Ev) for std::out_of_range::~out_of_range()
    rwthrowproc_impl.o(i._ZN4__rw20__rw_throw_exceptionEiPc) refers to rwthrowproc_impl.o(.constdata__ZTISt12out_of_range) for typeinfo for std::out_of_range
    rwthrowproc_impl.o(i._ZN4__rw20__rw_throw_exceptionEiPc) refers to rwthrowproc_impl.o(i._ZNSt13runtime_errorD1Ev) for std::runtime_error::~runtime_error()
    rwthrowproc_impl.o(i._ZN4__rw20__rw_throw_exceptionEiPc) refers to rwthrowproc_impl.o(.constdata__ZTISt13runtime_error) for typeinfo for std::runtime_error
    rwthrowproc_impl.o(i._ZN4__rw20__rw_throw_exceptionEiPc) refers to rwthrowproc_impl.o(i._ZNSt11range_errorD1Ev) for std::range_error::~range_error()
    rwthrowproc_impl.o(i._ZN4__rw20__rw_throw_exceptionEiPc) refers to rwthrowproc_impl.o(.constdata__ZTISt11range_error) for typeinfo for std::range_error
    rwthrowproc_impl.o(i._ZN4__rw20__rw_throw_exceptionEiPc) refers to rwthrowproc_impl.o(i._ZNSt14overflow_errorD1Ev) for std::overflow_error::~overflow_error()
    rwthrowproc_impl.o(i._ZN4__rw20__rw_throw_exceptionEiPc) refers to rwthrowproc_impl.o(.constdata__ZTISt14overflow_error) for typeinfo for std::overflow_error
    rwthrowproc_impl.o(i._ZN4__rw20__rw_throw_exceptionEiPc) refers to rwthrowproc_impl.o(i._ZNSt15underflow_errorD1Ev) for std::underflow_error::~underflow_error()
    rwthrowproc_impl.o(i._ZN4__rw20__rw_throw_exceptionEiPc) refers to rwthrowproc_impl.o(.constdata__ZTISt15underflow_error) for typeinfo for std::underflow_error
    rwthrowproc_impl.o(i._ZN4__rw20__rw_throw_exceptionEiPc) refers to rwthrowproc_impl.o(.constdata__ZTVNSt8ios_base11failbit_setE) for vtable for std::ios_base::failbit_set
    rwthrowproc_impl.o(i._ZN4__rw20__rw_throw_exceptionEiPc) refers to rwthrowproc_impl.o(i._ZNSt8ios_base11failbit_setD1Ev) for std::ios_base::failbit_set::~failbit_set()
    rwthrowproc_impl.o(i._ZN4__rw20__rw_throw_exceptionEiPc) refers to rwthrowproc_impl.o(.constdata__ZTINSt8ios_base11failbit_setE) for typeinfo for std::ios_base::failbit_set
    rwthrowproc_impl.o(i._ZN4__rw20__rw_throw_exceptionEiPc) refers to rwthrowproc_impl.o(.constdata__ZTVNSt8ios_base10badbit_setE) for vtable for std::ios_base::badbit_set
    rwthrowproc_impl.o(i._ZN4__rw20__rw_throw_exceptionEiPc) refers to rwthrowproc_impl.o(i._ZNSt8ios_base10badbit_setD1Ev) for std::ios_base::badbit_set::~badbit_set()
    rwthrowproc_impl.o(i._ZN4__rw20__rw_throw_exceptionEiPc) refers to rwthrowproc_impl.o(.constdata__ZTINSt8ios_base10badbit_setE) for typeinfo for std::ios_base::badbit_set
    rwthrowproc_impl.o(i._ZN4__rw20__rw_throw_exceptionEiPc) refers to rwthrowproc_impl.o(.constdata__ZTVNSt8ios_base10eofbit_setE) for vtable for std::ios_base::eofbit_set
    rwthrowproc_impl.o(i._ZN4__rw20__rw_throw_exceptionEiPc) refers to rwthrowproc_impl.o(i._ZNSt8ios_base10eofbit_setD1Ev) for std::ios_base::eofbit_set::~eofbit_set()
    rwthrowproc_impl.o(i._ZN4__rw20__rw_throw_exceptionEiPc) refers to rwthrowproc_impl.o(.constdata__ZTINSt8ios_base10eofbit_setE) for typeinfo for std::ios_base::eofbit_set
    rwthrowproc_impl.o(i._ZN4__rw20__rw_throw_exceptionEiPc) refers to rwthrowproc_impl.o(i._ZNSt8ios_base7failureD1Ev) for std::ios_base::failure::~failure()
    rwthrowproc_impl.o(i._ZN4__rw20__rw_throw_exceptionEiPc) refers to rwthrowproc_impl.o(.constdata__ZTINSt8ios_base7failureE) for typeinfo for std::ios_base::failure
    rwthrowproc_impl.o(i._ZN4__rw20__rw_throw_exceptionEiPc.clean) refers to rwthrowproc_impl.o(i._ZNSt11logic_errorD1Ev) for std::logic_error::~logic_error()
    rwthrowproc_impl.o(i._ZN4__rw20__rw_throw_exceptionEiPc.clean) refers to rwthrowproc_impl.o(i._ZNSt12domain_errorD1Ev) for std::domain_error::~domain_error()
    rwthrowproc_impl.o(i._ZN4__rw20__rw_throw_exceptionEiPc.clean) refers to rwthrowproc_impl.o(i._ZNSt16invalid_argumentD1Ev) for std::invalid_argument::~invalid_argument()
    rwthrowproc_impl.o(i._ZN4__rw20__rw_throw_exceptionEiPc.clean) refers to rwthrowproc_impl.o(i._ZNSt12length_errorD1Ev) for std::length_error::~length_error()
    rwthrowproc_impl.o(i._ZN4__rw20__rw_throw_exceptionEiPc.clean) refers to rwthrowproc_impl.o(i._ZNSt12out_of_rangeD1Ev) for std::out_of_range::~out_of_range()
    rwthrowproc_impl.o(i._ZN4__rw20__rw_throw_exceptionEiPc.clean) refers to rwthrowproc_impl.o(i._ZNSt11range_errorD1Ev) for std::range_error::~range_error()
    rwthrowproc_impl.o(i._ZN4__rw20__rw_throw_exceptionEiPc.clean) refers to rwthrowproc_impl.o(i._ZNSt14overflow_errorD1Ev) for std::overflow_error::~overflow_error()
    rwthrowproc_impl.o(i._ZN4__rw20__rw_throw_exceptionEiPc.clean) refers to rwthrowproc_impl.o(i._ZNSt15underflow_errorD1Ev) for std::underflow_error::~underflow_error()
    rwthrowproc_impl.o(i._ZN4__rw20__rw_throw_exceptionEiPc.clean) refers to rwthrowproc_impl.o(i._ZNSt8ios_base11failbit_setD1Ev) for std::ios_base::failbit_set::~failbit_set()
    rwthrowproc_impl.o(i._ZN4__rw20__rw_throw_exceptionEiPc.clean) refers to rwthrowproc_impl.o(i._ZNSt8ios_base10badbit_setD1Ev) for std::ios_base::badbit_set::~badbit_set()
    rwthrowproc_impl.o(i._ZN4__rw20__rw_throw_exceptionEiPc.clean) refers to rwthrowproc_impl.o(i._ZNSt8ios_base10eofbit_setD1Ev) for std::ios_base::eofbit_set::~eofbit_set()
    rwthrowproc_impl.o(i._ZN4__rw20__rw_throw_exceptionEiPc.clean) refers to rwthrowproc_impl.o(i._ZNSt8ios_base7failureD1Ev) for std::ios_base::failure::~failure()
    rwthrowproc_impl.o(i._ZN4__rw20__rw_throw_exceptionEiPc.clean) refers to rwthrowproc_impl.o(i._ZNSt13runtime_errorD1Ev) for std::runtime_error::~runtime_error()
    rwthrowproc_impl.o(i._ZN4__rw20__rw_throw_exceptionEiPc.clean) refers to arm_exceptions_cleanup.o(.emb_text) for __cxa_end_cleanup
    rwthrowproc_impl.o(.ARM.exidx) refers to rwthrowproc_impl.o(i._ZN4__rw20__rw_throw_exceptionEiPc) for i._ZN4__rw20__rw_throw_exceptionEiPc
    rwthrowproc_impl.o(.ARM.exidx) refers to unwind_pr0.o(.text) for __aeabi_unwind_cpp_pr0
    rwthrowproc_impl.o(.ARM.exidx) refers to rwthrowproc_impl.o(.ARM.extab) for .extab._ZN4__rw20__rw_throw_exceptionEiPc
    rwthrowproc_impl.o(.ARM.exidx) refers to rwthrowproc_impl.o(i._ZN4__rw20__rw_throw_exceptionEiPc.clean) for i._ZN4__rw20__rw_throw_exceptionEiPc.clean
    rwthrowproc_impl.o(.ARM.extab) refers to rwthrowproc_impl.o(i._ZN4__rw20__rw_throw_exceptionEiPc.clean) for i._ZN4__rw20__rw_throw_exceptionEiPc.clean
    rtti.o(i._ZN27_INTERNAL_6_rtti_c_066a44b012tbc_downcastEPvPKSt9type_infoP28a_base_class_traversal_blockPN10__cxxabiv122__base_class_type_infoE) refers to type_info_eq.o(i._ZNKSt9type_infoeqERKS_) for std::type_info::operator ==(const std::type_info&) const
    rtti.o(i._ZN27_INTERNAL_6_rtti_c_066a44b017tbc_post_downcastEPvPKSt9type_infoP28a_base_class_traversal_blockPN10__cxxabiv122__base_class_type_infoE) refers to type_info_eq.o(i._ZNKSt9type_infoeqERKS_) for std::type_info::operator ==(const std::type_info&) const
    rtti.o(i._ZN27_INTERNAL_6_rtti_c_066a44b021traverse_base_classesEPvPKSt9type_infoP28a_base_class_traversal_blockPN10__cxxabiv122__base_class_type_infoE) refers to arm_exceptions_throw.o(i.__ARM_common_get_typeid) for __ARM_common_get_typeid
    rtti.o(i._ZN27_INTERNAL_6_rtti_c_066a44b021traverse_base_classesEPvPKSt9type_infoP28a_base_class_traversal_blockPN10__cxxabiv122__base_class_type_infoE) refers to type_info_eq.o(i._ZNKSt9type_infoeqERKS_) for std::type_info::operator ==(const std::type_info&) const
    rtti.o(i._ZN27_INTERNAL_6_rtti_c_066a44b021traverse_base_classesEPvPKSt9type_infoP28a_base_class_traversal_blockPN10__cxxabiv122__base_class_type_infoE) refers to rtti.o(i._ZN27_INTERNAL_6_rtti_c_066a44b024get_virtual_base_pointerEPvPN10__cxxabiv122__base_class_type_infoE) for [local to rtti_c]::get_virtual_base_pointer(void*, __cxxabiv1::__base_class_type_info*)
    rtti.o(i._ZN27_INTERNAL_6_rtti_c_066a44b021traverse_base_classesEPvPKSt9type_infoP28a_base_class_traversal_blockPN10__cxxabiv122__base_class_type_infoE) refers to lib_rtti_impl.o(.constdata__ZTIN10__cxxabiv120__si_class_type_infoE) for typeinfo for __cxxabiv1::__si_class_type_info
    rtti.o(i._ZN27_INTERNAL_6_rtti_c_066a44b021traverse_base_classesEPvPKSt9type_infoP28a_base_class_traversal_blockPN10__cxxabiv122__base_class_type_infoE) refers to lib_rtti_impl.o(.constdata__ZTIN10__cxxabiv121__vmi_class_type_infoE) for typeinfo for __cxxabiv1::__vmi_class_type_info
    rtti.o(i._ZN27_INTERNAL_6_rtti_c_066a44b023find_base_class_at_addrEPvS0_PKSt9type_infoS3_Pi) refers to arm_exceptions_throw.o(i.__ARM_common_get_typeid) for __ARM_common_get_typeid
    rtti.o(i._ZN27_INTERNAL_6_rtti_c_066a44b023find_base_class_at_addrEPvS0_PKSt9type_infoS3_Pi) refers to type_info_eq.o(i._ZNKSt9type_infoeqERKS_) for std::type_info::operator ==(const std::type_info&) const
    rtti.o(i._ZN27_INTERNAL_6_rtti_c_066a44b023find_base_class_at_addrEPvS0_PKSt9type_infoS3_Pi) refers to rtti.o(i._ZN27_INTERNAL_6_rtti_c_066a44b024get_virtual_base_pointerEPvPN10__cxxabiv122__base_class_type_infoE) for [local to rtti_c]::get_virtual_base_pointer(void*, __cxxabiv1::__base_class_type_info*)
    rtti.o(i._ZN27_INTERNAL_6_rtti_c_066a44b023find_base_class_at_addrEPvS0_PKSt9type_infoS3_Pi) refers to lib_rtti_impl.o(.constdata__ZTIN10__cxxabiv120__si_class_type_infoE) for typeinfo for __cxxabiv1::__si_class_type_info
    rtti.o(i._ZN27_INTERNAL_6_rtti_c_066a44b023find_base_class_at_addrEPvS0_PKSt9type_infoS3_Pi) refers to lib_rtti_impl.o(.constdata__ZTIN10__cxxabiv121__vmi_class_type_infoE) for typeinfo for __cxxabiv1::__vmi_class_type_info
    rtti.o(i._ZN27_INTERNAL_6_rtti_c_066a44b028derived_to_base_conversion_rEPvPS0_PKSt9type_infoS4_jPiiPS4_P19a_result_virtualityS5_) refers to arm_exceptions_throw.o(i.__ARM_common_get_typeid) for __ARM_common_get_typeid
    rtti.o(i._ZN27_INTERNAL_6_rtti_c_066a44b028derived_to_base_conversion_rEPvPS0_PKSt9type_infoS4_jPiiPS4_P19a_result_virtualityS5_) refers to type_info_eq.o(i._ZNKSt9type_infoeqERKS_) for std::type_info::operator ==(const std::type_info&) const
    rtti.o(i._ZN27_INTERNAL_6_rtti_c_066a44b028derived_to_base_conversion_rEPvPS0_PKSt9type_infoS4_jPiiPS4_P19a_result_virtualityS5_) refers to rtti.o(i._ZN27_INTERNAL_6_rtti_c_066a44b024get_virtual_base_pointerEPvPN10__cxxabiv122__base_class_type_infoE) for [local to rtti_c]::get_virtual_base_pointer(void*, __cxxabiv1::__base_class_type_info*)
    rtti.o(i._ZN27_INTERNAL_6_rtti_c_066a44b028derived_to_base_conversion_rEPvPS0_PKSt9type_infoS4_jPiiPS4_P19a_result_virtualityS5_) refers to lib_rtti_impl.o(.constdata__ZTIN10__cxxabiv120__si_class_type_infoE) for typeinfo for __cxxabiv1::__si_class_type_info
    rtti.o(i._ZN27_INTERNAL_6_rtti_c_066a44b028derived_to_base_conversion_rEPvPS0_PKSt9type_infoS4_jPiiPS4_P19a_result_virtualityS5_) refers to lib_rtti_impl.o(.constdata__ZTIN10__cxxabiv121__vmi_class_type_infoE) for typeinfo for __cxxabiv1::__vmi_class_type_info
    rtti.o(i.__derived_to_base_conversion) refers to arm_exceptions_throw.o(i.__ARM_common_get_typeid) for __ARM_common_get_typeid
    rtti.o(i.__derived_to_base_conversion) refers to type_info_eq.o(i._ZNKSt9type_infoeqERKS_) for std::type_info::operator ==(const std::type_info&) const
    rtti.o(i.__derived_to_base_conversion) refers to rtti.o(i._ZN27_INTERNAL_6_rtti_c_066a44b028derived_to_base_conversion_rEPvPS0_PKSt9type_infoS4_jPiiPS4_P19a_result_virtualityS5_) for [local to rtti_c]::derived_to_base_conversion_r(void*, void**, const std::type_info*, const std::type_info*, unsigned, int*, int, const std::type_info**, a_result_virtuality*, int*)
    rtti.o(i.__derived_to_base_conversion) refers to lib_rtti_impl.o(.constdata__ZTIN10__cxxabiv121__vmi_class_type_infoE) for typeinfo for __cxxabiv1::__vmi_class_type_info
    rtti.o(i.__dynamic_cast) refers to rtti.o(i._ZN27_INTERNAL_6_rtti_c_066a44b021traverse_base_classesEPvPKSt9type_infoP28a_base_class_traversal_blockPN10__cxxabiv122__base_class_type_infoE) for [local to rtti_c]::traverse_base_classes(void*, const std::type_info*, a_base_class_traversal_block*, __cxxabiv1::__base_class_type_info*)
    rtti.o(i.__dynamic_cast) refers to rtti.o(i._ZN27_INTERNAL_6_rtti_c_066a44b023find_base_class_at_addrEPvS0_PKSt9type_infoS3_Pi) for [local to rtti_c]::find_base_class_at_addr(void*, void*, const std::type_info*, const std::type_info*, int*)
    rtti.o(i.__dynamic_cast) refers to type_info_eq.o(i._ZNKSt9type_infoeqERKS_) for std::type_info::operator ==(const std::type_info&) const
    rtti.o(i.__dynamic_cast) refers to rtti.o(i.__derived_to_base_conversion) for __derived_to_base_conversion
    rtti.o(i.__dynamic_cast) refers to rtti.o(i._ZN27_INTERNAL_6_rtti_c_066a44b012tbc_downcastEPvPKSt9type_infoP28a_base_class_traversal_blockPN10__cxxabiv122__base_class_type_infoE) for [local to rtti_c]::tbc_downcast(void*, const std::type_info*, a_base_class_traversal_block*, __cxxabiv1::__base_class_type_info*)
    rtti.o(i.__dynamic_cast) refers to rtti.o(i._ZN27_INTERNAL_6_rtti_c_066a44b017tbc_post_downcastEPvPKSt9type_infoP28a_base_class_traversal_blockPN10__cxxabiv122__base_class_type_infoE) for [local to rtti_c]::tbc_post_downcast(void*, const std::type_info*, a_base_class_traversal_block*, __cxxabiv1::__base_class_type_info*)
    rtti.o(.ARM.exidx) refers to rtti.o(i._ZN27_INTERNAL_6_rtti_c_066a44b021traverse_base_classesEPvPKSt9type_infoP28a_base_class_traversal_blockPN10__cxxabiv122__base_class_type_infoE) for i._ZN27_INTERNAL_6_rtti_c_066a44b021traverse_base_classesEPvPKSt9type_infoP28a_base_class_traversal_blockPN10__cxxabiv122__base_class_type_infoE
    rtti.o(.ARM.exidx) refers to unwind_pr0.o(.text) for __aeabi_unwind_cpp_pr0
    rtti.o(.ARM.exidx) refers to rtti.o(i._ZN27_INTERNAL_6_rtti_c_066a44b028derived_to_base_conversion_rEPvPS0_PKSt9type_infoS4_jPiiPS4_P19a_result_virtualityS5_) for i._ZN27_INTERNAL_6_rtti_c_066a44b028derived_to_base_conversion_rEPvPS0_PKSt9type_infoS4_jPiiPS4_P19a_result_virtualityS5_
    rtti.o(.ARM.exidx) refers to unwind_pr0.o(.text) for __aeabi_unwind_cpp_pr0
    rtti.o(.ARM.exidx) refers to rtti.o(i.__derived_to_base_conversion) for i.__derived_to_base_conversion
    rtti.o(.ARM.exidx) refers to unwind_pr0.o(.text) for __aeabi_unwind_cpp_pr0
    rtti.o(.ARM.exidx) refers to rtti.o(i._ZN27_INTERNAL_6_rtti_c_066a44b023find_base_class_at_addrEPvS0_PKSt9type_infoS3_Pi) for i._ZN27_INTERNAL_6_rtti_c_066a44b023find_base_class_at_addrEPvS0_PKSt9type_infoS3_Pi
    rtti.o(.ARM.exidx) refers to unwind_pr0.o(.text) for __aeabi_unwind_cpp_pr0
    rtti.o(.ARM.exidx) refers to rtti.o(i._ZN27_INTERNAL_6_rtti_c_066a44b012tbc_downcastEPvPKSt9type_infoP28a_base_class_traversal_blockPN10__cxxabiv122__base_class_type_infoE) for i._ZN27_INTERNAL_6_rtti_c_066a44b012tbc_downcastEPvPKSt9type_infoP28a_base_class_traversal_blockPN10__cxxabiv122__base_class_type_infoE
    rtti.o(.ARM.exidx) refers to unwind_pr0.o(.text) for __aeabi_unwind_cpp_pr0
    rtti.o(.ARM.exidx) refers to rtti.o(i._ZN27_INTERNAL_6_rtti_c_066a44b017tbc_post_downcastEPvPKSt9type_infoP28a_base_class_traversal_blockPN10__cxxabiv122__base_class_type_infoE) for i._ZN27_INTERNAL_6_rtti_c_066a44b017tbc_post_downcastEPvPKSt9type_infoP28a_base_class_traversal_blockPN10__cxxabiv122__base_class_type_infoE
    rtti.o(.ARM.exidx) refers to unwind_pr0.o(.text) for __aeabi_unwind_cpp_pr0
    rtti.o(.ARM.exidx) refers to rtti.o(i.__dynamic_cast) for i.__dynamic_cast
    rtti.o(.ARM.exidx) refers to unwind_pr0.o(.text) for __aeabi_unwind_cpp_pr0
    rtti.o(.ARM.exidx) refers to rtti.o(i._ZN27_INTERNAL_6_rtti_c_066a44b024get_virtual_base_pointerEPvPN10__cxxabiv122__base_class_type_infoE) for i._ZN27_INTERNAL_6_rtti_c_066a44b024get_virtual_base_pointerEPvPN10__cxxabiv122__base_class_type_infoE
    bad_alloc_cctor.o(i._ZNSt9bad_allocC1ERKS_) refers to exception_cctor.o(i._ZNSt9exceptionC1ERKS_) for std::exception::exception(const std::exception&)
    bad_alloc_cctor.o(i._ZNSt9bad_allocC1ERKS_) refers to bad_alloc_dtor.o(.constdata__ZTVSt9bad_alloc) for vtable for std::bad_alloc
    bad_alloc_cctor.o(.ARM.exidx) refers to bad_alloc_cctor.o(i._ZNSt9bad_allocC1ERKS_) for i._ZNSt9bad_allocC1ERKS_
    bad_alloc_ctor.o(i._ZNSt9bad_allocC1Ev) refers to exception_ctor.o(i._ZNSt9exceptionC1Ev) for std::exception::exception()
    bad_alloc_ctor.o(i._ZNSt9bad_allocC1Ev) refers to bad_alloc_dtor.o(.constdata__ZTVSt9bad_alloc) for vtable for std::bad_alloc
    bad_alloc_ctor.o(.ARM.exidx) refers to bad_alloc_ctor.o(i._ZNSt9bad_allocC1Ev) for i._ZNSt9bad_allocC1Ev
    bad_alloc_what.o(.ARM.exidx) refers to bad_alloc_what.o(i._ZNKSt9bad_alloc4whatEv) for i._ZNKSt9bad_alloc4whatEv
    bad_exception_what.o(.ARM.exidx) refers to bad_exception_what.o(i._ZNKSt13bad_exception4whatEv) for i._ZNKSt13bad_exception4whatEv
    cxa_vec_new.o(i.__cxa_vec_new) refers to array_new_general.o(i.__ARM_array_new_general) for __ARM_array_new_general
    cxa_vec_new.o(i.__cxa_vec_new) refers to array_del.o(i._ZdaPv) for operator delete[] (void*)
    cxa_vec_new.o(.ARM.exidx) refers to cxa_vec_new.o(i.__cxa_vec_new) for i.__cxa_vec_new
    cxa_vec_new.o(.ARM.exidx) refers to unwind_pr0.o(.text) for __aeabi_unwind_cpp_pr0
    exception_cctor.o(i._ZNSt9exceptionC1ERKS_) refers to exception_dtor.o(.constdata__ZTVSt9exception) for vtable for std::exception
    exception_cctor.o(.ARM.exidx) refers to exception_cctor.o(i._ZNSt9exceptionC1ERKS_) for i._ZNSt9exceptionC1ERKS_
    exception_what.o(.ARM.exidx) refers to exception_what.o(i._ZNKSt9exception4whatEv) for i._ZNKSt9exception4whatEv
    type_info_name.o(.ARM.exidx) refers to type_info_name.o(i._ZNKSt9type_info4nameEv) for i._ZNKSt9type_info4nameEv
    type_info_ne.o(.ARM.exidx) refers to type_info_ne.o(i._ZNKSt9type_infoneERKS_) for i._ZNKSt9type_infoneERKS_
    aeabi_vec_dtor.o(i.__aeabi_vec_dtor) refers to arm_exceptions_begincatch.o(.text) for __cxa_begin_catch
    aeabi_vec_dtor.o(i.__aeabi_vec_dtor) refers to ARM_vec_cleanup_rethrow.o(i.__ARM_vec_cleanup_rethrow) for __ARM_vec_cleanup_rethrow
    aeabi_vec_dtor.o(i.__aeabi_vec_dtor) refers to arm_exceptions_endcatch.o(.text) for __cxa_end_catch
    aeabi_vec_dtor.o(i.__aeabi_vec_dtor.clean) refers to arm_exceptions_endcatch.o(.text) for __cxa_end_catch
    aeabi_vec_dtor.o(i.__aeabi_vec_dtor.clean) refers to arm_exceptions_cleanup.o(.emb_text) for __cxa_end_cleanup
    aeabi_vec_dtor.o(.ARM.exidx) refers to aeabi_vec_dtor.o(i.__aeabi_vec_dtor) for i.__aeabi_vec_dtor
    aeabi_vec_dtor.o(.ARM.exidx) refers to unwind_pr0.o(.text) for __aeabi_unwind_cpp_pr0
    aeabi_vec_dtor.o(.ARM.exidx) refers to aeabi_vec_dtor.o(.ARM.extab) for .extab.__aeabi_vec_dtor
    aeabi_vec_dtor.o(.ARM.exidx) refers to aeabi_vec_dtor.o(i.__aeabi_vec_dtor.clean) for i.__aeabi_vec_dtor.clean
    aeabi_vec_dtor.o(.ARM.extab) refers to aeabi_vec_dtor.o(i.__aeabi_vec_dtor) for i.__aeabi_vec_dtor
    aeabi_vec_dtor.o(.ARM.extab) refers to aeabi_vec_dtor.o(i.__aeabi_vec_dtor.clean) for i.__aeabi_vec_dtor.clean
    arm_exceptions_mem.o(.text) refers to h1_alloc.o(.text) for malloc
    arm_exceptions_mem.o(.ARM.exidx) refers to arm_exceptions_mem.o(.text) for .text
    arm_exceptions_bad_typeid.o(.text) refers to bad_typeid.o(i._ZNSt10bad_typeidC1Ev) for std::bad_typeid::bad_typeid()
    arm_exceptions_bad_typeid.o(.text) refers to arm_exceptions_alloc.o(.text) for __cxa_allocate_exception
    arm_exceptions_bad_typeid.o(.text) refers to bad_typeid.o(i._ZNSt10bad_typeidC1ERKS_) for std::bad_typeid::bad_typeid(const std::bad_typeid&)
    arm_exceptions_bad_typeid.o(.text) refers to bad_typeid.o(i._ZNSt10bad_typeidD1Ev) for std::bad_typeid::~bad_typeid()
    arm_exceptions_bad_typeid.o(.text) refers to arm_exceptions_throw.o(.text) for __cxa_throw
    arm_exceptions_bad_typeid.o(.text) refers to bad_typeid.o(.constdata__ZTISt10bad_typeid) for typeinfo for std::bad_typeid
    arm_exceptions_bad_typeid.o(.ARM.exidx) refers to arm_exceptions_bad_typeid.o(.text) for .text
    arm_exceptions_bad_typeid.o(.ARM.exidx) refers to unwind_pr0.o(.text) for __aeabi_unwind_cpp_pr0
    unwinder.o(.emb_text) refers to unwinder.o(.text) for __ARM_Unwind_RaiseException
    unwinder.o(.text) refers to bsearch.o(.text) for bsearch
    unwinder.o(.text) refers to unwind_activity.o(.emb_text) for _Unwind_Activity
    unwinder.o(.text) refers to abort.o(.text) for abort
    unwinder.o(.text) refers to unwinder.o(.emb_text) for __ARM_Unwind_VRS_corerestore
    unwinder.o(.text) refers to h1_alloc.o(.text) for malloc
    unwinder.o(.text) refers to rt_memcpy_w.o(.text) for __aeabi_memcpy4
    unwinder.o(.text) refers to h1_free.o(.text) for free
    unwinder.o(.text) refers (Weak) to unwind_pr0.o(.text) for __aeabi_unwind_cpp_pr0
    unwinder.o(.text) refers (Weak) to unwind_pr1.o(.text) for __aeabi_unwind_cpp_pr1
    unwinder.o(.ARM.exidx) refers to unwinder.o(.text) for .text
    dcmpi.o(x$fpl$dcmpinf) refers (Special) to usenofp.o(x$fpl$usenofp) for __I$use$fp
    dnaninf.o(x$fpl$dnaninf) refers (Special) to usenofp.o(x$fpl$usenofp) for __I$use$fp
    scanf1.o(x$fpl$scanf1) refers to scanf_fp.o(.text) for _scanf_really_real
    sys_command.o(.text) refers (Special) to use_no_semi.o(.text) for __I$use$semihosting
    sys_command.o(.text) refers (Special) to indicate_semi.o(.text) for __semihosting_library_function
    rtexit.o(.ARM.Collect$$rtexit$$00000000) refers (Special) to rtexit2.o(.ARM.Collect$$rtexit$$00000004) for __rt_exit_exit
    rtexit.o(.ARM.Collect$$rtexit$$00000000) refers (Special) to rtexit2.o(.ARM.Collect$$rtexit$$00000003) for __rt_exit_ls
    rtexit.o(.ARM.Collect$$rtexit$$00000000) refers (Special) to rtexit2.o(.ARM.Collect$$rtexit$$00000002) for __rt_exit_prels_1
    rtexit.o(.ARM.exidx) refers (Special) to rtexit2.o(.ARM.Collect$$rtexit$$00000004) for __rt_exit_exit
    rtexit.o(.ARM.exidx) refers (Special) to rtexit2.o(.ARM.Collect$$rtexit$$00000003) for __rt_exit_ls
    rtexit.o(.ARM.exidx) refers (Special) to rtexit2.o(.ARM.Collect$$rtexit$$00000002) for __rt_exit_prels_1
    rtexit.o(.ARM.exidx) refers to rtexit.o(.ARM.Collect$$rtexit$$00000000) for .ARM.Collect$$rtexit$$00000000
    rt_raise.o(.text) refers to __raise.o(.text) for __raise
    rt_raise.o(.text) refers to retarget.o(.text) for _sys_exit
    maybetermalloc2.o(.emb_text) refers (Special) to term_alloc.o(.text) for _terminate_alloc
    h1_extend.o(.text) refers to h1_free.o(.text) for free
    h1_extend_mt.o(.text) refers to h1_free_mt.o(.text) for _free_internal
    isspace.o(.text) refers to rt_ctype_table.o(.text) for __rt_ctype_table
    _printf_fp_infnan.o(.text) refers (Weak) to _printf_pad.o(.text) for _printf_pre_padding
    _printf_fp_infnan.o(.text) refers (Weak) to _printf_pad.o(.text) for _printf_post_padding
    _scanf.o(.text) refers (Weak) to scanf1.o(x$fpl$scanf1) for _scanf_real
    _scanf.o(.text) refers (Weak) to _scanf_longlong.o(.text) for _scanf_longlong
    _scanf.o(.text) refers (Weak) to _scanf_int.o(.text) for _scanf_int
    _scanf.o(.text) refers (Weak) to _scanf_wstr.o(.text) for _scanf_wstring
    _scanf.o(.text) refers (Weak) to _scanf_mbtowc.o(.text) for _scanf_mbtowc
    _scanf.o(.text) refers (Weak) to _scanf_str.o(.text) for _scanf_string
    _scanf.o(.text) refers (Weak) to _scanf_wctomb.o(.text) for _scanf_wctomb
    scanf_fp.o(.text) refers (Special) to usenofp.o(x$fpl$usenofp) for __I$use$fp
    scanf_fp.o(.text) refers (Special) to lc_numeric_c.o(locale$$code) for _get_lc_numeric
    scanf_fp.o(.text) refers to rt_errno_addr_intlibspace.o(.text) for __aeabi_errno_addr
    scanf_fp.o(.text) refers to bigflt0.o(.text) for _btod_etento
    scanf_fp.o(.text) refers to btod.o(CL$$btod_emuld) for _btod_emuld
    scanf_fp.o(.text) refers to btod.o(CL$$btod_edivd) for _btod_edivd
    scanf_fp.o(.text) refers to rt_locale_intlibspace.o(.text) for __rt_locale
    scanf_fp.o(.text) refers to scanf2.o(x$fpl$scanf2) for _scanf_infnan
    scanf_fp.o(.text) refers to __printf_wp.o(i._is_digit) for _is_digit
    scanf_fp.o(.text) refers to narrow.o(i.__mathlib_narrow) for __mathlib_narrow
    scanf_fp.o(.text) refers to fpconst.o(c$$dinf) for __huge_val
    _strtoull.o(.text) refers to _chval.o(.text) for _chval
    _strtoull.o(.text) refers to rt_errno_addr_intlibspace.o(.text) for __aeabi_errno_addr
    bigflt0.o(.text) refers (Special) to usenofp.o(x$fpl$usenofp) for __I$use$fp
    bigflt0.o(.text) refers to btod.o(CL$$btod_emul) for _btod_emul
    bigflt0.o(.text) refers to btod.o(CL$$btod_ediv) for _btod_ediv
    bigflt0.o(.text) refers to bigflt0.o(.constdata) for .constdata
    bigflt0.o(.constdata) refers (Special) to usenofp.o(x$fpl$usenofp) for __I$use$fp
    btod.o(CL$$btod_d2e) refers (Special) to usenofp.o(x$fpl$usenofp) for __I$use$fp
    btod.o(CL$$btod_d2e) refers to btod.o(CL$$btod_d2e_norm_op1) for _d2e_norm_op1
    btod.o(CL$$btod_d2e_norm_op1) refers (Special) to usenofp.o(x$fpl$usenofp) for __I$use$fp
    btod.o(CL$$btod_d2e_norm_op1) refers to btod.o(CL$$btod_d2e_denorm_low) for _d2e_denorm_low
    btod.o(CL$$btod_d2e_denorm_low) refers (Special) to usenofp.o(x$fpl$usenofp) for __I$use$fp
    btod.o(CL$$btod_emul) refers (Special) to usenofp.o(x$fpl$usenofp) for __I$use$fp
    btod.o(CL$$btod_emul) refers to btod.o(CL$$btod_mult_common) for __btod_mult_common
    btod.o(CL$$btod_emul) refers to btod.o(CL$$btod_e2e) for _e2e
    btod.o(CL$$btod_ediv) refers (Special) to usenofp.o(x$fpl$usenofp) for __I$use$fp
    btod.o(CL$$btod_ediv) refers to btod.o(CL$$btod_div_common) for __btod_div_common
    btod.o(CL$$btod_ediv) refers to btod.o(CL$$btod_e2e) for _e2e
    btod.o(CL$$btod_emuld) refers (Special) to usenofp.o(x$fpl$usenofp) for __I$use$fp
    btod.o(CL$$btod_emuld) refers to btod.o(CL$$btod_mult_common) for __btod_mult_common
    btod.o(CL$$btod_emuld) refers to btod.o(CL$$btod_e2d) for _e2d
    btod.o(CL$$btod_edivd) refers (Special) to usenofp.o(x$fpl$usenofp) for __I$use$fp
    btod.o(CL$$btod_edivd) refers to btod.o(CL$$btod_div_common) for __btod_div_common
    btod.o(CL$$btod_edivd) refers to btod.o(CL$$btod_e2d) for _e2d
    btod.o(CL$$btod_e2e) refers (Special) to usenofp.o(x$fpl$usenofp) for __I$use$fp
    btod.o(CL$$btod_e2d) refers (Special) to usenofp.o(x$fpl$usenofp) for __I$use$fp
    btod.o(CL$$btod_e2d) refers to btod.o(CL$$btod_e2e) for _e2e
    btod.o(CL$$btod_mult_common) refers (Special) to usenofp.o(x$fpl$usenofp) for __I$use$fp
    btod.o(CL$$btod_div_common) refers (Special) to usenofp.o(x$fpl$usenofp) for __I$use$fp
    lc_monetary_c.o(locale$$data) refers (Special) to libinit2.o(.ARM.Collect$$libinit$$00000014) for __rt_lib_init_lc_monetary_2
    lc_monetary_c.o(locale$$code) refers (Special) to libinit2.o(.ARM.Collect$$libinit$$00000014) for __rt_lib_init_lc_monetary_2
    lc_monetary_c.o(locale$$code) refers to strcmpv7m.o(.text) for strcmp
    lc_monetary_c.o(locale$$code) refers to lc_monetary_c.o(locale$$data) for __lcmon_c_name
    lc_numeric_c.o(locale$$data) refers (Special) to libinit2.o(.ARM.Collect$$libinit$$00000016) for __rt_lib_init_lc_numeric_2
    lc_numeric_c.o(locale$$code) refers (Special) to libinit2.o(.ARM.Collect$$libinit$$00000016) for __rt_lib_init_lc_numeric_2
    lc_numeric_c.o(locale$$code) refers to strcmpv7m.o(.text) for strcmp
    lc_numeric_c.o(locale$$code) refers to lc_numeric_c.o(locale$$data) for __lcnum_c_name
    bsearch.o(.ARM.exidx) refers to bsearch.o(.text) for .text
    bsearch.o(.ARM.exidx) refers to unwind_pr0.o(.text) for __aeabi_unwind_cpp_pr0
    defsig_exit.o(.text) refers to retarget.o(.text) for _sys_exit
    defsig_abrt_inner.o(.text) refers to defsig_general.o(.text) for __default_signal_display
    defsig_rtmem_outer.o(.text) refers to defsig_rtmem_inner.o(.text) for __rt_SIGRTMEM_inner
    defsig_rtmem_outer.o(.text) refers to defsig_exit.o(.text) for __sig_exit
    defsig_rtmem_formal.o(.text) refers to rt_raise.o(.text) for __rt_raise
    heapauxa.o(.text) refers to heapauxa.o(.data) for .data
    _get_argv_nomalloc.o(.text) refers (Special) to hrguard.o(.text) for __heap_region$guard
    _get_argv_nomalloc.o(.text) refers to defsig_rtmem_outer.o(.text) for __rt_SIGRTMEM
    _get_argv_nomalloc.o(.text) refers to sys_command.o(.text) for _sys_command_string
    ARM_vec_cleanup_rethrow.o(i.__ARM_vec_cleanup_rethrow) refers to arm_exceptions_rethrow.o(.text) for __cxa_rethrow
    ARM_vec_cleanup_rethrow.o(i.__ARM_vec_cleanup_rethrow) refers to arm_exceptions_begincatch.o(.text) for __cxa_begin_catch
    ARM_vec_cleanup_rethrow.o(i.__ARM_vec_cleanup_rethrow) refers to arm_exceptions_terminate.o(.text) for std::terminate()
    ARM_vec_cleanup_rethrow.o(i.__ARM_vec_cleanup_rethrow) refers to arm_exceptions_endcatch.o(.text) for __cxa_end_catch
    ARM_vec_cleanup_rethrow.o(i.__ARM_vec_cleanup_rethrow.clean) refers to arm_exceptions_endcatch.o(.text) for __cxa_end_catch
    ARM_vec_cleanup_rethrow.o(i.__ARM_vec_cleanup_rethrow.clean) refers to arm_exceptions_cleanup.o(.emb_text) for __cxa_end_cleanup
    ARM_vec_cleanup_rethrow.o(.ARM.exidx) refers to ARM_vec_cleanup_rethrow.o(i.__ARM_vec_cleanup_rethrow) for i.__ARM_vec_cleanup_rethrow
    ARM_vec_cleanup_rethrow.o(.ARM.exidx) refers to unwind_pr0.o(.text) for __aeabi_unwind_cpp_pr0
    ARM_vec_cleanup_rethrow.o(.ARM.exidx) refers to ARM_vec_cleanup_rethrow.o(.ARM.extab) for .extab.__ARM_vec_cleanup_rethrow
    ARM_vec_cleanup_rethrow.o(.ARM.exidx) refers to ARM_vec_cleanup_rethrow.o(i.__ARM_vec_cleanup_rethrow.clean) for i.__ARM_vec_cleanup_rethrow.clean
    ARM_vec_cleanup_rethrow.o(.ARM.extab) refers to ARM_vec_cleanup_rethrow.o(i.__ARM_vec_cleanup_rethrow) for i.__ARM_vec_cleanup_rethrow
    ARM_vec_cleanup_rethrow.o(.ARM.extab) refers to ARM_vec_cleanup_rethrow.o(i.__ARM_vec_cleanup_rethrow.clean) for i.__ARM_vec_cleanup_rethrow.clean
    array_new_general.o(i.__ARM_array_new_general) refers to array_new.o(i._Znaj) for operator new[] (unsigned)
    array_new_general.o(i.__ARM_array_new_general) refers to arm_exceptions_begincatch.o(.text) for __cxa_begin_catch
    array_new_general.o(i.__ARM_array_new_general) refers to ARM_vec_cleanup.o(i.__ARM_vec_cleanup) for __ARM_vec_cleanup
    array_new_general.o(i.__ARM_array_new_general) refers to arm_exceptions_terminate.o(.text) for std::terminate()
    array_new_general.o(i.__ARM_array_new_general) refers to arm_exceptions_endcatch.o(.text) for __cxa_end_catch
    array_new_general.o(i.__ARM_array_new_general) refers to arm_exceptions_rethrow.o(.text) for __cxa_rethrow
    array_new_general.o(i.__ARM_array_new_general.clean) refers to arm_exceptions_endcatch.o(.text) for __cxa_end_catch
    array_new_general.o(i.__ARM_array_new_general.clean) refers to arm_exceptions_cleanup.o(.emb_text) for __cxa_end_cleanup
    array_new_general.o(.ARM.exidx) refers to array_new_general.o(i.__ARM_array_new_general) for i.__ARM_array_new_general
    array_new_general.o(.ARM.exidx) refers to unwind_pr0.o(.text) for __aeabi_unwind_cpp_pr0
    array_new_general.o(.ARM.exidx) refers to array_new_general.o(.ARM.extab) for .extab.__ARM_array_new_general
    array_new_general.o(.ARM.exidx) refers to array_new_general.o(i.__ARM_array_new_general.clean) for i.__ARM_array_new_general.clean
    array_new_general.o(.ARM.extab) refers to array_new_general.o(i.__ARM_array_new_general) for i.__ARM_array_new_general
    array_new_general.o(.ARM.extab) refers to array_new_general.o(i.__ARM_array_new_general.clean) for i.__ARM_array_new_general.clean
    bad_cast.o(i._ZNSt8bad_castC1ERKS_) refers to exception_cctor.o(i._ZNSt9exceptionC1ERKS_) for std::exception::exception(const std::exception&)
    bad_cast.o(i._ZNSt8bad_castC1ERKS_) refers to bad_cast.o(.constdata__ZTVSt8bad_cast) for vtable for std::bad_cast
    bad_cast.o(i._ZNSt8bad_castC1Ev) refers to exception_ctor.o(i._ZNSt9exceptionC1Ev) for std::exception::exception()
    bad_cast.o(i._ZNSt8bad_castC1Ev) refers to bad_cast.o(.constdata__ZTVSt8bad_cast) for vtable for std::bad_cast
    bad_cast.o(i._ZNSt8bad_castD0Ev) refers to bad_cast.o(i._ZNSt8bad_castD1Ev) for std::bad_cast::~bad_cast()
    bad_cast.o(i._ZNSt8bad_castD0Ev) refers to delete.o(i._ZdlPv) for operator delete (void*)
    bad_cast.o(.ARM.exidx) refers to bad_cast.o(i._ZNSt8bad_castC1Ev) for i._ZNSt8bad_castC1Ev
    bad_cast.o(.ARM.exidx) refers to bad_cast.o(i._ZNSt8bad_castC1ERKS_) for i._ZNSt8bad_castC1ERKS_
    bad_cast.o(.ARM.exidx) refers to bad_cast.o(i._ZNSt8bad_castaSERKS_) for i._ZNSt8bad_castaSERKS_
    bad_cast.o(.ARM.exidx) refers to bad_cast.o(i._ZNSt8bad_castD1Ev) for i._ZNSt8bad_castD1Ev
    bad_cast.o(.ARM.exidx) refers to bad_cast.o(i._ZNSt8bad_castD0Ev) for i._ZNSt8bad_castD0Ev
    bad_cast.o(.ARM.exidx) refers to bad_cast.o(i._ZNKSt8bad_cast4whatEv) for i._ZNKSt8bad_cast4whatEv
    bad_typeid.o(i._ZNSt10bad_typeidC1ERKS_) refers to exception_cctor.o(i._ZNSt9exceptionC1ERKS_) for std::exception::exception(const std::exception&)
    bad_typeid.o(i._ZNSt10bad_typeidC1ERKS_) refers to bad_typeid.o(.constdata__ZTVSt10bad_typeid) for vtable for std::bad_typeid
    bad_typeid.o(i._ZNSt10bad_typeidC1Ev) refers to exception_ctor.o(i._ZNSt9exceptionC1Ev) for std::exception::exception()
    bad_typeid.o(i._ZNSt10bad_typeidC1Ev) refers to bad_typeid.o(.constdata__ZTVSt10bad_typeid) for vtable for std::bad_typeid
    bad_typeid.o(i._ZNSt10bad_typeidD0Ev) refers to bad_typeid.o(i._ZNSt10bad_typeidD1Ev) for std::bad_typeid::~bad_typeid()
    bad_typeid.o(i._ZNSt10bad_typeidD0Ev) refers to delete.o(i._ZdlPv) for operator delete (void*)
    bad_typeid.o(.ARM.exidx) refers to bad_typeid.o(i._ZNSt10bad_typeidC1Ev) for i._ZNSt10bad_typeidC1Ev
    bad_typeid.o(.ARM.exidx) refers to bad_typeid.o(i._ZNSt10bad_typeidC1ERKS_) for i._ZNSt10bad_typeidC1ERKS_
    bad_typeid.o(.ARM.exidx) refers to bad_typeid.o(i._ZNSt10bad_typeidaSERKS_) for i._ZNSt10bad_typeidaSERKS_
    bad_typeid.o(.ARM.exidx) refers to bad_typeid.o(i._ZNSt10bad_typeidD1Ev) for i._ZNSt10bad_typeidD1Ev
    bad_typeid.o(.ARM.exidx) refers to bad_typeid.o(i._ZNSt10bad_typeidD0Ev) for i._ZNSt10bad_typeidD0Ev
    bad_typeid.o(.ARM.exidx) refers to bad_typeid.o(i._ZNKSt10bad_typeid4whatEv) for i._ZNKSt10bad_typeid4whatEv
    istatus.o(x$fpl$ieeestatus) refers (Special) to usenofp.o(x$fpl$usenofp) for __I$use$fp
    fpclassify.o(i.__ARM_fpclassify) refers (Special) to usenofp.o(x$fpl$usenofp) for __I$use$fp
    rtexit2.o(.ARM.Collect$$rtexit$$00000003) refers to libshutdown.o(.ARM.Collect$$libshutdown$$00000000) for __rt_lib_shutdown
    rtexit2.o(.ARM.Collect$$rtexit$$00000004) refers to retarget.o(.text) for _sys_exit
    rtexit2.o(.ARM.exidx) refers to rtexit2.o(.ARM.Collect$$rtexit$$00000001) for .ARM.Collect$$rtexit$$00000001
    rtexit2.o(.ARM.exidx) refers to rtexit2.o(.ARM.Collect$$rtexit$$00000003) for .ARM.Collect$$rtexit$$00000003
    rtexit2.o(.ARM.exidx) refers to rtexit2.o(.ARM.Collect$$rtexit$$00000004) for .ARM.Collect$$rtexit$$00000004
    term_alloc.o(.text) refers (Special) to libshutdown2.o(.ARM.Collect$$libshutdown$$0000000E) for __rt_lib_shutdown_heap_2
    term_alloc.o(.text) refers to rt_heap_descriptor_intlibspace.o(.text) for __rt_heap_descriptor
    term_alloc.o(.text) refers to h1_final.o(.text) for __Heap_Finalize
    __raise.o(.text) refers to defsig.o(CL$$defsig) for __default_signal_handler
    defsig_general.o(.text) refers to retarget.o(.text) for _ttywrch
    defsig_rtmem_inner.o(.text) refers to defsig_general.o(.text) for __default_signal_display
    ARM_vec_cleanup.o(i.__ARM_vec_cleanup) refers to arm_exceptions_begincatch.o(.text) for __cxa_begin_catch
    ARM_vec_cleanup.o(i.__ARM_vec_cleanup) refers to arm_exceptions_terminate.o(.text) for std::terminate()
    ARM_vec_cleanup.o(i.__ARM_vec_cleanup) refers to arm_exceptions_endcatch.o(.text) for __cxa_end_catch
    ARM_vec_cleanup.o(i.__ARM_vec_cleanup.clean) refers to arm_exceptions_endcatch.o(.text) for __cxa_end_catch
    ARM_vec_cleanup.o(i.__ARM_vec_cleanup.clean) refers to arm_exceptions_cleanup.o(.emb_text) for __cxa_end_cleanup
    ARM_vec_cleanup.o(.ARM.exidx) refers to ARM_vec_cleanup.o(i.__ARM_vec_cleanup) for i.__ARM_vec_cleanup
    ARM_vec_cleanup.o(.ARM.exidx) refers to unwind_pr0.o(.text) for __aeabi_unwind_cpp_pr0
    ARM_vec_cleanup.o(.ARM.exidx) refers to ARM_vec_cleanup.o(.ARM.extab) for .extab.__ARM_vec_cleanup
    ARM_vec_cleanup.o(.ARM.exidx) refers to ARM_vec_cleanup.o(i.__ARM_vec_cleanup.clean) for i.__ARM_vec_cleanup.clean
    ARM_vec_cleanup.o(.ARM.extab) refers to arm_exceptions_callunex.o(.text) for __cxa_call_unexpected
    ARM_vec_cleanup.o(.ARM.extab) refers to ARM_vec_cleanup.o(i.__ARM_vec_cleanup) for i.__ARM_vec_cleanup
    ARM_vec_cleanup.o(.ARM.extab) refers to ARM_vec_cleanup.o(i.__ARM_vec_cleanup.clean) for i.__ARM_vec_cleanup.clean
    exception_assign.o(.ARM.exidx) refers to exception_assign.o(i._ZNSt9exceptionaSERKS_) for i._ZNSt9exceptionaSERKS_
    fpconst.o(c$$dinf) refers (Special) to usenofp.o(x$fpl$usenofp) for __I$use$fp
    fpconst.o(c$$dnan) refers (Special) to usenofp.o(x$fpl$usenofp) for __I$use$fp
    fpconst.o(c$$finf) refers (Special) to usenofp.o(x$fpl$usenofp) for __I$use$fp
    scanf2.o(x$fpl$scanf2) refers to scanf_hexfp.o(.text) for _scanf_really_hex_real
    scanf2.o(x$fpl$scanf2) refers to scanf_infnan.o(.text) for _scanf_really_infnan
    scanf2b.o(x$fpl$scanf2) refers to scanf_hexfp.o(.text) for _scanf_really_hex_real
    scanf2b.o(x$fpl$scanf2) refers to scanf_infnan.o(.text) for _scanf_really_infnan
    narrow.o(i.__mathlib_narrow) refers (Special) to usenofp.o(x$fpl$usenofp) for __I$use$fp
    narrow.o(i.__mathlib_narrow) refers to narrow.o(i.__mathlib_tofloat) for __mathlib_tofloat
    narrow.o(i.__mathlib_tofloat) refers (Special) to usenofp.o(x$fpl$usenofp) for __I$use$fp
    narrow.o(i.__mathlib_tofloat) refers to frexp.o(i.frexp) for frexp
    narrow.o(i.__mathlib_tofloat) refers to deqf.o(x$fpl$deqf) for __aeabi_cdcmpeq
    narrow.o(i.__mathlib_tofloat) refers to d2f.o(x$fpl$d2f) for __aeabi_d2f
    narrow.o(i.__mathlib_tofloat) refers to _rserrno.o(.text) for __set_errno
    narrow.o(i.__mathlib_tofloat) refers to drleqf.o(x$fpl$drleqf) for __aeabi_cdrcmple
    narrow.o(i.__softfp___mathlib_tofloat) refers (Special) to usenofp.o(x$fpl$usenofp) for __I$use$fp
    narrow.o(i.__softfp___mathlib_tofloat) refers to narrow.o(i.__mathlib_tofloat) for __mathlib_tofloat
    _rserrno.o(.text) refers to rt_errno_addr_intlibspace.o(.text) for __aeabi_errno_addr
    scanf_hexfp.o(.text) refers to _chval.o(.text) for _chval
    scanf_hexfp.o(.text) refers to llshl.o(.text) for __aeabi_llsl
    scanf_hexfp.o(.text) refers to ldexp.o(i.__support_ldexp) for __support_ldexp
    scanf_hexfp.o(.text) refers to narrow.o(i.__mathlib_narrow) for __mathlib_narrow
    defsig.o(CL$$defsig) refers to defsig_abrt_inner.o(.text) for __rt_SIGABRT_inner
    defsig.o(CL$$defsig) refers to defsig_rtmem_inner.o(.text) for __rt_SIGRTMEM_inner
    libshutdown.o(.ARM.Collect$$libshutdown$$00000000) refers (Special) to libshutdown2.o(.ARM.Collect$$libshutdown$$00000002) for __rt_lib_shutdown_cpp_1
    libshutdown.o(.ARM.Collect$$libshutdown$$00000000) refers (Special) to libshutdown2.o(.ARM.Collect$$libshutdown$$00000007) for __rt_lib_shutdown_fp_trap_1
    libshutdown.o(.ARM.Collect$$libshutdown$$00000000) refers (Special) to libshutdown2.o(.ARM.Collect$$libshutdown$$0000000F) for __rt_lib_shutdown_heap_1
    libshutdown.o(.ARM.Collect$$libshutdown$$00000000) refers (Special) to libshutdown2.o(.ARM.Collect$$libshutdown$$00000010) for __rt_lib_shutdown_return
    libshutdown.o(.ARM.Collect$$libshutdown$$00000000) refers (Special) to libshutdown2.o(.ARM.Collect$$libshutdown$$0000000A) for __rt_lib_shutdown_signal_1
    libshutdown.o(.ARM.Collect$$libshutdown$$00000000) refers (Special) to libshutdown2.o(.ARM.Collect$$libshutdown$$00000004) for __rt_lib_shutdown_stdio_1
    libshutdown.o(.ARM.Collect$$libshutdown$$00000000) refers (Special) to libshutdown2.o(.ARM.Collect$$libshutdown$$0000000C) for __rt_lib_shutdown_user_alloc_1
    d2f.o(x$fpl$d2f) refers (Special) to usenofp.o(x$fpl$usenofp) for __I$use$fp
    d2f.o(x$fpl$d2f) refers to fretinf.o(x$fpl$fretinf) for __fpl_fretinf
    d2f.o(x$fpl$d2f) refers to dnaninf.o(x$fpl$dnaninf) for __fpl_dnaninf
    drleqf.o(x$fpl$drleqf) refers (Special) to usenofp.o(x$fpl$usenofp) for __I$use$fp
    drleqf.o(x$fpl$drleqf) refers to dleqf.o(x$fpl$dleqf) for __fpl_dcmple_InfNaN
    frexp.o(i.__softfp_frexp) refers (Special) to usenofp.o(x$fpl$usenofp) for __I$use$fp
    frexp.o(i.__softfp_frexp) refers to scalbn.o(x$fpl$scalbn) for __ARM_scalbn
    frexp.o(i.frexp) refers (Special) to usenofp.o(x$fpl$usenofp) for __I$use$fp
    frexp.o(i.frexp) refers to scalbn.o(x$fpl$scalbn) for __ARM_scalbn
    defsig_fpe_inner.o(.text) refers to defsig_general.o(.text) for __default_signal_display
    defsig_rtred_inner.o(.text) refers to defsig_general.o(.text) for __default_signal_display
    defsig_stak_inner.o(.text) refers to defsig_general.o(.text) for __default_signal_display
    defsig_pvfn_inner.o(.text) refers to defsig_general.o(.text) for __default_signal_display
    defsig_cppl_inner.o(.text) refers to defsig_general.o(.text) for __default_signal_display
    defsig_segv_inner.o(.text) refers to defsig_general.o(.text) for __default_signal_display
    defsig_other.o(.text) refers to defsig_general.o(.text) for __default_signal_display
    fretinf.o(x$fpl$fretinf) refers (Special) to usenofp.o(x$fpl$usenofp) for __I$use$fp
    scalbn.o(x$fpl$scalbn) refers (Special) to usenofp.o(x$fpl$usenofp) for __I$use$fp
    scalbn.o(x$fpl$scalbn) refers to dcheck1.o(x$fpl$dcheck1) for __fpl_dcheck_NaN1
    ldexp.o(i.__softfp_ldexp) refers (Special) to usenofp.o(x$fpl$usenofp) for __I$use$fp
    ldexp.o(i.__softfp_ldexp) refers to ldexp.o(i.ldexp) for ldexp
    ldexp.o(i.__support_ldexp) refers (Special) to usenofp.o(x$fpl$usenofp) for __I$use$fp
    ldexp.o(i.__support_ldexp) refers to ldexp.o(i.ldexp) for ldexp
    ldexp.o(i.ldexp) refers (Special) to usenofp.o(x$fpl$usenofp) for __I$use$fp
    ldexp.o(i.ldexp) refers to deqf.o(x$fpl$deqf) for __aeabi_cdcmpeq
    ldexp.o(i.ldexp) refers to scalbn.o(x$fpl$scalbn) for __ARM_scalbn
    ldexp.o(i.ldexp) refers to _rserrno.o(.text) for __set_errno
    ldexp.o(i.ldexp) refers to dunder.o(i.__mathlib_dbl_underflow) for __mathlib_dbl_underflow
    ldexp.o(i.ldexp) refers to dunder.o(i.__mathlib_dbl_overflow) for __mathlib_dbl_overflow
    ldexp_x.o(i.____softfp_ldexp$lsc) refers (Special) to usenofp.o(x$fpl$usenofp) for __I$use$fp
    ldexp_x.o(i.____softfp_ldexp$lsc) refers to ldexp_x.o(i.__ldexp$lsc) for __ldexp$lsc
    ldexp_x.o(i.____support_ldexp$lsc) refers (Special) to usenofp.o(x$fpl$usenofp) for __I$use$fp
    ldexp_x.o(i.____support_ldexp$lsc) refers to ldexp_x.o(i.__ldexp$lsc) for __ldexp$lsc
    ldexp_x.o(i.__ldexp$lsc) refers (Special) to usenofp.o(x$fpl$usenofp) for __I$use$fp
    ldexp_x.o(i.__ldexp$lsc) refers to deqf.o(x$fpl$deqf) for __aeabi_cdcmpeq
    ldexp_x.o(i.__ldexp$lsc) refers to scalbn.o(x$fpl$scalbn) for __ARM_scalbn
    ldexp_x.o(i.__ldexp$lsc) refers to _rserrno.o(.text) for __set_errno
    ldexp_x.o(i.__ldexp$lsc) refers to qnan.o(.constdata) for __mathlib_zero
    dcheck1.o(x$fpl$dcheck1) refers (Special) to usenofp.o(x$fpl$usenofp) for __I$use$fp
    dcheck1.o(x$fpl$dcheck1) refers to retnan.o(x$fpl$retnan) for __fpl_return_NaN
    dunder.o(i.__mathlib_dbl_divzero) refers to ddiv.o(x$fpl$ddiv) for __aeabi_ddiv
    dunder.o(i.__mathlib_dbl_infnan) refers to scalbn.o(x$fpl$scalbn) for __ARM_scalbn
    dunder.o(i.__mathlib_dbl_infnan2) refers to daddsub_clz.o(x$fpl$dadd) for __aeabi_dadd
    dunder.o(i.__mathlib_dbl_invalid) refers to ddiv.o(x$fpl$ddiv) for __aeabi_ddiv
    dunder.o(i.__mathlib_dbl_overflow) refers to scalbn.o(x$fpl$scalbn) for __ARM_scalbn
    dunder.o(i.__mathlib_dbl_posinfnan) refers to dmul.o(x$fpl$dmul) for __aeabi_dmul
    dunder.o(i.__mathlib_dbl_underflow) refers to scalbn.o(x$fpl$scalbn) for __ARM_scalbn
    qnan.o(.constdata) refers (Special) to usenofp.o(x$fpl$usenofp) for __I$use$fp
    daddsub_clz.o(x$fpl$dadd) refers (Special) to usenofp.o(x$fpl$usenofp) for __I$use$fp
    daddsub_clz.o(x$fpl$dadd) refers to daddsub_clz.o(x$fpl$dsub) for _dsub1
    daddsub_clz.o(x$fpl$dadd) refers to dretinf.o(x$fpl$dretinf) for __fpl_dretinf
    daddsub_clz.o(x$fpl$dadd) refers to dnaninf.o(x$fpl$dnaninf) for __fpl_dnaninf
    daddsub_clz.o(x$fpl$drsb) refers (Special) to usenofp.o(x$fpl$usenofp) for __I$use$fp
    daddsub_clz.o(x$fpl$drsb) refers to daddsub_clz.o(x$fpl$dadd) for _dadd1
    daddsub_clz.o(x$fpl$drsb) refers to daddsub_clz.o(x$fpl$dsub) for _dsub1
    daddsub_clz.o(x$fpl$dsub) refers (Special) to usenofp.o(x$fpl$usenofp) for __I$use$fp
    daddsub_clz.o(x$fpl$dsub) refers to daddsub_clz.o(x$fpl$dadd) for _dadd1
    daddsub_clz.o(x$fpl$dsub) refers to dnaninf.o(x$fpl$dnaninf) for __fpl_dnaninf
    ddiv.o(x$fpl$drdiv) refers (Special) to usenofp.o(x$fpl$usenofp) for __I$use$fp
    ddiv.o(x$fpl$drdiv) refers to ddiv.o(x$fpl$ddiv) for ddiv_entry
    ddiv.o(x$fpl$ddiv) refers (Special) to usenofp.o(x$fpl$usenofp) for __I$use$fp
    ddiv.o(x$fpl$ddiv) refers to dretinf.o(x$fpl$dretinf) for __fpl_dretinf
    ddiv.o(x$fpl$ddiv) refers to dnaninf.o(x$fpl$dnaninf) for __fpl_dnaninf
    dmul.o(x$fpl$dmul) refers (Special) to usenofp.o(x$fpl$usenofp) for __I$use$fp
    dmul.o(x$fpl$dmul) refers to dretinf.o(x$fpl$dretinf) for __fpl_dretinf
    dmul.o(x$fpl$dmul) refers to dnaninf.o(x$fpl$dnaninf) for __fpl_dnaninf
    retnan.o(x$fpl$retnan) refers (Special) to usenofp.o(x$fpl$usenofp) for __I$use$fp
    retnan.o(x$fpl$retnan) refers to trapv.o(x$fpl$trapveneer) for __fpl_cmpreturn
    dretinf.o(x$fpl$dretinf) refers (Special) to usenofp.o(x$fpl$usenofp) for __I$use$fp
    trapv.o(x$fpl$trapveneer) refers (Special) to usenofp.o(x$fpl$usenofp) for __I$use$fp
    main.o(.constdata__ZTVSt8numpunctIcE) refers to main.o(.constdata__ZTISt8numpunctIcE) for typeinfo for std::numpunct<char>
    main.o(.constdata__ZTVSt8numpunctIcE) refers to main.o(i._ZNSt8numpunctIcED1Ev) for std::numpunct<char>::~numpunct()
    main.o(.constdata__ZTVSt8numpunctIcE) refers to main.o(i._ZNSt8numpunctIcED0Ev) for std::numpunct<char>::~numpunct__deallocating()
    main.o(.constdata__ZTVSt8numpunctIcE) refers to main.o(t._ZNSt8numpunctIcE12_C_initfacetERKSt6locale) for std::numpunct<char>::_C_initfacet(const std::locale&)
    main.o(.constdata__ZTVSt8numpunctIcE) refers to main.o(t._ZNKSt8numpunctIcE16do_decimal_pointEv) for std::numpunct<char>::do_decimal_point() const
    main.o(.constdata__ZTVSt8numpunctIcE) refers to main.o(t._ZNKSt8numpunctIcE16do_thousands_sepEv) for std::numpunct<char>::do_thousands_sep() const
    main.o(.constdata__ZTVSt8numpunctIcE) refers to main.o(t._ZNKSt8numpunctIcE11do_groupingEv) for std::numpunct<char>::do_grouping() const
    main.o(.constdata__ZTVSt8numpunctIcE) refers to main.o(t._ZNKSt8numpunctIcE11do_truenameEv) for std::numpunct<char>::do_truename() const
    main.o(.constdata__ZTVSt8numpunctIcE) refers to main.o(t._ZNKSt8numpunctIcE12do_falsenameEv) for std::numpunct<char>::do_falsename() const
    main.o(.constdata__ZTVSt7num_putIcSt19ostreambuf_iteratorIcSt11char_traitsIcEEE) refers to main.o(.constdata__ZTISt7num_putIcSt19ostreambuf_iteratorIcSt11char_traitsIcEEE) for typeinfo for std::num_put<char, std::ostreambuf_iterator<char, std::char_traits<char>>>
    main.o(.constdata__ZTVSt7num_putIcSt19ostreambuf_iteratorIcSt11char_traitsIcEEE) refers to main.o(i._ZNSt7num_putIcSt19ostreambuf_iteratorIcSt11char_traitsIcEEED1Ev) for std::num_put<char, std::ostreambuf_iterator<char, std::char_traits<char>>>::~num_put()
    main.o(.constdata__ZTVSt7num_putIcSt19ostreambuf_iteratorIcSt11char_traitsIcEEE) refers to main.o(i._ZNSt7num_putIcSt19ostreambuf_iteratorIcSt11char_traitsIcEEED0Ev) for std::num_put<char, std::ostreambuf_iterator<char, std::char_traits<char>>>::~num_put__deallocating()
    main.o(.constdata__ZTVSt7num_putIcSt19ostreambuf_iteratorIcSt11char_traitsIcEEE) refers to main.o(i._ZN4__rw15__rw_facet_base12_C_initfacetERKSt6locale) for __rw::__rw_facet_base::_C_initfacet(const std::locale&)
    main.o(.constdata__ZTVSt7num_putIcSt19ostreambuf_iteratorIcSt11char_traitsIcEEE) refers to main.o(t._ZNKSt7num_putIcSt19ostreambuf_iteratorIcSt11char_traitsIcEEE6do_putES3_RSt8ios_basecb) for std::num_put<char, std::ostreambuf_iterator<char, std::char_traits<char>>>::do_put(std::ostreambuf_iterator<char, std::char_traits<char>>, std::ios_base&, char, bool) const
    main.o(.constdata__ZTVSt7num_putIcSt19ostreambuf_iteratorIcSt11char_traitsIcEEE) refers to main.o(t._ZNKSt7num_putIcSt19ostreambuf_iteratorIcSt11char_traitsIcEEE6do_putES3_RSt8ios_basecl) for std::num_put<char, std::ostreambuf_iterator<char, std::char_traits<char>>>::do_put(std::ostreambuf_iterator<char, std::char_traits<char>>, std::ios_base&, char, long) const
    main.o(.constdata__ZTVSt7num_putIcSt19ostreambuf_iteratorIcSt11char_traitsIcEEE) refers to main.o(t._ZNKSt7num_putIcSt19ostreambuf_iteratorIcSt11char_traitsIcEEE6do_putES3_RSt8ios_basecm) for std::num_put<char, std::ostreambuf_iterator<char, std::char_traits<char>>>::do_put(std::ostreambuf_iterator<char, std::char_traits<char>>, std::ios_base&, char, unsigned long) const
    main.o(.constdata__ZTVSt7num_putIcSt19ostreambuf_iteratorIcSt11char_traitsIcEEE) refers to main.o(t._ZNKSt7num_putIcSt19ostreambuf_iteratorIcSt11char_traitsIcEEE6do_putES3_RSt8ios_basecd) for std::num_put<char, std::ostreambuf_iterator<char, std::char_traits<char>>>::do_put(std::ostreambuf_iterator<char, std::char_traits<char>>, std::ios_base&, char, double) const
    main.o(.constdata__ZTVSt7num_putIcSt19ostreambuf_iteratorIcSt11char_traitsIcEEE) refers to main.o(t._ZNKSt7num_putIcSt19ostreambuf_iteratorIcSt11char_traitsIcEEE6do_putES3_RSt8ios_basece) for std::num_put<char, std::ostreambuf_iterator<char, std::char_traits<char>>>::do_put(std::ostreambuf_iterator<char, std::char_traits<char>>, std::ios_base&, char, long double) const
    main.o(.constdata__ZTVSt7num_putIcSt19ostreambuf_iteratorIcSt11char_traitsIcEEE) refers to main.o(t._ZNKSt7num_putIcSt19ostreambuf_iteratorIcSt11char_traitsIcEEE6do_putES3_RSt8ios_basecPKv) for std::num_put<char, std::ostreambuf_iterator<char, std::char_traits<char>>>::do_put(std::ostreambuf_iterator<char, std::char_traits<char>>, std::ios_base&, char, const void*) const
    main.o(.constdata__ZTVSt7num_putIcSt19ostreambuf_iteratorIcSt11char_traitsIcEEE) refers to main.o(t._ZNKSt7num_putIcSt19ostreambuf_iteratorIcSt11char_traitsIcEEE6do_putES3_RSt8ios_basecs) for std::num_put<char, std::ostreambuf_iterator<char, std::char_traits<char>>>::do_put(std::ostreambuf_iterator<char, std::char_traits<char>>, std::ios_base&, char, short) const
    main.o(.constdata__ZTVSt7num_putIcSt19ostreambuf_iteratorIcSt11char_traitsIcEEE) refers to main.o(t._ZNKSt7num_putIcSt19ostreambuf_iteratorIcSt11char_traitsIcEEE6do_putES3_RSt8ios_basect) for std::num_put<char, std::ostreambuf_iterator<char, std::char_traits<char>>>::do_put(std::ostreambuf_iterator<char, std::char_traits<char>>, std::ios_base&, char, unsigned short) const
    main.o(.constdata__ZTVSt7num_putIcSt19ostreambuf_iteratorIcSt11char_traitsIcEEE) refers to main.o(t._ZNKSt7num_putIcSt19ostreambuf_iteratorIcSt11char_traitsIcEEE6do_putES3_RSt8ios_baseci) for std::num_put<char, std::ostreambuf_iterator<char, std::char_traits<char>>>::do_put(std::ostreambuf_iterator<char, std::char_traits<char>>, std::ios_base&, char, int) const
    main.o(.constdata__ZTVSt7num_putIcSt19ostreambuf_iteratorIcSt11char_traitsIcEEE) refers to main.o(t._ZNKSt7num_putIcSt19ostreambuf_iteratorIcSt11char_traitsIcEEE6do_putES3_RSt8ios_basecj) for std::num_put<char, std::ostreambuf_iterator<char, std::char_traits<char>>>::do_put(std::ostreambuf_iterator<char, std::char_traits<char>>, std::ios_base&, char, unsigned) const
    main.o(.constdata__ZTVSt7num_putIcSt19ostreambuf_iteratorIcSt11char_traitsIcEEE) refers to main.o(t._ZNKSt7num_putIcSt19ostreambuf_iteratorIcSt11char_traitsIcEEE6do_putES3_RSt8ios_basecx) for std::num_put<char, std::ostreambuf_iterator<char, std::char_traits<char>>>::do_put(std::ostreambuf_iterator<char, std::char_traits<char>>, std::ios_base&, char, long long) const
    main.o(.constdata__ZTVSt7num_putIcSt19ostreambuf_iteratorIcSt11char_traitsIcEEE) refers to main.o(t._ZNKSt7num_putIcSt19ostreambuf_iteratorIcSt11char_traitsIcEEE6do_putES3_RSt8ios_basecy) for std::num_put<char, std::ostreambuf_iterator<char, std::char_traits<char>>>::do_put(std::ostreambuf_iterator<char, std::char_traits<char>>, std::ios_base&, char, unsigned long long) const
    main.o(t._ZN4__rw9__rb_treeISsSt4pairIKSsiENS_11__select1stIS3_SsEESt4lessISsESaIS3_EE21_C_deallocate_buffersEv) refers to main.o(t._ZNSaIN4__rw17__rw_rb_tree_nodeISaISt4pairIKSsiEES3_SsNS_11__select1stIS3_SsEEEEEC1IS3_EERKSaIT_E) for std::allocator<__rw::__rw_rb_tree_node<std::allocator<std::pair<const std::basic_string<char, std::char_traits<char>, std::allocator<char>>, int>>, std::pair<const std::basic_string<char, std::char_traits<char>, std::allocator<char>>, int>, std::basic_string<char, std::char_traits<char>, std::allocator<char>>, __rw::__select1st<std::pair<const std::basic_string<char, std::char_traits<char>, std::allocator<char>>, int>, std::basic_string<char, std::char_traits<char>, std::allocator<char>>>>>::allocator<std::pair<const std::basic_string<char, std::char_traits<char>, std::allocator<char>>, int>>(const std::allocator<T1>&)
    main.o(t._ZN4__rw9__rb_treeISsSt4pairIKSsiENS_11__select1stIS3_SsEESt4lessISsESaIS3_EE21_C_deallocate_buffersEv) refers to rwalloc.o(i._ZN4__rw15__rw_deallocateEPvji) for __rw::__rw_deallocate(void*, unsigned, int)
    main.o(t._ZN4__rw9__rb_treeISsSt4pairIKSsiENS_11__select1stIS3_SsEESt4lessISsESaIS3_EE21_C_deallocate_buffersEv) refers to main.o(t._ZNSaIN4__rw9__rb_treeISsSt4pairIKSsiENS_11__select1stIS3_SsEESt4lessISsESaIS3_EE22_C_rb_tree_node_bufferEEC1IS3_EERKSaIT_E) for std::allocator<__rw::__rb_tree<std::basic_string<char, std::char_traits<char>, std::allocator<char>>, std::pair<const std::basic_string<char, std::char_traits<char>, std::allocator<char>>, int>, __rw::__select1st<std::pair<const std::basic_string<char, std::char_traits<char>, std::allocator<char>>, int>, std::basic_string<char, std::char_traits<char>, std::allocator<char>>>, std::less<std::basic_string<char, std::char_traits<char>, std::allocator<char>>>, std::allocator<std::pair<const std::basic_string<char, std::char_traits<char>, std::allocator<char>>, int>>>::_C_rb_tree_node_buffer>::allocator<std::pair<const std::basic_string<char, std::char_traits<char>, std::allocator<char>>, int>>(const std::allocator<T1>&)
    main.o(t._ZN4__rw9__rb_treeISsSt4pairIKSsiENS_11__select1stIS3_SsEESt4lessISsESaIS3_EE21_C_deallocate_buffersEv) refers to main.o(t._ZNSaIN4__rw9__rb_treeISsSt4pairIKSsiENS_11__select1stIS3_SsEESt4lessISsESaIS3_EE22_C_rb_tree_node_bufferEE10deallocateEPSA_j) for std::allocator<__rw::__rb_tree<std::basic_string<char, std::char_traits<char>, std::allocator<char>>, std::pair<const std::basic_string<char, std::char_traits<char>, std::allocator<char>>, int>, __rw::__select1st<std::pair<const std::basic_string<char, std::char_traits<char>, std::allocator<char>>, int>, std::basic_string<char, std::char_traits<char>, std::allocator<char>>>, std::less<std::basic_string<char, std::char_traits<char>, std::allocator<char>>>, std::allocator<std::pair<const std::basic_string<char, std::char_traits<char>, std::allocator<char>>, int>>>::_C_rb_tree_node_buffer>::deallocate(__rw::__rb_tree<std::basic_string<char, std::char_traits<char>, std::allocator<char>>, std::pair<const std::basic_string<char, std::char_traits<char>, std::allocator<char>>, int>, __rw::__select1st<std::pair<const std::basic_string<char, std::char_traits<char>, std::allocator<char>>, int>, std::basic_string<char, std::char_traits<char>, std::allocator<char>>>, std::less<std::basic_string<char, std::char_traits<char>, std::allocator<char>>>, std::allocator<std::pair<const std::basic_string<char, std::char_traits<char>, std::allocator<char>>, int>>>::_C_rb_tree_node_buffer*, unsigned)
    main.o(.ARM.exidx) refers to main.o(t._ZN4__rw9__rb_treeISsSt4pairIKSsiENS_11__select1stIS3_SsEESt4lessISsESaIS3_EE21_C_deallocate_buffersEv) for t._ZN4__rw9__rb_treeISsSt4pairIKSsiENS_11__select1stIS3_SsEESt4lessISsESaIS3_EE21_C_deallocate_buffersEv
    main.o(.ARM.exidx) refers to unwind_pr0.o(.text) for __aeabi_unwind_cpp_pr0
    main.o(t._ZNSs9_C_unlinkEv) refers to main.o(t._ZNKSs4dataEv) for std::basic_string<char, std::char_traits<char>, std::allocator<char>>::data() const
    main.o(t._ZNSs9_C_unlinkEv) refers to main.o(t._ZNSs7_C_nullEv) for std::basic_string<char, std::char_traits<char>, std::allocator<char>>::_C_null()
    main.o(t._ZNSs9_C_unlinkEv) refers to main.o(t._ZNKSs7_C_prefEv) for std::basic_string<char, std::char_traits<char>, std::allocator<char>>::_C_pref() const
    main.o(t._ZNSs9_C_unlinkEv) refers to main.o(t._ZNK4__rw12__string_refIcSt11char_traitsIcESaIcEE12_C_ref_countEv) for __rw::__string_ref<char, std::char_traits<char>, std::allocator<char>>::_C_ref_count() const
    main.o(t._ZNSs9_C_unlinkEv) refers to main.o(t._ZNKSs8capacityEv) for std::basic_string<char, std::char_traits<char>, std::allocator<char>>::capacity() const
    main.o(t._ZNSs9_C_unlinkEv) refers to main.o(t._ZNSaIN4__rw12__string_refIcSt11char_traitsIcESaIcEEEEC1IcEERKSaIT_E) for std::allocator<__rw::__string_ref<char, std::char_traits<char>, std::allocator<char>>>::allocator<char>(const std::allocator<T1>&)
    main.o(t._ZNSs9_C_unlinkEv) refers to rwalloc.o(i._ZN4__rw15__rw_deallocateEPvji) for __rw::__rw_deallocate(void*, unsigned, int)
    main.o(t._ZNSs9_C_unlinkEv) refers to rwthrowproc_impl.o(.bss__ZNSs9__nullrefE) for std::basic_string<char, std::char_traits<char>, std::allocator<char>>::__nullref
    main.o(.ARM.exidx) refers to main.o(t._ZNSs9_C_unlinkEv) for t._ZNSs9_C_unlinkEv
    main.o(.ARM.exidx) refers to unwind_pr0.o(.text) for __aeabi_unwind_cpp_pr0
    main.o(t._ZN4__rw9__rb_treeISsSt4pairIKSsiENS_11__select1stIS3_SsEESt4lessISsESaIS3_EE11_C_put_nodeEPNS_17__rw_rb_tree_nodeIS8_S3_SsS5_EEb) refers to main.o(i._ZNSt4pairIKSsiED1Ev) for std::pair<const std::basic_string<char, std::char_traits<char>, std::allocator<char>>, int>::~pair()
    main.o(.ARM.exidx) refers to main.o(t._ZN4__rw9__rb_treeISsSt4pairIKSsiENS_11__select1stIS3_SsEESt4lessISsESaIS3_EE11_C_put_nodeEPNS_17__rw_rb_tree_nodeIS8_S3_SsS5_EEb) for t._ZN4__rw9__rb_treeISsSt4pairIKSsiENS_11__select1stIS3_SsEESt4lessISsESaIS3_EE11_C_put_nodeEPNS_17__rw_rb_tree_nodeIS8_S3_SsS5_EEb
    main.o(t._ZN4__rw14__rw_tree_iterISt4pairIKSsiEiPS3_RS3_NS_17__rw_rb_tree_nodeISaIS3_ES3_SsNS_11__select1stIS3_SsEEEEEppEv) refers to main.o(t._ZN4__rw17__rw_rb_tree_nodeISaISt4pairIKSsiEES3_SsNS_11__select1stIS3_SsEEE8_C_rightEv) for __rw::__rw_rb_tree_node<std::allocator<std::pair<const std::basic_string<char, std::char_traits<char>, std::allocator<char>>, int>>, std::pair<const std::basic_string<char, std::char_traits<char>, std::allocator<char>>, int>, std::basic_string<char, std::char_traits<char>, std::allocator<char>>, __rw::__select1st<std::pair<const std::basic_string<char, std::char_traits<char>, std::allocator<char>>, int>, std::basic_string<char, std::char_traits<char>, std::allocator<char>>>>::_C_right()
    main.o(t._ZN4__rw14__rw_tree_iterISt4pairIKSsiEiPS3_RS3_NS_17__rw_rb_tree_nodeISaIS3_ES3_SsNS_11__select1stIS3_SsEEEEEppEv) refers to main.o(t._ZN4__rw17__rw_rb_tree_nodeISaISt4pairIKSsiEES3_SsNS_11__select1stIS3_SsEEE7_C_leftEv) for __rw::__rw_rb_tree_node<std::allocator<std::pair<const std::basic_string<char, std::char_traits<char>, std::allocator<char>>, int>>, std::pair<const std::basic_string<char, std::char_traits<char>, std::allocator<char>>, int>, std::basic_string<char, std::char_traits<char>, std::allocator<char>>, __rw::__select1st<std::pair<const std::basic_string<char, std::char_traits<char>, std::allocator<char>>, int>, std::basic_string<char, std::char_traits<char>, std::allocator<char>>>>::_C_left()
    main.o(t._ZN4__rw14__rw_tree_iterISt4pairIKSsiEiPS3_RS3_NS_17__rw_rb_tree_nodeISaIS3_ES3_SsNS_11__select1stIS3_SsEEEEEppEv) refers to main.o(t._ZN4__rw17__rw_rb_tree_nodeISaISt4pairIKSsiEES3_SsNS_11__select1stIS3_SsEEE9_C_parentEv) for __rw::__rw_rb_tree_node<std::allocator<std::pair<const std::basic_string<char, std::char_traits<char>, std::allocator<char>>, int>>, std::pair<const std::basic_string<char, std::char_traits<char>, std::allocator<char>>, int>, std::basic_string<char, std::char_traits<char>, std::allocator<char>>, __rw::__select1st<std::pair<const std::basic_string<char, std::char_traits<char>, std::allocator<char>>, int>, std::basic_string<char, std::char_traits<char>, std::allocator<char>>>>::_C_parent()
    main.o(.ARM.exidx) refers to main.o(t._ZN4__rw14__rw_tree_iterISt4pairIKSsiEiPS3_RS3_NS_17__rw_rb_tree_nodeISaIS3_ES3_SsNS_11__select1stIS3_SsEEEEEppEv) for t._ZN4__rw14__rw_tree_iterISt4pairIKSsiEiPS3_RS3_NS_17__rw_rb_tree_nodeISaIS3_ES3_SsNS_11__select1stIS3_SsEEEEEppEv
    main.o(.ARM.exidx) refers to unwind_pr0.o(.text) for __aeabi_unwind_cpp_pr0
    main.o(t._ZN4__rw14__rw_tree_iterISt4pairIKSsiEiPS3_RS3_NS_17__rw_rb_tree_nodeISaIS3_ES3_SsNS_11__select1stIS3_SsEEEEEppEi) refers to main.o(t._ZN4__rw14__rw_tree_iterISt4pairIKSsiEiPS3_RS3_NS_17__rw_rb_tree_nodeISaIS3_ES3_SsNS_11__select1stIS3_SsEEEEEC1ERKSB_) for __rw::__rw_tree_iter<std::pair<const std::basic_string<char, std::char_traits<char>, std::allocator<char>>, int>, int, std::pair<const std::basic_string<char, std::char_traits<char>, std::allocator<char>>, int>*, std::pair<const std::basic_string<char, std::char_traits<char>, std::allocator<char>>, int>&, __rw::__rw_rb_tree_node<std::allocator<std::pair<const std::basic_string<char, std::char_traits<char>, std::allocator<char>>, int>>, std::pair<const std::basic_string<char, std::char_traits<char>, std::allocator<char>>, int>, std::basic_string<char, std::char_traits<char>, std::allocator<char>>, __rw::__select1st<std::pair<const std::basic_string<char, std::char_traits<char>, std::allocator<char>>, int>, std::basic_string<char, std::char_traits<char>, std::allocator<char>>>>>::__rw_tree_iter(const __rw::__rw_tree_iter<std::pair<const std::basic_string<char, std::char_traits<char>, std::allocator<char>>, int>, int, std::pair<const std::basic_string<char, std::char_traits<char>, std::allocator<char>>, int>*, std::pair<const std::basic_string<char, std::char_traits<char>, std::allocator<char>>, int>&, __rw::__rw_rb_tree_node<std::allocator<std::pair<const std::basic_string<char, std::char_traits<char>, std::allocator<char>>, int>>, std::pair<const std::basic_string<char, std::char_traits<char>, std::allocator<char>>, int>, std::basic_string<char, std::char_traits<char>, std::allocator<char>>, __rw::__select1st<std::pair<const std::basic_string<char, std::char_traits<char>, std::allocator<char>>, int>, std::basic_string<char, std::char_traits<char>, std::allocator<char>>>>>&)
    main.o(t._ZN4__rw14__rw_tree_iterISt4pairIKSsiEiPS3_RS3_NS_17__rw_rb_tree_nodeISaIS3_ES3_SsNS_11__select1stIS3_SsEEEEEppEi) refers to main.o(t._ZN4__rw14__rw_tree_iterISt4pairIKSsiEiPS3_RS3_NS_17__rw_rb_tree_nodeISaIS3_ES3_SsNS_11__select1stIS3_SsEEEEEppEv) for __rw::__rw_tree_iter<std::pair<const std::basic_string<char, std::char_traits<char>, std::allocator<char>>, int>, int, std::pair<const std::basic_string<char, std::char_traits<char>, std::allocator<char>>, int>*, std::pair<const std::basic_string<char, std::char_traits<char>, std::allocator<char>>, int>&, __rw::__rw_rb_tree_node<std::allocator<std::pair<const std::basic_string<char, std::char_traits<char>, std::allocator<char>>, int>>, std::pair<const std::basic_string<char, std::char_traits<char>, std::allocator<char>>, int>, std::basic_string<char, std::char_traits<char>, std::allocator<char>>, __rw::__select1st<std::pair<const std::basic_string<char, std::char_traits<char>, std::allocator<char>>, int>, std::basic_string<char, std::char_traits<char>, std::allocator<char>>>>>::operator ++()
    main.o(.ARM.exidx) refers to main.o(t._ZN4__rw14__rw_tree_iterISt4pairIKSsiEiPS3_RS3_NS_17__rw_rb_tree_nodeISaIS3_ES3_SsNS_11__select1stIS3_SsEEEEEppEi) for t._ZN4__rw14__rw_tree_iterISt4pairIKSsiEiPS3_RS3_NS_17__rw_rb_tree_nodeISaIS3_ES3_SsNS_11__select1stIS3_SsEEEEEppEi
    main.o(.ARM.exidx) refers to unwind_pr0.o(.text) for __aeabi_unwind_cpp_pr0
    main.o(t._ZN4__rw9__rb_treeISsSt4pairIKSsiENS_11__select1stIS3_SsEESt4lessISsESaIS3_EE14__rotate_rightEPNS_17__rw_rb_tree_nodeIS8_S3_SsS5_EE) refers to main.o(t._ZN4__rw17__rw_rb_tree_nodeISaISt4pairIKSsiEES3_SsNS_11__select1stIS3_SsEEE7_C_leftEv) for __rw::__rw_rb_tree_node<std::allocator<std::pair<const std::basic_string<char, std::char_traits<char>, std::allocator<char>>, int>>, std::pair<const std::basic_string<char, std::char_traits<char>, std::allocator<char>>, int>, std::basic_string<char, std::char_traits<char>, std::allocator<char>>, __rw::__select1st<std::pair<const std::basic_string<char, std::char_traits<char>, std::allocator<char>>, int>, std::basic_string<char, std::char_traits<char>, std::allocator<char>>>>::_C_left()
    main.o(t._ZN4__rw9__rb_treeISsSt4pairIKSsiENS_11__select1stIS3_SsEESt4lessISsESaIS3_EE14__rotate_rightEPNS_17__rw_rb_tree_nodeIS8_S3_SsS5_EE) refers to main.o(t._ZN4__rw17__rw_rb_tree_nodeISaISt4pairIKSsiEES3_SsNS_11__select1stIS3_SsEEE8_C_rightEv) for __rw::__rw_rb_tree_node<std::allocator<std::pair<const std::basic_string<char, std::char_traits<char>, std::allocator<char>>, int>>, std::pair<const std::basic_string<char, std::char_traits<char>, std::allocator<char>>, int>, std::basic_string<char, std::char_traits<char>, std::allocator<char>>, __rw::__select1st<std::pair<const std::basic_string<char, std::char_traits<char>, std::allocator<char>>, int>, std::basic_string<char, std::char_traits<char>, std::allocator<char>>>>::_C_right()
    main.o(t._ZN4__rw9__rb_treeISsSt4pairIKSsiENS_11__select1stIS3_SsEESt4lessISsESaIS3_EE14__rotate_rightEPNS_17__rw_rb_tree_nodeIS8_S3_SsS5_EE) refers to main.o(t._ZN4__rw17__rw_rb_tree_nodeISaISt4pairIKSsiEES3_SsNS_11__select1stIS3_SsEEE9_C_parentEv) for __rw::__rw_rb_tree_node<std::allocator<std::pair<const std::basic_string<char, std::char_traits<char>, std::allocator<char>>, int>>, std::pair<const std::basic_string<char, std::char_traits<char>, std::allocator<char>>, int>, std::basic_string<char, std::char_traits<char>, std::allocator<char>>, __rw::__select1st<std::pair<const std::basic_string<char, std::char_traits<char>, std::allocator<char>>, int>, std::basic_string<char, std::char_traits<char>, std::allocator<char>>>>::_C_parent()
    main.o(t._ZN4__rw9__rb_treeISsSt4pairIKSsiENS_11__select1stIS3_SsEESt4lessISsESaIS3_EE14__rotate_rightEPNS_17__rw_rb_tree_nodeIS8_S3_SsS5_EE) refers to main.o(t._ZNK4__rw9__rb_treeISsSt4pairIKSsiENS_11__select1stIS3_SsEESt4lessISsESaIS3_EE7_C_rootEv) for __rw::__rb_tree<std::basic_string<char, std::char_traits<char>, std::allocator<char>>, std::pair<const std::basic_string<char, std::char_traits<char>, std::allocator<char>>, int>, __rw::__select1st<std::pair<const std::basic_string<char, std::char_traits<char>, std::allocator<char>>, int>, std::basic_string<char, std::char_traits<char>, std::allocator<char>>>, std::less<std::basic_string<char, std::char_traits<char>, std::allocator<char>>>, std::allocator<std::pair<const std::basic_string<char, std::char_traits<char>, std::allocator<char>>, int>>>::_C_root() const
    main.o(.ARM.exidx) refers to main.o(t._ZN4__rw9__rb_treeISsSt4pairIKSsiENS_11__select1stIS3_SsEESt4lessISsESaIS3_EE14__rotate_rightEPNS_17__rw_rb_tree_nodeIS8_S3_SsS5_EE) for t._ZN4__rw9__rb_treeISsSt4pairIKSsiENS_11__select1stIS3_SsEESt4lessISsESaIS3_EE14__rotate_rightEPNS_17__rw_rb_tree_nodeIS8_S3_SsS5_EE
    main.o(.ARM.exidx) refers to unwind_pr0.o(.text) for __aeabi_unwind_cpp_pr0
    main.o(t._ZN4__rw9__rb_treeISsSt4pairIKSsiENS_11__select1stIS3_SsEESt4lessISsESaIS3_EE13__rotate_leftEPNS_17__rw_rb_tree_nodeIS8_S3_SsS5_EE) refers to main.o(t._ZN4__rw17__rw_rb_tree_nodeISaISt4pairIKSsiEES3_SsNS_11__select1stIS3_SsEEE8_C_rightEv) for __rw::__rw_rb_tree_node<std::allocator<std::pair<const std::basic_string<char, std::char_traits<char>, std::allocator<char>>, int>>, std::pair<const std::basic_string<char, std::char_traits<char>, std::allocator<char>>, int>, std::basic_string<char, std::char_traits<char>, std::allocator<char>>, __rw::__select1st<std::pair<const std::basic_string<char, std::char_traits<char>, std::allocator<char>>, int>, std::basic_string<char, std::char_traits<char>, std::allocator<char>>>>::_C_right()
    main.o(t._ZN4__rw9__rb_treeISsSt4pairIKSsiENS_11__select1stIS3_SsEESt4lessISsESaIS3_EE13__rotate_leftEPNS_17__rw_rb_tree_nodeIS8_S3_SsS5_EE) refers to main.o(t._ZN4__rw17__rw_rb_tree_nodeISaISt4pairIKSsiEES3_SsNS_11__select1stIS3_SsEEE7_C_leftEv) for __rw::__rw_rb_tree_node<std::allocator<std::pair<const std::basic_string<char, std::char_traits<char>, std::allocator<char>>, int>>, std::pair<const std::basic_string<char, std::char_traits<char>, std::allocator<char>>, int>, std::basic_string<char, std::char_traits<char>, std::allocator<char>>, __rw::__select1st<std::pair<const std::basic_string<char, std::char_traits<char>, std::allocator<char>>, int>, std::basic_string<char, std::char_traits<char>, std::allocator<char>>>>::_C_left()
    main.o(t._ZN4__rw9__rb_treeISsSt4pairIKSsiENS_11__select1stIS3_SsEESt4lessISsESaIS3_EE13__rotate_leftEPNS_17__rw_rb_tree_nodeIS8_S3_SsS5_EE) refers to main.o(t._ZN4__rw17__rw_rb_tree_nodeISaISt4pairIKSsiEES3_SsNS_11__select1stIS3_SsEEE9_C_parentEv) for __rw::__rw_rb_tree_node<std::allocator<std::pair<const std::basic_string<char, std::char_traits<char>, std::allocator<char>>, int>>, std::pair<const std::basic_string<char, std::char_traits<char>, std::allocator<char>>, int>, std::basic_string<char, std::char_traits<char>, std::allocator<char>>, __rw::__select1st<std::pair<const std::basic_string<char, std::char_traits<char>, std::allocator<char>>, int>, std::basic_string<char, std::char_traits<char>, std::allocator<char>>>>::_C_parent()
    main.o(t._ZN4__rw9__rb_treeISsSt4pairIKSsiENS_11__select1stIS3_SsEESt4lessISsESaIS3_EE13__rotate_leftEPNS_17__rw_rb_tree_nodeIS8_S3_SsS5_EE) refers to main.o(t._ZNK4__rw9__rb_treeISsSt4pairIKSsiENS_11__select1stIS3_SsEESt4lessISsESaIS3_EE7_C_rootEv) for __rw::__rb_tree<std::basic_string<char, std::char_traits<char>, std::allocator<char>>, std::pair<const std::basic_string<char, std::char_traits<char>, std::allocator<char>>, int>, __rw::__select1st<std::pair<const std::basic_string<char, std::char_traits<char>, std::allocator<char>>, int>, std::basic_string<char, std::char_traits<char>, std::allocator<char>>>, std::less<std::basic_string<char, std::char_traits<char>, std::allocator<char>>>, std::allocator<std::pair<const std::basic_string<char, std::char_traits<char>, std::allocator<char>>, int>>>::_C_root() const
    main.o(.ARM.exidx) refers to main.o(t._ZN4__rw9__rb_treeISsSt4pairIKSsiENS_11__select1stIS3_SsEESt4lessISsESaIS3_EE13__rotate_leftEPNS_17__rw_rb_tree_nodeIS8_S3_SsS5_EE) for t._ZN4__rw9__rb_treeISsSt4pairIKSsiENS_11__select1stIS3_SsEESt4lessISsESaIS3_EE13__rotate_leftEPNS_17__rw_rb_tree_nodeIS8_S3_SsS5_EE
    main.o(.ARM.exidx) refers to unwind_pr0.o(.text) for __aeabi_unwind_cpp_pr0
    main.o(t._ZN4__rw9__rb_treeISsSt4pairIKSsiENS_11__select1stIS3_SsEESt4lessISsESaIS3_EE5eraseENS_14__rw_tree_iterIS3_iPS3_RS3_NS_17__rw_rb_tree_nodeIS8_S3_SsS5_EEEE) refers to main.o(t._ZN4__rw14__rw_tree_iterISt4pairIKSsiEiPS3_RS3_NS_17__rw_rb_tree_nodeISaIS3_ES3_SsNS_11__select1stIS3_SsEEEEEC1ERKSB_) for __rw::__rw_tree_iter<std::pair<const std::basic_string<char, std::char_traits<char>, std::allocator<char>>, int>, int, std::pair<const std::basic_string<char, std::char_traits<char>, std::allocator<char>>, int>*, std::pair<const std::basic_string<char, std::char_traits<char>, std::allocator<char>>, int>&, __rw::__rw_rb_tree_node<std::allocator<std::pair<const std::basic_string<char, std::char_traits<char>, std::allocator<char>>, int>>, std::pair<const std::basic_string<char, std::char_traits<char>, std::allocator<char>>, int>, std::basic_string<char, std::char_traits<char>, std::allocator<char>>, __rw::__select1st<std::pair<const std::basic_string<char, std::char_traits<char>, std::allocator<char>>, int>, std::basic_string<char, std::char_traits<char>, std::allocator<char>>>>>::__rw_tree_iter(const __rw::__rw_tree_iter<std::pair<const std::basic_string<char, std::char_traits<char>, std::allocator<char>>, int>, int, std::pair<const std::basic_string<char, std::char_traits<char>, std::allocator<char>>, int>*, std::pair<const std::basic_string<char, std::char_traits<char>, std::allocator<char>>, int>&, __rw::__rw_rb_tree_node<std::allocator<std::pair<const std::basic_string<char, std::char_traits<char>, std::allocator<char>>, int>>, std::pair<const std::basic_string<char, std::char_traits<char>, std::allocator<char>>, int>, std::basic_string<char, std::char_traits<char>, std::allocator<char>>, __rw::__select1st<std::pair<const std::basic_string<char, std::char_traits<char>, std::allocator<char>>, int>, std::basic_string<char, std::char_traits<char>, std::allocator<char>>>>>&)
    main.o(t._ZN4__rw9__rb_treeISsSt4pairIKSsiENS_11__select1stIS3_SsEESt4lessISsESaIS3_EE5eraseENS_14__rw_tree_iterIS3_iPS3_RS3_NS_17__rw_rb_tree_nodeIS8_S3_SsS5_EEEE) refers to main.o(t._ZN4__rw9__rb_treeISsSt4pairIKSsiENS_11__select1stIS3_SsEESt4lessISsESaIS3_EE3endEv) for __rw::__rb_tree<std::basic_string<char, std::char_traits<char>, std::allocator<char>>, std::pair<const std::basic_string<char, std::char_traits<char>, std::allocator<char>>, int>, __rw::__select1st<std::pair<const std::basic_string<char, std::char_traits<char>, std::allocator<char>>, int>, std::basic_string<char, std::char_traits<char>, std::allocator<char>>>, std::less<std::basic_string<char, std::char_traits<char>, std::allocator<char>>>, std::allocator<std::pair<const std::basic_string<char, std::char_traits<char>, std::allocator<char>>, int>>>::end()
    main.o(t._ZN4__rw9__rb_treeISsSt4pairIKSsiENS_11__select1stIS3_SsEESt4lessISsESaIS3_EE5eraseENS_14__rw_tree_iterIS3_iPS3_RS3_NS_17__rw_rb_tree_nodeIS8_S3_SsS5_EEEE) refers to main.o(t._ZN4__rweqISt4pairIKSsiEiPS3_RS3_S4_S5_NS_17__rw_rb_tree_nodeISaIS3_ES3_SsNS_11__select1stIS3_SsEEEEEEbRKNS_14__rw_tree_iterIT_T0_T1_T2_T5_EERKNSB_ISC_SD_T3_T4_SG_EE) for bool __rw::operator ==<std::pair<const std::basic_string<char, std::char_traits<char>, std::allocator<char>>, int>, int, std::pair<const std::basic_string<char, std::char_traits<char>, std::allocator<char>>, int>*, std::pair<const std::basic_string<char, std::char_traits<char>, std::allocator<char>>, int>&, std::pair<const std::basic_string<char, std::char_traits<char>, std::allocator<char>>, int>*, std::pair<const std::basic_string<char, std::char_traits<char>, std::allocator<char>>, int>&, __rw::__rw_rb_tree_node<std::allocator<std::pair<const std::basic_string<char, std::char_traits<char>, std::allocator<char>>, int>>, std::pair<const std::basic_string<char, std::char_traits<char>, std::allocator<char>>, int>, std::basic_string<char, std::char_traits<char>, std::allocator<char>>, __rw::__select1st<std::pair<const std::basic_string<char, std::char_traits<char>, std::allocator<char>>, int>, std::basic_string<char, std::char_traits<char>, std::allocator<char>>>>>(const __rw::__rw_tree_iter<T1, T2, T3, T4, T7>&, const __rw::__rw_tree_iter<T1, T2, T5, T6, T7>&)
    main.o(t._ZN4__rw9__rb_treeISsSt4pairIKSsiENS_11__select1stIS3_SsEESt4lessISsESaIS3_EE5eraseENS_14__rw_tree_iterIS3_iPS3_RS3_NS_17__rw_rb_tree_nodeIS8_S3_SsS5_EEEE) refers to main.o(t._ZN4__rw14__rw_tree_iterISt4pairIKSsiEiPS3_RS3_NS_17__rw_rb_tree_nodeISaIS3_ES3_SsNS_11__select1stIS3_SsEEEEEppEv) for __rw::__rw_tree_iter<std::pair<const std::basic_string<char, std::char_traits<char>, std::allocator<char>>, int>, int, std::pair<const std::basic_string<char, std::char_traits<char>, std::allocator<char>>, int>*, std::pair<const std::basic_string<char, std::char_traits<char>, std::allocator<char>>, int>&, __rw::__rw_rb_tree_node<std::allocator<std::pair<const std::basic_string<char, std::char_traits<char>, std::allocator<char>>, int>>, std::pair<const std::basic_string<char, std::char_traits<char>, std::allocator<char>>, int>, std::basic_string<char, std::char_traits<char>, std::allocator<char>>, __rw::__select1st<std::pair<const std::basic_string<char, std::char_traits<char>, std::allocator<char>>, int>, std::basic_string<char, std::char_traits<char>, std::allocator<char>>>>>::operator ++()
    main.o(t._ZN4__rw9__rb_treeISsSt4pairIKSsiENS_11__select1stIS3_SsEESt4lessISsESaIS3_EE5eraseENS_14__rw_tree_iterIS3_iPS3_RS3_NS_17__rw_rb_tree_nodeIS8_S3_SsS5_EEEE) refers to main.o(t._ZN4__rw17__rw_rb_tree_nodeISaISt4pairIKSsiEES3_SsNS_11__select1stIS3_SsEEE7_C_leftEv) for __rw::__rw_rb_tree_node<std::allocator<std::pair<const std::basic_string<char, std::char_traits<char>, std::allocator<char>>, int>>, std::pair<const std::basic_string<char, std::char_traits<char>, std::allocator<char>>, int>, std::basic_string<char, std::char_traits<char>, std::allocator<char>>, __rw::__select1st<std::pair<const std::basic_string<char, std::char_traits<char>, std::allocator<char>>, int>, std::basic_string<char, std::char_traits<char>, std::allocator<char>>>>::_C_left()
    main.o(t._ZN4__rw9__rb_treeISsSt4pairIKSsiENS_11__select1stIS3_SsEESt4lessISsESaIS3_EE5eraseENS_14__rw_tree_iterIS3_iPS3_RS3_NS_17__rw_rb_tree_nodeIS8_S3_SsS5_EEEE) refers to main.o(t._ZN4__rw17__rw_rb_tree_nodeISaISt4pairIKSsiEES3_SsNS_11__select1stIS3_SsEEE8_C_rightEv) for __rw::__rw_rb_tree_node<std::allocator<std::pair<const std::basic_string<char, std::char_traits<char>, std::allocator<char>>, int>>, std::pair<const std::basic_string<char, std::char_traits<char>, std::allocator<char>>, int>, std::basic_string<char, std::char_traits<char>, std::allocator<char>>, __rw::__select1st<std::pair<const std::basic_string<char, std::char_traits<char>, std::allocator<char>>, int>, std::basic_string<char, std::char_traits<char>, std::allocator<char>>>>::_C_right()
    main.o(t._ZN4__rw9__rb_treeISsSt4pairIKSsiENS_11__select1stIS3_SsEESt4lessISsESaIS3_EE5eraseENS_14__rw_tree_iterIS3_iPS3_RS3_NS_17__rw_rb_tree_nodeIS8_S3_SsS5_EEEE) refers to main.o(t._ZN4__rw17__rw_rb_tree_nodeISaISt4pairIKSsiEES3_SsNS_11__select1stIS3_SsEEE9_C_parentEv) for __rw::__rw_rb_tree_node<std::allocator<std::pair<const std::basic_string<char, std::char_traits<char>, std::allocator<char>>, int>>, std::pair<const std::basic_string<char, std::char_traits<char>, std::allocator<char>>, int>, std::basic_string<char, std::char_traits<char>, std::allocator<char>>, __rw::__select1st<std::pair<const std::basic_string<char, std::char_traits<char>, std::allocator<char>>, int>, std::basic_string<char, std::char_traits<char>, std::allocator<char>>>>::_C_parent()
    main.o(t._ZN4__rw9__rb_treeISsSt4pairIKSsiENS_11__select1stIS3_SsEESt4lessISsESaIS3_EE5eraseENS_14__rw_tree_iterIS3_iPS3_RS3_NS_17__rw_rb_tree_nodeIS8_S3_SsS5_EEEE) refers to main.o(t._ZN4__rw9__rb_treeISsSt4pairIKSsiENS_11__select1stIS3_SsEESt4lessISsESaIS3_EE13_C_erase_leafEPNS_17__rw_rb_tree_nodeIS8_S3_SsS5_EE) for __rw::__rb_tree<std::basic_string<char, std::char_traits<char>, std::allocator<char>>, std::pair<const std::basic_string<char, std::char_traits<char>, std::allocator<char>>, int>, __rw::__select1st<std::pair<const std::basic_string<char, std::char_traits<char>, std::allocator<char>>, int>, std::basic_string<char, std::char_traits<char>, std::allocator<char>>>, std::less<std::basic_string<char, std::char_traits<char>, std::allocator<char>>>, std::allocator<std::pair<const std::basic_string<char, std::char_traits<char>, std::allocator<char>>, int>>>::_C_erase_leaf(__rw::__rw_rb_tree_node<std::allocator<std::pair<const std::basic_string<char, std::char_traits<char>, std::allocator<char>>, int>>, std::pair<const std::basic_string<char, std::char_traits<char>, std::allocator<char>>, int>, std::basic_string<char, std::char_traits<char>, std::allocator<char>>, __rw::__select1st<std::pair<const std::basic_string<char, std::char_traits<char>, std::allocator<char>>, int>, std::basic_string<char, std::char_traits<char>, std::allocator<char>>>>*)
    main.o(t._ZN4__rw9__rb_treeISsSt4pairIKSsiENS_11__select1stIS3_SsEESt4lessISsESaIS3_EE5eraseENS_14__rw_tree_iterIS3_iPS3_RS3_NS_17__rw_rb_tree_nodeIS8_S3_SsS5_EEEE) refers to main.o(t._ZNK4__rw9__rb_treeISsSt4pairIKSsiENS_11__select1stIS3_SsEESt4lessISsESaIS3_EE7_C_rootEv) for __rw::__rb_tree<std::basic_string<char, std::char_traits<char>, std::allocator<char>>, std::pair<const std::basic_string<char, std::char_traits<char>, std::allocator<char>>, int>, __rw::__select1st<std::pair<const std::basic_string<char, std::char_traits<char>, std::allocator<char>>, int>, std::basic_string<char, std::char_traits<char>, std::allocator<char>>>, std::less<std::basic_string<char, std::char_traits<char>, std::allocator<char>>>, std::allocator<std::pair<const std::basic_string<char, std::char_traits<char>, std::allocator<char>>, int>>>::_C_root() const
    main.o(t._ZN4__rw9__rb_treeISsSt4pairIKSsiENS_11__select1stIS3_SsEESt4lessISsESaIS3_EE5eraseENS_14__rw_tree_iterIS3_iPS3_RS3_NS_17__rw_rb_tree_nodeIS8_S3_SsS5_EEEE) refers to main.o(t._ZNK4__rw9__rb_treeISsSt4pairIKSsiENS_11__select1stIS3_SsEESt4lessISsESaIS3_EE11_C_leftmostEv) for __rw::__rb_tree<std::basic_string<char, std::char_traits<char>, std::allocator<char>>, std::pair<const std::basic_string<char, std::char_traits<char>, std::allocator<char>>, int>, __rw::__select1st<std::pair<const std::basic_string<char, std::char_traits<char>, std::allocator<char>>, int>, std::basic_string<char, std::char_traits<char>, std::allocator<char>>>, std::less<std::basic_string<char, std::char_traits<char>, std::allocator<char>>>, std::allocator<std::pair<const std::basic_string<char, std::char_traits<char>, std::allocator<char>>, int>>>::_C_leftmost() const
    main.o(t._ZN4__rw9__rb_treeISsSt4pairIKSsiENS_11__select1stIS3_SsEESt4lessISsESaIS3_EE5eraseENS_14__rw_tree_iterIS3_iPS3_RS3_NS_17__rw_rb_tree_nodeIS8_S3_SsS5_EEEE) refers to main.o(t._ZNK4__rw9__rb_treeISsSt4pairIKSsiENS_11__select1stIS3_SsEESt4lessISsESaIS3_EE12_C_rightmostEv) for __rw::__rb_tree<std::basic_string<char, std::char_traits<char>, std::allocator<char>>, std::pair<const std::basic_string<char, std::char_traits<char>, std::allocator<char>>, int>, __rw::__select1st<std::pair<const std::basic_string<char, std::char_traits<char>, std::allocator<char>>, int>, std::basic_string<char, std::char_traits<char>, std::allocator<char>>>, std::less<std::basic_string<char, std::char_traits<char>, std::allocator<char>>>, std::allocator<std::pair<const std::basic_string<char, std::char_traits<char>, std::allocator<char>>, int>>>::_C_rightmost() const
    main.o(t._ZN4__rw9__rb_treeISsSt4pairIKSsiENS_11__select1stIS3_SsEESt4lessISsESaIS3_EE5eraseENS_14__rw_tree_iterIS3_iPS3_RS3_NS_17__rw_rb_tree_nodeIS8_S3_SsS5_EEEE) refers to main.o(t._ZN4__rw9__rb_treeISsSt4pairIKSsiENS_11__select1stIS3_SsEESt4lessISsESaIS3_EE13__rotate_leftEPNS_17__rw_rb_tree_nodeIS8_S3_SsS5_EE) for __rw::__rb_tree<std::basic_string<char, std::char_traits<char>, std::allocator<char>>, std::pair<const std::basic_string<char, std::char_traits<char>, std::allocator<char>>, int>, __rw::__select1st<std::pair<const std::basic_string<char, std::char_traits<char>, std::allocator<char>>, int>, std::basic_string<char, std::char_traits<char>, std::allocator<char>>>, std::less<std::basic_string<char, std::char_traits<char>, std::allocator<char>>>, std::allocator<std::pair<const std::basic_string<char, std::char_traits<char>, std::allocator<char>>, int>>>::__rotate_left(__rw::__rw_rb_tree_node<std::allocator<std::pair<const std::basic_string<char, std::char_traits<char>, std::allocator<char>>, int>>, std::pair<const std::basic_string<char, std::char_traits<char>, std::allocator<char>>, int>, std::basic_string<char, std::char_traits<char>, std::allocator<char>>, __rw::__select1st<std::pair<const std::basic_string<char, std::char_traits<char>, std::allocator<char>>, int>, std::basic_string<char, std::char_traits<char>, std::allocator<char>>>>*)
    main.o(t._ZN4__rw9__rb_treeISsSt4pairIKSsiENS_11__select1stIS3_SsEESt4lessISsESaIS3_EE5eraseENS_14__rw_tree_iterIS3_iPS3_RS3_NS_17__rw_rb_tree_nodeIS8_S3_SsS5_EEEE) refers to main.o(t._ZN4__rw9__rb_treeISsSt4pairIKSsiENS_11__select1stIS3_SsEESt4lessISsESaIS3_EE14__rotate_rightEPNS_17__rw_rb_tree_nodeIS8_S3_SsS5_EE) for __rw::__rb_tree<std::basic_string<char, std::char_traits<char>, std::allocator<char>>, std::pair<const std::basic_string<char, std::char_traits<char>, std::allocator<char>>, int>, __rw::__select1st<std::pair<const std::basic_string<char, std::char_traits<char>, std::allocator<char>>, int>, std::basic_string<char, std::char_traits<char>, std::allocator<char>>>, std::less<std::basic_string<char, std::char_traits<char>, std::allocator<char>>>, std::allocator<std::pair<const std::basic_string<char, std::char_traits<char>, std::allocator<char>>, int>>>::__rotate_right(__rw::__rw_rb_tree_node<std::allocator<std::pair<const std::basic_string<char, std::char_traits<char>, std::allocator<char>>, int>>, std::pair<const std::basic_string<char, std::char_traits<char>, std::allocator<char>>, int>, std::basic_string<char, std::char_traits<char>, std::allocator<char>>, __rw::__select1st<std::pair<const std::basic_string<char, std::char_traits<char>, std::allocator<char>>, int>, std::basic_string<char, std::char_traits<char>, std::allocator<char>>>>*)
    main.o(t._ZN4__rw9__rb_treeISsSt4pairIKSsiENS_11__select1stIS3_SsEESt4lessISsESaIS3_EE5eraseENS_14__rw_tree_iterIS3_iPS3_RS3_NS_17__rw_rb_tree_nodeIS8_S3_SsS5_EEEE) refers to main.o(t._ZN4__rw9__rb_treeISsSt4pairIKSsiENS_11__select1stIS3_SsEESt4lessISsESaIS3_EE11_C_put_nodeEPNS_17__rw_rb_tree_nodeIS8_S3_SsS5_EEb) for __rw::__rb_tree<std::basic_string<char, std::char_traits<char>, std::allocator<char>>, std::pair<const std::basic_string<char, std::char_traits<char>, std::allocator<char>>, int>, __rw::__select1st<std::pair<const std::basic_string<char, std::char_traits<char>, std::allocator<char>>, int>, std::basic_string<char, std::char_traits<char>, std::allocator<char>>>, std::less<std::basic_string<char, std::char_traits<char>, std::allocator<char>>>, std::allocator<std::pair<const std::basic_string<char, std::char_traits<char>, std::allocator<char>>, int>>>::_C_put_node(__rw::__rw_rb_tree_node<std::allocator<std::pair<const std::basic_string<char, std::char_traits<char>, std::allocator<char>>, int>>, std::pair<const std::basic_string<char, std::char_traits<char>, std::allocator<char>>, int>, std::basic_string<char, std::char_traits<char>, std::allocator<char>>, __rw::__select1st<std::pair<const std::basic_string<char, std::char_traits<char>, std::allocator<char>>, int>, std::basic_string<char, std::char_traits<char>, std::allocator<char>>>>*, bool)
    main.o(.ARM.exidx) refers to main.o(t._ZN4__rw9__rb_treeISsSt4pairIKSsiENS_11__select1stIS3_SsEESt4lessISsESaIS3_EE5eraseENS_14__rw_tree_iterIS3_iPS3_RS3_NS_17__rw_rb_tree_nodeIS8_S3_SsS5_EEEE) for t._ZN4__rw9__rb_treeISsSt4pairIKSsiENS_11__select1stIS3_SsEESt4lessISsESaIS3_EE5eraseENS_14__rw_tree_iterIS3_iPS3_RS3_NS_17__rw_rb_tree_nodeIS8_S3_SsS5_EEEE
    main.o(.ARM.exidx) refers to unwind_pr0.o(.text) for __aeabi_unwind_cpp_pr0
    main.o(t._ZN4__rw9__rb_treeISsSt4pairIKSsiENS_11__select1stIS3_SsEESt4lessISsESaIS3_EE8_C_eraseEPNS_17__rw_rb_tree_nodeIS8_S3_SsS5_EE) refers to main.o(t._ZN4__rw17__rw_rb_tree_nodeISaISt4pairIKSsiEES3_SsNS_11__select1stIS3_SsEEE8_C_rightEv) for __rw::__rw_rb_tree_node<std::allocator<std::pair<const std::basic_string<char, std::char_traits<char>, std::allocator<char>>, int>>, std::pair<const std::basic_string<char, std::char_traits<char>, std::allocator<char>>, int>, std::basic_string<char, std::char_traits<char>, std::allocator<char>>, __rw::__select1st<std::pair<const std::basic_string<char, std::char_traits<char>, std::allocator<char>>, int>, std::basic_string<char, std::char_traits<char>, std::allocator<char>>>>::_C_right()
    main.o(t._ZN4__rw9__rb_treeISsSt4pairIKSsiENS_11__select1stIS3_SsEESt4lessISsESaIS3_EE8_C_eraseEPNS_17__rw_rb_tree_nodeIS8_S3_SsS5_EE) refers to main.o(t._ZN4__rw17__rw_rb_tree_nodeISaISt4pairIKSsiEES3_SsNS_11__select1stIS3_SsEEE7_C_leftEv) for __rw::__rw_rb_tree_node<std::allocator<std::pair<const std::basic_string<char, std::char_traits<char>, std::allocator<char>>, int>>, std::pair<const std::basic_string<char, std::char_traits<char>, std::allocator<char>>, int>, std::basic_string<char, std::char_traits<char>, std::allocator<char>>, __rw::__select1st<std::pair<const std::basic_string<char, std::char_traits<char>, std::allocator<char>>, int>, std::basic_string<char, std::char_traits<char>, std::allocator<char>>>>::_C_left()
    main.o(t._ZN4__rw9__rb_treeISsSt4pairIKSsiENS_11__select1stIS3_SsEESt4lessISsESaIS3_EE8_C_eraseEPNS_17__rw_rb_tree_nodeIS8_S3_SsS5_EE) refers to main.o(t._ZN4__rw9__rb_treeISsSt4pairIKSsiENS_11__select1stIS3_SsEESt4lessISsESaIS3_EE11_C_put_nodeEPNS_17__rw_rb_tree_nodeIS8_S3_SsS5_EEb) for __rw::__rb_tree<std::basic_string<char, std::char_traits<char>, std::allocator<char>>, std::pair<const std::basic_string<char, std::char_traits<char>, std::allocator<char>>, int>, __rw::__select1st<std::pair<const std::basic_string<char, std::char_traits<char>, std::allocator<char>>, int>, std::basic_string<char, std::char_traits<char>, std::allocator<char>>>, std::less<std::basic_string<char, std::char_traits<char>, std::allocator<char>>>, std::allocator<std::pair<const std::basic_string<char, std::char_traits<char>, std::allocator<char>>, int>>>::_C_put_node(__rw::__rw_rb_tree_node<std::allocator<std::pair<const std::basic_string<char, std::char_traits<char>, std::allocator<char>>, int>>, std::pair<const std::basic_string<char, std::char_traits<char>, std::allocator<char>>, int>, std::basic_string<char, std::char_traits<char>, std::allocator<char>>, __rw::__select1st<std::pair<const std::basic_string<char, std::char_traits<char>, std::allocator<char>>, int>, std::basic_string<char, std::char_traits<char>, std::allocator<char>>>>*, bool)
    main.o(.ARM.exidx) refers to main.o(t._ZN4__rw9__rb_treeISsSt4pairIKSsiENS_11__select1stIS3_SsEESt4lessISsESaIS3_EE8_C_eraseEPNS_17__rw_rb_tree_nodeIS8_S3_SsS5_EE) for t._ZN4__rw9__rb_treeISsSt4pairIKSsiENS_11__select1stIS3_SsEESt4lessISsESaIS3_EE8_C_eraseEPNS_17__rw_rb_tree_nodeIS8_S3_SsS5_EE
    main.o(.ARM.exidx) refers to unwind_pr0.o(.text) for __aeabi_unwind_cpp_pr0
    main.o(t._ZN4__rw9__rb_treeISsSt4pairIKSsiENS_11__select1stIS3_SsEESt4lessISsESaIS3_EE5eraseENS_14__rw_tree_iterIS3_iPS3_RS3_NS_17__rw_rb_tree_nodeIS8_S3_SsS5_EEEESF_) refers to main.o(t._ZN4__rw9__rb_treeISsSt4pairIKSsiENS_11__select1stIS3_SsEESt4lessISsESaIS3_EE3endEv) for __rw::__rb_tree<std::basic_string<char, std::char_traits<char>, std::allocator<char>>, std::pair<const std::basic_string<char, std::char_traits<char>, std::allocator<char>>, int>, __rw::__select1st<std::pair<const std::basic_string<char, std::char_traits<char>, std::allocator<char>>, int>, std::basic_string<char, std::char_traits<char>, std::allocator<char>>>, std::less<std::basic_string<char, std::char_traits<char>, std::allocator<char>>>, std::allocator<std::pair<const std::basic_string<char, std::char_traits<char>, std::allocator<char>>, int>>>::end()
    main.o(t._ZN4__rw9__rb_treeISsSt4pairIKSsiENS_11__select1stIS3_SsEESt4lessISsESaIS3_EE5eraseENS_14__rw_tree_iterIS3_iPS3_RS3_NS_17__rw_rb_tree_nodeIS8_S3_SsS5_EEEESF_) refers to main.o(t._ZN4__rw9__rb_treeISsSt4pairIKSsiENS_11__select1stIS3_SsEESt4lessISsESaIS3_EE5beginEv) for __rw::__rb_tree<std::basic_string<char, std::char_traits<char>, std::allocator<char>>, std::pair<const std::basic_string<char, std::char_traits<char>, std::allocator<char>>, int>, __rw::__select1st<std::pair<const std::basic_string<char, std::char_traits<char>, std::allocator<char>>, int>, std::basic_string<char, std::char_traits<char>, std::allocator<char>>>, std::less<std::basic_string<char, std::char_traits<char>, std::allocator<char>>>, std::allocator<std::pair<const std::basic_string<char, std::char_traits<char>, std::allocator<char>>, int>>>::begin()
    main.o(t._ZN4__rw9__rb_treeISsSt4pairIKSsiENS_11__select1stIS3_SsEESt4lessISsESaIS3_EE5eraseENS_14__rw_tree_iterIS3_iPS3_RS3_NS_17__rw_rb_tree_nodeIS8_S3_SsS5_EEEESF_) refers to main.o(t._ZN4__rweqISt4pairIKSsiEiPS3_RS3_S4_S5_NS_17__rw_rb_tree_nodeISaIS3_ES3_SsNS_11__select1stIS3_SsEEEEEEbRKNS_14__rw_tree_iterIT_T0_T1_T2_T5_EERKNSB_ISC_SD_T3_T4_SG_EE) for bool __rw::operator ==<std::pair<const std::basic_string<char, std::char_traits<char>, std::allocator<char>>, int>, int, std::pair<const std::basic_string<char, std::char_traits<char>, std::allocator<char>>, int>*, std::pair<const std::basic_string<char, std::char_traits<char>, std::allocator<char>>, int>&, std::pair<const std::basic_string<char, std::char_traits<char>, std::allocator<char>>, int>*, std::pair<const std::basic_string<char, std::char_traits<char>, std::allocator<char>>, int>&, __rw::__rw_rb_tree_node<std::allocator<std::pair<const std::basic_string<char, std::char_traits<char>, std::allocator<char>>, int>>, std::pair<const std::basic_string<char, std::char_traits<char>, std::allocator<char>>, int>, std::basic_string<char, std::char_traits<char>, std::allocator<char>>, __rw::__select1st<std::pair<const std::basic_string<char, std::char_traits<char>, std::allocator<char>>, int>, std::basic_string<char, std::char_traits<char>, std::allocator<char>>>>>(const __rw::__rw_tree_iter<T1, T2, T3, T4, T7>&, const __rw::__rw_tree_iter<T1, T2, T5, T6, T7>&)
    main.o(t._ZN4__rw9__rb_treeISsSt4pairIKSsiENS_11__select1stIS3_SsEESt4lessISsESaIS3_EE5eraseENS_14__rw_tree_iterIS3_iPS3_RS3_NS_17__rw_rb_tree_nodeIS8_S3_SsS5_EEEESF_) refers to main.o(t._ZNK4__rw9__rb_treeISsSt4pairIKSsiENS_11__select1stIS3_SsEESt4lessISsESaIS3_EE7_C_rootEv) for __rw::__rb_tree<std::basic_string<char, std::char_traits<char>, std::allocator<char>>, std::pair<const std::basic_string<char, std::char_traits<char>, std::allocator<char>>, int>, __rw::__select1st<std::pair<const std::basic_string<char, std::char_traits<char>, std::allocator<char>>, int>, std::basic_string<char, std::char_traits<char>, std::allocator<char>>>, std::less<std::basic_string<char, std::char_traits<char>, std::allocator<char>>>, std::allocator<std::pair<const std::basic_string<char, std::char_traits<char>, std::allocator<char>>, int>>>::_C_root() const
    main.o(t._ZN4__rw9__rb_treeISsSt4pairIKSsiENS_11__select1stIS3_SsEESt4lessISsESaIS3_EE5eraseENS_14__rw_tree_iterIS3_iPS3_RS3_NS_17__rw_rb_tree_nodeIS8_S3_SsS5_EEEESF_) refers to main.o(t._ZN4__rw9__rb_treeISsSt4pairIKSsiENS_11__select1stIS3_SsEESt4lessISsESaIS3_EE8_C_eraseEPNS_17__rw_rb_tree_nodeIS8_S3_SsS5_EE) for __rw::__rb_tree<std::basic_string<char, std::char_traits<char>, std::allocator<char>>, std::pair<const std::basic_string<char, std::char_traits<char>, std::allocator<char>>, int>, __rw::__select1st<std::pair<const std::basic_string<char, std::char_traits<char>, std::allocator<char>>, int>, std::basic_string<char, std::char_traits<char>, std::allocator<char>>>, std::less<std::basic_string<char, std::char_traits<char>, std::allocator<char>>>, std::allocator<std::pair<const std::basic_string<char, std::char_traits<char>, std::allocator<char>>, int>>>::_C_erase(__rw::__rw_rb_tree_node<std::allocator<std::pair<const std::basic_string<char, std::char_traits<char>, std::allocator<char>>, int>>, std::pair<const std::basic_string<char, std::char_traits<char>, std::allocator<char>>, int>, std::basic_string<char, std::char_traits<char>, std::allocator<char>>, __rw::__select1st<std::pair<const std::basic_string<char, std::char_traits<char>, std::allocator<char>>, int>, std::basic_string<char, std::char_traits<char>, std::allocator<char>>>>*)
    main.o(t._ZN4__rw9__rb_treeISsSt4pairIKSsiENS_11__select1stIS3_SsEESt4lessISsESaIS3_EE5eraseENS_14__rw_tree_iterIS3_iPS3_RS3_NS_17__rw_rb_tree_nodeIS8_S3_SsS5_EEEESF_) refers to main.o(t._ZNK4__rw9__rb_treeISsSt4pairIKSsiENS_11__select1stIS3_SsEESt4lessISsESaIS3_EE11_C_leftmostEv) for __rw::__rb_tree<std::basic_string<char, std::char_traits<char>, std::allocator<char>>, std::pair<const std::basic_string<char, std::char_traits<char>, std::allocator<char>>, int>, __rw::__select1st<std::pair<const std::basic_string<char, std::char_traits<char>, std::allocator<char>>, int>, std::basic_string<char, std::char_traits<char>, std::allocator<char>>>, std::less<std::basic_string<char, std::char_traits<char>, std::allocator<char>>>, std::allocator<std::pair<const std::basic_string<char, std::char_traits<char>, std::allocator<char>>, int>>>::_C_leftmost() const
    main.o(t._ZN4__rw9__rb_treeISsSt4pairIKSsiENS_11__select1stIS3_SsEESt4lessISsESaIS3_EE5eraseENS_14__rw_tree_iterIS3_iPS3_RS3_NS_17__rw_rb_tree_nodeIS8_S3_SsS5_EEEESF_) refers to main.o(t._ZNK4__rw9__rb_treeISsSt4pairIKSsiENS_11__select1stIS3_SsEESt4lessISsESaIS3_EE12_C_rightmostEv) for __rw::__rb_tree<std::basic_string<char, std::char_traits<char>, std::allocator<char>>, std::pair<const std::basic_string<char, std::char_traits<char>, std::allocator<char>>, int>, __rw::__select1st<std::pair<const std::basic_string<char, std::char_traits<char>, std::allocator<char>>, int>, std::basic_string<char, std::char_traits<char>, std::allocator<char>>>, std::less<std::basic_string<char, std::char_traits<char>, std::allocator<char>>>, std::allocator<std::pair<const std::basic_string<char, std::char_traits<char>, std::allocator<char>>, int>>>::_C_rightmost() const
    main.o(t._ZN4__rw9__rb_treeISsSt4pairIKSsiENS_11__select1stIS3_SsEESt4lessISsESaIS3_EE5eraseENS_14__rw_tree_iterIS3_iPS3_RS3_NS_17__rw_rb_tree_nodeIS8_S3_SsS5_EEEESF_) refers to main.o(t._ZN4__rw14__rw_tree_iterISt4pairIKSsiEiPS3_RS3_NS_17__rw_rb_tree_nodeISaIS3_ES3_SsNS_11__select1stIS3_SsEEEEEppEi) for __rw::__rw_tree_iter<std::pair<const std::basic_string<char, std::char_traits<char>, std::allocator<char>>, int>, int, std::pair<const std::basic_string<char, std::char_traits<char>, std::allocator<char>>, int>*, std::pair<const std::basic_string<char, std::char_traits<char>, std::allocator<char>>, int>&, __rw::__rw_rb_tree_node<std::allocator<std::pair<const std::basic_string<char, std::char_traits<char>, std::allocator<char>>, int>>, std::pair<const std::basic_string<char, std::char_traits<char>, std::allocator<char>>, int>, std::basic_string<char, std::char_traits<char>, std::allocator<char>>, __rw::__select1st<std::pair<const std::basic_string<char, std::char_traits<char>, std::allocator<char>>, int>, std::basic_string<char, std::char_traits<char>, std::allocator<char>>>>>::operator ++(int)
    main.o(t._ZN4__rw9__rb_treeISsSt4pairIKSsiENS_11__select1stIS3_SsEESt4lessISsESaIS3_EE5eraseENS_14__rw_tree_iterIS3_iPS3_RS3_NS_17__rw_rb_tree_nodeIS8_S3_SsS5_EEEESF_) refers to main.o(t._ZN4__rw9__rb_treeISsSt4pairIKSsiENS_11__select1stIS3_SsEESt4lessISsESaIS3_EE5eraseENS_14__rw_tree_iterIS3_iPS3_RS3_NS_17__rw_rb_tree_nodeIS8_S3_SsS5_EEEE) for __rw::__rb_tree<std::basic_string<char, std::char_traits<char>, std::allocator<char>>, std::pair<const std::basic_string<char, std::char_traits<char>, std::allocator<char>>, int>, __rw::__select1st<std::pair<const std::basic_string<char, std::char_traits<char>, std::allocator<char>>, int>, std::basic_string<char, std::char_traits<char>, std::allocator<char>>>, std::less<std::basic_string<char, std::char_traits<char>, std::allocator<char>>>, std::allocator<std::pair<const std::basic_string<char, std::char_traits<char>, std::allocator<char>>, int>>>::erase(__rw::__rw_tree_iter<std::pair<const std::basic_string<char, std::char_traits<char>, std::allocator<char>>, int>, int, std::pair<const std::basic_string<char, std::char_traits<char>, std::allocator<char>>, int>*, std::pair<const std::basic_string<char, std::char_traits<char>, std::allocator<char>>, int>&, __rw::__rw_rb_tree_node<std::allocator<std::pair<const std::basic_string<char, std::char_traits<char>, std::allocator<char>>, int>>, std::pair<const std::basic_string<char, std::char_traits<char>, std::allocator<char>>, int>, std::basic_string<char, std::char_traits<char>, std::allocator<char>>, __rw::__select1st<std::pair<const std::basic_string<char, std::char_traits<char>, std::allocator<char>>, int>, std::basic_string<char, std::char_traits<char>, std::allocator<char>>>>>)
    main.o(t._ZN4__rw9__rb_treeISsSt4pairIKSsiENS_11__select1stIS3_SsEESt4lessISsESaIS3_EE5eraseENS_14__rw_tree_iterIS3_iPS3_RS3_NS_17__rw_rb_tree_nodeIS8_S3_SsS5_EEEESF_) refers to main.o(t._ZN4__rwneISt4pairIKSsiEiPS3_RS3_S4_S5_NS_17__rw_rb_tree_nodeISaIS3_ES3_SsNS_11__select1stIS3_SsEEEEEEbRKNS_14__rw_tree_iterIT_T0_T1_T2_T5_EERKNSB_ISC_SD_T3_T4_SG_EE) for bool __rw::operator !=<std::pair<const std::basic_string<char, std::char_traits<char>, std::allocator<char>>, int>, int, std::pair<const std::basic_string<char, std::char_traits<char>, std::allocator<char>>, int>*, std::pair<const std::basic_string<char, std::char_traits<char>, std::allocator<char>>, int>&, std::pair<const std::basic_string<char, std::char_traits<char>, std::allocator<char>>, int>*, std::pair<const std::basic_string<char, std::char_traits<char>, std::allocator<char>>, int>&, __rw::__rw_rb_tree_node<std::allocator<std::pair<const std::basic_string<char, std::char_traits<char>, std::allocator<char>>, int>>, std::pair<const std::basic_string<char, std::char_traits<char>, std::allocator<char>>, int>, std::basic_string<char, std::char_traits<char>, std::allocator<char>>, __rw::__select1st<std::pair<const std::basic_string<char, std::char_traits<char>, std::allocator<char>>, int>, std::basic_string<char, std::char_traits<char>, std::allocator<char>>>>>(const __rw::__rw_tree_iter<T1, T2, T3, T4, T7>&, const __rw::__rw_tree_iter<T1, T2, T5, T6, T7>&)
    main.o(.ARM.exidx) refers to main.o(t._ZN4__rw9__rb_treeISsSt4pairIKSsiENS_11__select1stIS3_SsEESt4lessISsESaIS3_EE5eraseENS_14__rw_tree_iterIS3_iPS3_RS3_NS_17__rw_rb_tree_nodeIS8_S3_SsS5_EEEESF_) for t._ZN4__rw9__rb_treeISsSt4pairIKSsiENS_11__select1stIS3_SsEESt4lessISsESaIS3_EE5eraseENS_14__rw_tree_iterIS3_iPS3_RS3_NS_17__rw_rb_tree_nodeIS8_S3_SsS5_EEEESF_
    main.o(.ARM.exidx) refers to unwind_pr0.o(.text) for __aeabi_unwind_cpp_pr0
    main.o(t._ZN4__rw9__rb_treeISsSt4pairIKSsiENS_11__select1stIS3_SsEESt4lessISsESaIS3_EED1Ev) refers to main.o(t._ZN4__rw9__rb_treeISsSt4pairIKSsiENS_11__select1stIS3_SsEESt4lessISsESaIS3_EE3endEv) for __rw::__rb_tree<std::basic_string<char, std::char_traits<char>, std::allocator<char>>, std::pair<const std::basic_string<char, std::char_traits<char>, std::allocator<char>>, int>, __rw::__select1st<std::pair<const std::basic_string<char, std::char_traits<char>, std::allocator<char>>, int>, std::basic_string<char, std::char_traits<char>, std::allocator<char>>>, std::less<std::basic_string<char, std::char_traits<char>, std::allocator<char>>>, std::allocator<std::pair<const std::basic_string<char, std::char_traits<char>, std::allocator<char>>, int>>>::end()
    main.o(t._ZN4__rw9__rb_treeISsSt4pairIKSsiENS_11__select1stIS3_SsEESt4lessISsESaIS3_EED1Ev) refers to main.o(t._ZN4__rw9__rb_treeISsSt4pairIKSsiENS_11__select1stIS3_SsEESt4lessISsESaIS3_EE5beginEv) for __rw::__rb_tree<std::basic_string<char, std::char_traits<char>, std::allocator<char>>, std::pair<const std::basic_string<char, std::char_traits<char>, std::allocator<char>>, int>, __rw::__select1st<std::pair<const std::basic_string<char, std::char_traits<char>, std::allocator<char>>, int>, std::basic_string<char, std::char_traits<char>, std::allocator<char>>>, std::less<std::basic_string<char, std::char_traits<char>, std::allocator<char>>>, std::allocator<std::pair<const std::basic_string<char, std::char_traits<char>, std::allocator<char>>, int>>>::begin()
    main.o(t._ZN4__rw9__rb_treeISsSt4pairIKSsiENS_11__select1stIS3_SsEESt4lessISsESaIS3_EED1Ev) refers to main.o(t._ZN4__rw9__rb_treeISsSt4pairIKSsiENS_11__select1stIS3_SsEESt4lessISsESaIS3_EE5eraseENS_14__rw_tree_iterIS3_iPS3_RS3_NS_17__rw_rb_tree_nodeIS8_S3_SsS5_EEEESF_) for __rw::__rb_tree<std::basic_string<char, std::char_traits<char>, std::allocator<char>>, std::pair<const std::basic_string<char, std::char_traits<char>, std::allocator<char>>, int>, __rw::__select1st<std::pair<const std::basic_string<char, std::char_traits<char>, std::allocator<char>>, int>, std::basic_string<char, std::char_traits<char>, std::allocator<char>>>, std::less<std::basic_string<char, std::char_traits<char>, std::allocator<char>>>, std::allocator<std::pair<const std::basic_string<char, std::char_traits<char>, std::allocator<char>>, int>>>::erase(__rw::__rw_tree_iter<std::pair<const std::basic_string<char, std::char_traits<char>, std::allocator<char>>, int>, int, std::pair<const std::basic_string<char, std::char_traits<char>, std::allocator<char>>, int>*, std::pair<const std::basic_string<char, std::char_traits<char>, std::allocator<char>>, int>&, __rw::__rw_rb_tree_node<std::allocator<std::pair<const std::basic_string<char, std::char_traits<char>, std::allocator<char>>, int>>, std::pair<const std::basic_string<char, std::char_traits<char>, std::allocator<char>>, int>, std::basic_string<char, std::char_traits<char>, std::allocator<char>>, __rw::__select1st<std::pair<const std::basic_string<char, std::char_traits<char>, std::allocator<char>>, int>, std::basic_string<char, std::char_traits<char>, std::allocator<char>>>>>, __rw::__rw_tree_iter<std::pair<const std::basic_string<char, std::char_traits<char>, std::allocator<char>>, int>, int, std::pair<const std::basic_string<char, std::char_traits<char>, std::allocator<char>>, int>*, std::pair<const std::basic_string<char, std::char_traits<char>, std::allocator<char>>, int>&, __rw::__rw_rb_tree_node<std::allocator<std::pair<const std::basic_string<char, std::char_traits<char>, std::allocator<char>>, int>>, std::pair<const std::basic_string<char, std::char_traits<char>, std::allocator<char>>, int>, std::basic_string<char, std::char_traits<char>, std::allocator<char>>, __rw::__select1st<std::pair<const std::basic_string<char, std::char_traits<char>, std::allocator<char>>, int>, std::basic_string<char, std::char_traits<char>, std::allocator<char>>>>>)
    main.o(t._ZN4__rw9__rb_treeISsSt4pairIKSsiENS_11__select1stIS3_SsEESt4lessISsESaIS3_EED1Ev) refers to main.o(t._ZN4__rw9__rb_treeISsSt4pairIKSsiENS_11__select1stIS3_SsEESt4lessISsESaIS3_EE11_C_put_nodeEPNS_17__rw_rb_tree_nodeIS8_S3_SsS5_EEb) for __rw::__rb_tree<std::basic_string<char, std::char_traits<char>, std::allocator<char>>, std::pair<const std::basic_string<char, std::char_traits<char>, std::allocator<char>>, int>, __rw::__select1st<std::pair<const std::basic_string<char, std::char_traits<char>, std::allocator<char>>, int>, std::basic_string<char, std::char_traits<char>, std::allocator<char>>>, std::less<std::basic_string<char, std::char_traits<char>, std::allocator<char>>>, std::allocator<std::pair<const std::basic_string<char, std::char_traits<char>, std::allocator<char>>, int>>>::_C_put_node(__rw::__rw_rb_tree_node<std::allocator<std::pair<const std::basic_string<char, std::char_traits<char>, std::allocator<char>>, int>>, std::pair<const std::basic_string<char, std::char_traits<char>, std::allocator<char>>, int>, std::basic_string<char, std::char_traits<char>, std::allocator<char>>, __rw::__select1st<std::pair<const std::basic_string<char, std::char_traits<char>, std::allocator<char>>, int>, std::basic_string<char, std::char_traits<char>, std::allocator<char>>>>*, bool)
    main.o(t._ZN4__rw9__rb_treeISsSt4pairIKSsiENS_11__select1stIS3_SsEESt4lessISsESaIS3_EED1Ev) refers to main.o(t._ZN4__rw9__rb_treeISsSt4pairIKSsiENS_11__select1stIS3_SsEESt4lessISsESaIS3_EE21_C_deallocate_buffersEv) for __rw::__rb_tree<std::basic_string<char, std::char_traits<char>, std::allocator<char>>, std::pair<const std::basic_string<char, std::char_traits<char>, std::allocator<char>>, int>, __rw::__select1st<std::pair<const std::basic_string<char, std::char_traits<char>, std::allocator<char>>, int>, std::basic_string<char, std::char_traits<char>, std::allocator<char>>>, std::less<std::basic_string<char, std::char_traits<char>, std::allocator<char>>>, std::allocator<std::pair<const std::basic_string<char, std::char_traits<char>, std::allocator<char>>, int>>>::_C_deallocate_buffers()
    main.o(.ARM.exidx) refers to main.o(t._ZN4__rw9__rb_treeISsSt4pairIKSsiENS_11__select1stIS3_SsEESt4lessISsESaIS3_EED1Ev) for t._ZN4__rw9__rb_treeISsSt4pairIKSsiENS_11__select1stIS3_SsEESt4lessISsESaIS3_EED1Ev
    main.o(.ARM.exidx) refers to unwind_pr0.o(.text) for __aeabi_unwind_cpp_pr0
    main.o(i._ZNKSt6locale12_C_use_facetERKNS_2idEbiPFPN4__rw15__rw_facet_baseEiPKcjE) refers to locale.o(i._ZNKSt6locale13_C_make_facetERKNS_2idEbiPFPN4__rw15__rw_facet_baseEiPKcjE) for std::locale::_C_make_facet(const std::locale::id&, bool, int, __rw::__rw_facet_base*(*)(int, const char*, unsigned)) const
    main.o(.ARM.exidx) refers to main.o(i._ZNKSt6locale12_C_use_facetERKNS_2idEbiPFPN4__rw15__rw_facet_baseEiPKcjE) for i._ZNKSt6locale12_C_use_facetERKNS_2idEbiPFPN4__rw15__rw_facet_baseEiPKcjE
    main.o(.ARM.exidx) refers to unwind_pr0.o(.text) for __aeabi_unwind_cpp_pr0
    main.o(t._ZNSt9basic_iosIcSt11char_traitsIcEE5clearEii) refers to main.o(t._ZNKSt9basic_iosIcSt11char_traitsIcEE5rdbufEv) for std::basic_ios<char, std::char_traits<char>>::rdbuf() const
    main.o(t._ZNSt9basic_iosIcSt11char_traitsIcEE5clearEii) refers to ios.o(i._ZNSt8ios_base15_C_unsafe_clearEii) for std::ios_base::_C_unsafe_clear(int, int)
    main.o(.ARM.exidx) refers to main.o(t._ZNSt9basic_iosIcSt11char_traitsIcEE5clearEii) for t._ZNSt9basic_iosIcSt11char_traitsIcEE5clearEii
    main.o(.ARM.exidx) refers to unwind_pr0.o(.text) for __aeabi_unwind_cpp_pr0
    main.o(t._ZNSt9basic_iosIcSt11char_traitsIcEE8setstateEii) refers to main.o(t._ZNSt9basic_iosIcSt11char_traitsIcEE5clearEii) for std::basic_ios<char, std::char_traits<char>>::clear(int, int)
    main.o(.ARM.exidx) refers to main.o(t._ZNSt9basic_iosIcSt11char_traitsIcEE8setstateEii) for t._ZNSt9basic_iosIcSt11char_traitsIcEE8setstateEii
    main.o(.ARM.exidx) refers to unwind_pr0.o(.text) for __aeabi_unwind_cpp_pr0
    main.o(i._ZNKSo9_C_is_stdEv) refers to main.o(i._ZNKSo10_C_is_coutEv) for std::basic_ostream<char, std::char_traits<char>>::_C_is_cout() const
    main.o(i._ZNKSo9_C_is_stdEv) refers to ios.o(.bss) for std::__rw_std_streams
    main.o(.ARM.exidx) refers to main.o(i._ZNKSo9_C_is_stdEv) for i._ZNKSo9_C_is_stdEv
    main.o(.ARM.exidx) refers to unwind_pr0.o(.text) for __aeabi_unwind_cpp_pr0
    main.o(t._ZNSo6sentryD1Ev) refers to main.o(i._ZNKSt8ios_base5flagsEv) for std::ios_base::flags() const
    main.o(t._ZNSo6sentryD1Ev) refers to main.o(i._ZNKSo9_C_is_stdEv) for std::basic_ostream<char, std::char_traits<char>>::_C_is_std() const
    main.o(t._ZNSo6sentryD1Ev) refers to arm_exceptions_uncaught.o(.text) for std::uncaught_exception()
    main.o(t._ZNSo6sentryD1Ev) refers to main.o(t._ZNKSt9basic_iosIcSt11char_traitsIcEE5rdbufEv) for std::basic_ios<char, std::char_traits<char>>::rdbuf() const
    main.o(t._ZNSo6sentryD1Ev) refers to main.o(t._ZNSt15basic_streambufIcSt11char_traitsIcEE7pubsyncEv) for std::basic_streambuf<char, std::char_traits<char>>::pubsync()
    main.o(t._ZNSo6sentryD1Ev) refers to main.o(t._ZNSt9basic_iosIcSt11char_traitsIcEE8setstateEii) for std::basic_ios<char, std::char_traits<char>>::setstate(int, int)
    main.o(t._ZNSo6sentryD1Ev) refers to ios.o(.data) for std::ios_base::_C_sync_with_stdio
    main.o(.ARM.exidx) refers to main.o(t._ZNSo6sentryD1Ev) for t._ZNSo6sentryD1Ev
    main.o(.ARM.exidx) refers to unwind_pr0.o(.text) for __aeabi_unwind_cpp_pr0
    main.o(t._ZNSt9basic_iosIcSt11char_traitsIcEE8setstateEi) refers to main.o(t._ZNSt9basic_iosIcSt11char_traitsIcEE5clearEii) for std::basic_ios<char, std::char_traits<char>>::clear(int, int)
    main.o(.ARM.exidx) refers to main.o(t._ZNSt9basic_iosIcSt11char_traitsIcEE8setstateEi) for t._ZNSt9basic_iosIcSt11char_traitsIcEE8setstateEi
    main.o(.ARM.exidx) refers to unwind_pr0.o(.text) for __aeabi_unwind_cpp_pr0
    main.o(t._ZNSt15basic_streambufIcSt11char_traitsIcEE5sputcEc) refers to main.o(i._ZNSt11char_traitsIcE6assignERcRKc) for std::char_traits<char>::assign(char&, const char&)
    main.o(.ARM.exidx) refers to main.o(t._ZNSt15basic_streambufIcSt11char_traitsIcEE5sputcEc) for t._ZNSt15basic_streambufIcSt11char_traitsIcEE5sputcEc
    main.o(.ARM.exidx) refers to unwind_pr0.o(.text) for __aeabi_unwind_cpp_pr0
    main.o(t._ZNSo6_C_padEl) refers to main.o(t._ZNKSt9basic_iosIcSt11char_traitsIcEE5rdbufEv) for std::basic_ios<char, std::char_traits<char>>::rdbuf() const
    main.o(t._ZNSo6_C_padEl) refers to main.o(t._ZNSt15basic_streambufIcSt11char_traitsIcEE5sputcEc) for std::basic_streambuf<char, std::char_traits<char>>::sputc(char)
    main.o(t._ZNSo6_C_padEl) refers to main.o(i._ZNSt11char_traitsIcE11eq_int_typeERKiS2_) for std::char_traits<char>::eq_int_type(const int&, const int&)
    main.o(.ARM.exidx) refers to main.o(t._ZNSo6_C_padEl) for t._ZNSo6_C_padEl
    main.o(.ARM.exidx) refers to unwind_pr0.o(.text) for __aeabi_unwind_cpp_pr0
    main.o(t._ZNSo5flushEv) refers to main.o(t._ZNKSt9basic_iosIcSt11char_traitsIcEE5rdbufEv) for std::basic_ios<char, std::char_traits<char>>::rdbuf() const
    main.o(t._ZNSo5flushEv) refers to main.o(t._ZNSt15basic_streambufIcSt11char_traitsIcEE7pubsyncEv) for std::basic_streambuf<char, std::char_traits<char>>::pubsync()
    main.o(t._ZNSo5flushEv) refers to main.o(t._ZNSt9basic_iosIcSt11char_traitsIcEE8setstateEi) for std::basic_ios<char, std::char_traits<char>>::setstate(int)
    main.o(.ARM.exidx) refers to main.o(t._ZNSo5flushEv) for t._ZNSo5flushEv
    main.o(.ARM.exidx) refers to unwind_pr0.o(.text) for __aeabi_unwind_cpp_pr0
    main.o(t._ZNSo7_C_opfxEv) refers to main.o(t._ZNSo5flushEv) for std::basic_ostream<char, std::char_traits<char>>::flush()
    main.o(t._ZNSo7_C_opfxEv) refers to main.o(i._ZNKSo10_C_is_coutEv) for std::basic_ostream<char, std::char_traits<char>>::_C_is_cout() const
    main.o(t._ZNSo7_C_opfxEv) refers to retarget.o(.text) for fflush
    main.o(t._ZNSo7_C_opfxEv) refers to main.o(i._ZNKSo9_C_is_stdEv) for std::basic_ostream<char, std::char_traits<char>>::_C_is_std() const
    main.o(t._ZNSo7_C_opfxEv) refers to main.o(t._ZNKSt9basic_iosIcSt11char_traitsIcEE5rdbufEv) for std::basic_ios<char, std::char_traits<char>>::rdbuf() const
    main.o(t._ZNSo7_C_opfxEv) refers to ios.o(.data) for std::ios_base::_C_sync_with_stdio
    main.o(t._ZNSo7_C_opfxEv) refers to retarget.o(.data) for __stdout
    main.o(.ARM.exidx) refers to main.o(t._ZNSo7_C_opfxEv) for t._ZNSo7_C_opfxEv
    main.o(.ARM.exidx) refers to unwind_pr0.o(.text) for __aeabi_unwind_cpp_pr0
    main.o(t._ZNSo6sentryC1ERSo) refers to main.o(t._ZNKSt9basic_iosIcSt11char_traitsIcEE5rdbufEv) for std::basic_ios<char, std::char_traits<char>>::rdbuf() const
    main.o(t._ZNSo6sentryC1ERSo) refers to main.o(t._ZNSo7_C_opfxEv) for std::basic_ostream<char, std::char_traits<char>>::_C_opfx()
    main.o(t._ZNSo6sentryC1ERSo) refers to rwstdexcept.o(.data) for __rw::__rw_synchronized::_C_mutex
    main.o(.ARM.exidx) refers to main.o(t._ZNSo6sentryC1ERSo) for t._ZNSo6sentryC1ERSo
    main.o(.ARM.exidx) refers to unwind_pr0.o(.text) for __aeabi_unwind_cpp_pr0
    main.o(t._ZN4__rw11__rw_insertIcSt11char_traitsIcEcEERSt13basic_ostreamIT_T0_ES7_PT1_ll) refers to main.o(t._ZNSo6sentryC1ERSo) for std::basic_ostream<char, std::char_traits<char>>::sentry::sentry(std::basic_ostream<char, std::char_traits<char>>&)
    main.o(t._ZN4__rw11__rw_insertIcSt11char_traitsIcEcEERSt13basic_ostreamIT_T0_ES7_PT1_ll) refers to main.o(i._ZNKSt8ios_base5flagsEv) for std::ios_base::flags() const
    main.o(t._ZN4__rw11__rw_insertIcSt11char_traitsIcEcEERSt13basic_ostreamIT_T0_ES7_PT1_ll) refers to main.o(t._ZNSo6_C_padEl) for std::basic_ostream<char, std::char_traits<char>>::_C_pad(long)
    main.o(t._ZN4__rw11__rw_insertIcSt11char_traitsIcEcEERSt13basic_ostreamIT_T0_ES7_PT1_ll) refers to main.o(t._ZNKSt9basic_iosIcSt11char_traitsIcEE5rdbufEv) for std::basic_ios<char, std::char_traits<char>>::rdbuf() const
    main.o(t._ZN4__rw11__rw_insertIcSt11char_traitsIcEcEERSt13basic_ostreamIT_T0_ES7_PT1_ll) refers to main.o(t._ZNSo6sentryD1Ev) for std::basic_ostream<char, std::char_traits<char>>::sentry::~sentry()
    main.o(t._ZN4__rw11__rw_insertIcSt11char_traitsIcEcEERSt13basic_ostreamIT_T0_ES7_PT1_ll) refers to main.o(t._ZNSt9basic_iosIcSt11char_traitsIcEE8setstateEi) for std::basic_ios<char, std::char_traits<char>>::setstate(int)
    main.o(t._ZN4__rw11__rw_insertIcSt11char_traitsIcEcEERSt13basic_ostreamIT_T0_ES7_PT1_ll) refers to arm_exceptions_begincatch.o(.text) for __cxa_begin_catch
    main.o(t._ZN4__rw11__rw_insertIcSt11char_traitsIcEcEERSt13basic_ostreamIT_T0_ES7_PT1_ll) refers to main.o(t._ZNSt9basic_iosIcSt11char_traitsIcEE8setstateEii) for std::basic_ios<char, std::char_traits<char>>::setstate(int, int)
    main.o(t._ZN4__rw11__rw_insertIcSt11char_traitsIcEcEERSt13basic_ostreamIT_T0_ES7_PT1_ll) refers to arm_exceptions_rethrow.o(.text) for __cxa_rethrow
    main.o(t._ZN4__rw11__rw_insertIcSt11char_traitsIcEcEERSt13basic_ostreamIT_T0_ES7_PT1_ll) refers to arm_exceptions_endcatch.o(.text) for __cxa_end_catch
    main.o(t._ZN4__rw11__rw_insertIcSt11char_traitsIcEcEERSt13basic_ostreamIT_T0_ES7_PT1_ll.clean) refers to main.o(t._ZNSo6sentryD1Ev) for std::basic_ostream<char, std::char_traits<char>>::sentry::~sentry()
    main.o(t._ZN4__rw11__rw_insertIcSt11char_traitsIcEcEERSt13basic_ostreamIT_T0_ES7_PT1_ll.clean) refers to arm_exceptions_cleanup.o(.emb_text) for __cxa_end_cleanup
    main.o(t._ZN4__rw11__rw_insertIcSt11char_traitsIcEcEERSt13basic_ostreamIT_T0_ES7_PT1_ll.clean) refers to arm_exceptions_endcatch.o(.text) for __cxa_end_catch
    main.o(.ARM.extab) refers to main.o(t._ZN4__rw11__rw_insertIcSt11char_traitsIcEcEERSt13basic_ostreamIT_T0_ES7_PT1_ll.clean) for t._ZN4__rw11__rw_insertIcSt11char_traitsIcEcEERSt13basic_ostreamIT_T0_ES7_PT1_ll.clean
    main.o(.ARM.extab) refers to main.o(t._ZN4__rw11__rw_insertIcSt11char_traitsIcEcEERSt13basic_ostreamIT_T0_ES7_PT1_ll) for t._ZN4__rw11__rw_insertIcSt11char_traitsIcEcEERSt13basic_ostreamIT_T0_ES7_PT1_ll
    main.o(.ARM.exidx) refers to main.o(t._ZN4__rw11__rw_insertIcSt11char_traitsIcEcEERSt13basic_ostreamIT_T0_ES7_PT1_ll) for t._ZN4__rw11__rw_insertIcSt11char_traitsIcEcEERSt13basic_ostreamIT_T0_ES7_PT1_ll
    main.o(.ARM.exidx) refers to unwind_pr0.o(.text) for __aeabi_unwind_cpp_pr0
    main.o(.ARM.exidx) refers to main.o(.ARM.extab) for .extab._ZN4__rw11__rw_insertIcSt11char_traitsIcEcEERSt13basic_ostreamIT_T0_ES7_PT1_ll
    main.o(.ARM.exidx) refers to main.o(t._ZN4__rw11__rw_insertIcSt11char_traitsIcEcEERSt13basic_ostreamIT_T0_ES7_PT1_ll.clean) for t._ZN4__rw11__rw_insertIcSt11char_traitsIcEcEERSt13basic_ostreamIT_T0_ES7_PT1_ll.clean
    main.o(t._ZStlsISt11char_traitsIcEERSt13basic_ostreamIcT_ES5_PKc) refers to main.o(i._ZNSt11char_traitsIcE6lengthEPKc) for std::char_traits<char>::length(const char*)
    main.o(t._ZStlsISt11char_traitsIcEERSt13basic_ostreamIcT_ES5_PKc) refers to main.o(t._ZN4__rw11__rw_insertIcSt11char_traitsIcEcEERSt13basic_ostreamIT_T0_ES7_PKT1_ll) for std::basic_ostream<T1, T2>& __rw::__rw_insert<char, std::char_traits<char>, char>(std::basic_ostream<T1, T2>&, const T3*, long, long)
    main.o(t._ZStlsISt11char_traitsIcEERSt13basic_ostreamIcT_ES5_PKc) refers to main.o(i._ZNSt8ios_base5widthEl) for std::ios_base::width(long)
    main.o(.ARM.exidx) refers to main.o(t._ZStlsISt11char_traitsIcEERSt13basic_ostreamIcT_ES5_PKc) for t._ZStlsISt11char_traitsIcEERSt13basic_ostreamIcT_ES5_PKc
    main.o(.ARM.exidx) refers to unwind_pr0.o(.text) for __aeabi_unwind_cpp_pr0
    main.o(t._ZStlsIcSt11char_traitsIcESaIcEERSt13basic_ostreamIT_T0_ES7_RKSbIS4_S5_T1_E) refers to main.o(t._ZNKSs6lengthEv) for std::basic_string<char, std::char_traits<char>, std::allocator<char>>::length() const
    main.o(t._ZStlsIcSt11char_traitsIcESaIcEERSt13basic_ostreamIT_T0_ES7_RKSbIS4_S5_T1_E) refers to main.o(t._ZNKSs4dataEv) for std::basic_string<char, std::char_traits<char>, std::allocator<char>>::data() const
    main.o(t._ZStlsIcSt11char_traitsIcESaIcEERSt13basic_ostreamIT_T0_ES7_RKSbIS4_S5_T1_E) refers to main.o(t._ZN4__rw11__rw_insertIcSt11char_traitsIcEcEERSt13basic_ostreamIT_T0_ES7_PKT1_ll) for std::basic_ostream<T1, T2>& __rw::__rw_insert<char, std::char_traits<char>, char>(std::basic_ostream<T1, T2>&, const T3*, long, long)
    main.o(t._ZStlsIcSt11char_traitsIcESaIcEERSt13basic_ostreamIT_T0_ES7_RKSbIS4_S5_T1_E) refers to main.o(i._ZNSt8ios_base5widthEl) for std::ios_base::width(long)
    main.o(.ARM.exidx) refers to main.o(t._ZStlsIcSt11char_traitsIcESaIcEERSt13basic_ostreamIT_T0_ES7_RKSbIS4_S5_T1_E) for t._ZStlsIcSt11char_traitsIcESaIcEERSt13basic_ostreamIT_T0_ES7_RKSbIS4_S5_T1_E
    main.o(.ARM.exidx) refers to unwind_pr0.o(.text) for __aeabi_unwind_cpp_pr0
    main.o(t._ZNSt19ostreambuf_iteratorIcSt11char_traitsIcEEC1ERSo) refers to main.o(t._ZNKSt9basic_iosIcSt11char_traitsIcEE5rdbufEv) for std::basic_ios<char, std::char_traits<char>>::rdbuf() const
    main.o(.ARM.extab) refers to arm_exceptions_callunex.o(.text) for __cxa_call_unexpected
    main.o(.ARM.exidx) refers to main.o(t._ZNSt19ostreambuf_iteratorIcSt11char_traitsIcEEC1ERSo) for t._ZNSt19ostreambuf_iteratorIcSt11char_traitsIcEEC1ERSo
    main.o(.ARM.exidx) refers to unwind_pr0.o(.text) for __aeabi_unwind_cpp_pr0
    main.o(.ARM.exidx) refers to main.o(.ARM.extab) for .extab._ZNSt19ostreambuf_iteratorIcSt11char_traitsIcEEC1ERSo
    main.o(i._ZNSt6locale5facetC1Eji) refers to main.o(.constdata__ZTVN4__rw15__rw_facet_baseE) for vtable for __rw::__rw_facet_base
    main.o(i._ZNSt6locale5facetC1Eji) refers to main.o(.constdata__ZTVNSt6locale5facetE) for vtable for std::locale::facet
    main.o(.ARM.exidx) refers to main.o(i._ZNSt6locale5facetC1Eji) for i._ZNSt6locale5facetC1Eji
    main.o(t._ZN4__rw23__rw_create_named_facetISt7num_putIcSt19ostreambuf_iteratorIcSt11char_traitsIcEEEEEPT_S8_PKcj) refers to new.o(i._Znwj) for operator new(unsigned)
    main.o(t._ZN4__rw23__rw_create_named_facetISt7num_putIcSt19ostreambuf_iteratorIcSt11char_traitsIcEEEEEPT_S8_PKcj) refers to main.o(t._ZNSt7num_putIcSt19ostreambuf_iteratorIcSt11char_traitsIcEEEC1Ej) for std::num_put<char, std::ostreambuf_iterator<char, std::char_traits<char>>>::num_put(unsigned)
    main.o(t._ZN4__rw23__rw_create_named_facetISt7num_putIcSt19ostreambuf_iteratorIcSt11char_traitsIcEEEEEPT_S8_PKcj.clean) refers to delete.o(i._ZdlPv) for operator delete (void*)
    main.o(t._ZN4__rw23__rw_create_named_facetISt7num_putIcSt19ostreambuf_iteratorIcSt11char_traitsIcEEEEEPT_S8_PKcj.clean) refers to arm_exceptions_cleanup.o(.emb_text) for __cxa_end_cleanup
    main.o(.ARM.extab) refers to main.o(t._ZN4__rw23__rw_create_named_facetISt7num_putIcSt19ostreambuf_iteratorIcSt11char_traitsIcEEEEEPT_S8_PKcj.clean) for t._ZN4__rw23__rw_create_named_facetISt7num_putIcSt19ostreambuf_iteratorIcSt11char_traitsIcEEEEEPT_S8_PKcj.clean
    main.o(.ARM.exidx) refers to main.o(t._ZN4__rw23__rw_create_named_facetISt7num_putIcSt19ostreambuf_iteratorIcSt11char_traitsIcEEEEEPT_S8_PKcj) for t._ZN4__rw23__rw_create_named_facetISt7num_putIcSt19ostreambuf_iteratorIcSt11char_traitsIcEEEEEPT_S8_PKcj
    main.o(.ARM.exidx) refers to unwind_pr0.o(.text) for __aeabi_unwind_cpp_pr0
    main.o(.ARM.exidx) refers to main.o(.ARM.extab) for .extab._ZN4__rw23__rw_create_named_facetISt7num_putIcSt19ostreambuf_iteratorIcSt11char_traitsIcEEEEEPT_S8_PKcj
    main.o(.ARM.exidx) refers to main.o(t._ZN4__rw23__rw_create_named_facetISt7num_putIcSt19ostreambuf_iteratorIcSt11char_traitsIcEEEEEPT_S8_PKcj.clean) for t._ZN4__rw23__rw_create_named_facetISt7num_putIcSt19ostreambuf_iteratorIcSt11char_traitsIcEEEEEPT_S8_PKcj.clean
    main.o(t._ZN4__rw11__rw_insertIcSt11char_traitsIcEiEERSt13basic_ostreamIT_T0_ES7_T1_) refers to main.o(t._ZNSo6sentryC1ERSo) for std::basic_ostream<char, std::char_traits<char>>::sentry::sentry(std::basic_ostream<char, std::char_traits<char>>&)
    main.o(t._ZN4__rw11__rw_insertIcSt11char_traitsIcEiEERSt13basic_ostreamIT_T0_ES7_T1_) refers to main.o(t._ZSt9use_facetISt7num_putIcSt19ostreambuf_iteratorIcSt11char_traitsIcEEEERKT_RKSt6locale) for const T1& std::use_facet<std::num_put<char, std::ostreambuf_iterator<char, std::char_traits<char>>>>(const std::locale&)
    main.o(t._ZN4__rw11__rw_insertIcSt11char_traitsIcEiEERSt13basic_ostreamIT_T0_ES7_T1_) refers to main.o(t._ZNSt19ostreambuf_iteratorIcSt11char_traitsIcEEC1ERSo) for std::ostreambuf_iterator<char, std::char_traits<char>>::ostreambuf_iterator(std::basic_ostream<char, std::char_traits<char>>&)
    main.o(t._ZN4__rw11__rw_insertIcSt11char_traitsIcEiEERSt13basic_ostreamIT_T0_ES7_T1_) refers to main.o(t._ZNKSt19ostreambuf_iteratorIcSt11char_traitsIcEE6failedEv) for std::ostreambuf_iterator<char, std::char_traits<char>>::failed() const
    main.o(t._ZN4__rw11__rw_insertIcSt11char_traitsIcEiEERSt13basic_ostreamIT_T0_ES7_T1_) refers to main.o(i._ZNSt8ios_base5widthEl) for std::ios_base::width(long)
    main.o(t._ZN4__rw11__rw_insertIcSt11char_traitsIcEiEERSt13basic_ostreamIT_T0_ES7_T1_) refers to main.o(t._ZNSt9basic_iosIcSt11char_traitsIcEE8setstateEi) for std::basic_ios<char, std::char_traits<char>>::setstate(int)
    main.o(t._ZN4__rw11__rw_insertIcSt11char_traitsIcEiEERSt13basic_ostreamIT_T0_ES7_T1_) refers to main.o(t._ZNSo6sentryD1Ev) for std::basic_ostream<char, std::char_traits<char>>::sentry::~sentry()
    main.o(t._ZN4__rw11__rw_insertIcSt11char_traitsIcEiEERSt13basic_ostreamIT_T0_ES7_T1_) refers to arm_exceptions_begincatch.o(.text) for __cxa_begin_catch
    main.o(t._ZN4__rw11__rw_insertIcSt11char_traitsIcEiEERSt13basic_ostreamIT_T0_ES7_T1_) refers to main.o(t._ZNSt9basic_iosIcSt11char_traitsIcEE8setstateEii) for std::basic_ios<char, std::char_traits<char>>::setstate(int, int)
    main.o(t._ZN4__rw11__rw_insertIcSt11char_traitsIcEiEERSt13basic_ostreamIT_T0_ES7_T1_) refers to arm_exceptions_rethrow.o(.text) for __cxa_rethrow
    main.o(t._ZN4__rw11__rw_insertIcSt11char_traitsIcEiEERSt13basic_ostreamIT_T0_ES7_T1_) refers to arm_exceptions_endcatch.o(.text) for __cxa_end_catch
    main.o(t._ZN4__rw11__rw_insertIcSt11char_traitsIcEiEERSt13basic_ostreamIT_T0_ES7_T1_.clean) refers to arm_exceptions_endcatch.o(.text) for __cxa_end_catch
    main.o(t._ZN4__rw11__rw_insertIcSt11char_traitsIcEiEERSt13basic_ostreamIT_T0_ES7_T1_.clean) refers to main.o(t._ZNSo6sentryD1Ev) for std::basic_ostream<char, std::char_traits<char>>::sentry::~sentry()
    main.o(t._ZN4__rw11__rw_insertIcSt11char_traitsIcEiEERSt13basic_ostreamIT_T0_ES7_T1_.clean) refers to arm_exceptions_cleanup.o(.emb_text) for __cxa_end_cleanup
    main.o(.ARM.extab) refers to main.o(t._ZN4__rw11__rw_insertIcSt11char_traitsIcEiEERSt13basic_ostreamIT_T0_ES7_T1_) for t._ZN4__rw11__rw_insertIcSt11char_traitsIcEiEERSt13basic_ostreamIT_T0_ES7_T1_
    main.o(.ARM.extab) refers to main.o(t._ZN4__rw11__rw_insertIcSt11char_traitsIcEiEERSt13basic_ostreamIT_T0_ES7_T1_.clean) for t._ZN4__rw11__rw_insertIcSt11char_traitsIcEiEERSt13basic_ostreamIT_T0_ES7_T1_.clean
    main.o(.ARM.exidx) refers to main.o(t._ZN4__rw11__rw_insertIcSt11char_traitsIcEiEERSt13basic_ostreamIT_T0_ES7_T1_) for t._ZN4__rw11__rw_insertIcSt11char_traitsIcEiEERSt13basic_ostreamIT_T0_ES7_T1_
    main.o(.ARM.exidx) refers to unwind_pr0.o(.text) for __aeabi_unwind_cpp_pr0
    main.o(.ARM.exidx) refers to main.o(.ARM.extab) for .extab._ZN4__rw11__rw_insertIcSt11char_traitsIcEiEERSt13basic_ostreamIT_T0_ES7_T1_
    main.o(.ARM.exidx) refers to main.o(t._ZN4__rw11__rw_insertIcSt11char_traitsIcEiEERSt13basic_ostreamIT_T0_ES7_T1_.clean) for t._ZN4__rw11__rw_insertIcSt11char_traitsIcEiEERSt13basic_ostreamIT_T0_ES7_T1_.clean
    main.o(t._ZN4__rw11__rw_insertIcSt11char_traitsIcEmEERSt13basic_ostreamIT_T0_ES7_T1_) refers to main.o(t._ZNSo6sentryC1ERSo) for std::basic_ostream<char, std::char_traits<char>>::sentry::sentry(std::basic_ostream<char, std::char_traits<char>>&)
    main.o(t._ZN4__rw11__rw_insertIcSt11char_traitsIcEmEERSt13basic_ostreamIT_T0_ES7_T1_) refers to main.o(t._ZSt9use_facetISt7num_putIcSt19ostreambuf_iteratorIcSt11char_traitsIcEEEERKT_RKSt6locale) for const T1& std::use_facet<std::num_put<char, std::ostreambuf_iterator<char, std::char_traits<char>>>>(const std::locale&)
    main.o(t._ZN4__rw11__rw_insertIcSt11char_traitsIcEmEERSt13basic_ostreamIT_T0_ES7_T1_) refers to main.o(t._ZNSt19ostreambuf_iteratorIcSt11char_traitsIcEEC1ERSo) for std::ostreambuf_iterator<char, std::char_traits<char>>::ostreambuf_iterator(std::basic_ostream<char, std::char_traits<char>>&)
    main.o(t._ZN4__rw11__rw_insertIcSt11char_traitsIcEmEERSt13basic_ostreamIT_T0_ES7_T1_) refers to main.o(t._ZNKSt19ostreambuf_iteratorIcSt11char_traitsIcEE6failedEv) for std::ostreambuf_iterator<char, std::char_traits<char>>::failed() const
    main.o(t._ZN4__rw11__rw_insertIcSt11char_traitsIcEmEERSt13basic_ostreamIT_T0_ES7_T1_) refers to main.o(i._ZNSt8ios_base5widthEl) for std::ios_base::width(long)
    main.o(t._ZN4__rw11__rw_insertIcSt11char_traitsIcEmEERSt13basic_ostreamIT_T0_ES7_T1_) refers to main.o(t._ZNSt9basic_iosIcSt11char_traitsIcEE8setstateEi) for std::basic_ios<char, std::char_traits<char>>::setstate(int)
    main.o(t._ZN4__rw11__rw_insertIcSt11char_traitsIcEmEERSt13basic_ostreamIT_T0_ES7_T1_) refers to main.o(t._ZNSo6sentryD1Ev) for std::basic_ostream<char, std::char_traits<char>>::sentry::~sentry()
    main.o(t._ZN4__rw11__rw_insertIcSt11char_traitsIcEmEERSt13basic_ostreamIT_T0_ES7_T1_) refers to arm_exceptions_begincatch.o(.text) for __cxa_begin_catch
    main.o(t._ZN4__rw11__rw_insertIcSt11char_traitsIcEmEERSt13basic_ostreamIT_T0_ES7_T1_) refers to main.o(t._ZNSt9basic_iosIcSt11char_traitsIcEE8setstateEii) for std::basic_ios<char, std::char_traits<char>>::setstate(int, int)
    main.o(t._ZN4__rw11__rw_insertIcSt11char_traitsIcEmEERSt13basic_ostreamIT_T0_ES7_T1_) refers to arm_exceptions_rethrow.o(.text) for __cxa_rethrow
    main.o(t._ZN4__rw11__rw_insertIcSt11char_traitsIcEmEERSt13basic_ostreamIT_T0_ES7_T1_) refers to arm_exceptions_endcatch.o(.text) for __cxa_end_catch
    main.o(t._ZN4__rw11__rw_insertIcSt11char_traitsIcEmEERSt13basic_ostreamIT_T0_ES7_T1_.clean) refers to arm_exceptions_endcatch.o(.text) for __cxa_end_catch
    main.o(t._ZN4__rw11__rw_insertIcSt11char_traitsIcEmEERSt13basic_ostreamIT_T0_ES7_T1_.clean) refers to main.o(t._ZNSo6sentryD1Ev) for std::basic_ostream<char, std::char_traits<char>>::sentry::~sentry()
    main.o(t._ZN4__rw11__rw_insertIcSt11char_traitsIcEmEERSt13basic_ostreamIT_T0_ES7_T1_.clean) refers to arm_exceptions_cleanup.o(.emb_text) for __cxa_end_cleanup
    main.o(.ARM.extab) refers to main.o(t._ZN4__rw11__rw_insertIcSt11char_traitsIcEmEERSt13basic_ostreamIT_T0_ES7_T1_) for t._ZN4__rw11__rw_insertIcSt11char_traitsIcEmEERSt13basic_ostreamIT_T0_ES7_T1_
    main.o(.ARM.extab) refers to main.o(t._ZN4__rw11__rw_insertIcSt11char_traitsIcEmEERSt13basic_ostreamIT_T0_ES7_T1_.clean) for t._ZN4__rw11__rw_insertIcSt11char_traitsIcEmEERSt13basic_ostreamIT_T0_ES7_T1_.clean
    main.o(.ARM.exidx) refers to main.o(t._ZN4__rw11__rw_insertIcSt11char_traitsIcEmEERSt13basic_ostreamIT_T0_ES7_T1_) for t._ZN4__rw11__rw_insertIcSt11char_traitsIcEmEERSt13basic_ostreamIT_T0_ES7_T1_
    main.o(.ARM.exidx) refers to unwind_pr0.o(.text) for __aeabi_unwind_cpp_pr0
    main.o(.ARM.exidx) refers to main.o(.ARM.extab) for .extab._ZN4__rw11__rw_insertIcSt11char_traitsIcEmEERSt13basic_ostreamIT_T0_ES7_T1_
    main.o(.ARM.exidx) refers to main.o(t._ZN4__rw11__rw_insertIcSt11char_traitsIcEmEERSt13basic_ostreamIT_T0_ES7_T1_.clean) for t._ZN4__rw11__rw_insertIcSt11char_traitsIcEmEERSt13basic_ostreamIT_T0_ES7_T1_.clean
    main.o(t._ZNSs9_C_getRepEjj) refers to rwstdexcept.o(i._ZN4__rw10__rw_throwEiz) for __rw::__rw_throw(int, ...)
    main.o(t._ZNSs9_C_getRepEjj) refers to rwalloc.o(i._ZN4__rw13__rw_allocateEji) for __rw::__rw_allocate(unsigned, int)
    main.o(t._ZNSs9_C_getRepEjj) refers to main.o(i._ZnwjPv) for operator new(unsigned, void*)
    main.o(t._ZNSs9_C_getRepEjj) refers to main.o(t._ZN4__rw12__string_refIcSt11char_traitsIcESaIcEE4dataEv) for __rw::__string_ref<char, std::char_traits<char>, std::allocator<char>>::data()
    main.o(t._ZNSs9_C_getRepEjj) refers to main.o(.constdata__ZZNSs9_C_getRepEjjEs) for std::basic_string<char, std::char_traits<char>, std::allocator<char>>::_C_getRep(unsigned, unsigned)::string
    main.o(t._ZNSs9_C_getRepEjj) refers to rwthrowproc_impl.o(.bss__ZNSs9__nullrefE) for std::basic_string<char, std::char_traits<char>, std::allocator<char>>::__nullref
    main.o(.ARM.exidx) refers to main.o(t._ZNSs9_C_getRepEjj) for t._ZNSs9_C_getRepEjj
    main.o(.ARM.exidx) refers to unwind_pr1.o(.text) for __aeabi_unwind_cpp_pr1
    main.o(.ARM.exidx) refers to main.o(.ARM.extab) for .extab._ZNSs9_C_getRepEjj
    main.o(t._ZNSsC1EPKcRKSaIcE) refers to main.o(t._ZNSaIcEC1ERKS_) for std::allocator<char>::allocator(const std::allocator<char>&)
    main.o(t._ZNSsC1EPKcRKSaIcE) refers to main.o(i._ZNSt11char_traitsIcE6lengthEPKc) for std::char_traits<char>::length(const char*)
    main.o(t._ZNSsC1EPKcRKSaIcE) refers to main.o(t._ZSt3maxIjERKT_S2_S2_) for const T1& std::max<unsigned>(const T1&, const T1&)
    main.o(t._ZNSsC1EPKcRKSaIcE) refers to main.o(t._ZNSs9_C_getRepEjj) for std::basic_string<char, std::char_traits<char>, std::allocator<char>>::_C_getRep(unsigned, unsigned)
    main.o(t._ZNSsC1EPKcRKSaIcE) refers to main.o(t._ZN4__rw12__string_refIcSt11char_traitsIcESaIcEE4dataEv) for __rw::__string_ref<char, std::char_traits<char>, std::allocator<char>>::data()
    main.o(t._ZNSsC1EPKcRKSaIcE) refers to main.o(t._ZNSs7_C_nullEv) for std::basic_string<char, std::char_traits<char>, std::allocator<char>>::_C_null()
    main.o(t._ZNSsC1EPKcRKSaIcE) refers to main.o(i._ZNSt11char_traitsIcE4copyEPcPKcj) for std::char_traits<char>::copy(char*, const char*, unsigned)
    main.o(.ARM.exidx) refers to main.o(t._ZNSsC1EPKcRKSaIcE) for t._ZNSsC1EPKcRKSaIcE
    main.o(.ARM.exidx) refers to unwind_pr0.o(.text) for __aeabi_unwind_cpp_pr0
    main.o(t._ZNSsC1ERKSs) refers to main.o(t._ZNSaIcEC1ERKS_) for std::allocator<char>::allocator(const std::allocator<char>&)
    main.o(t._ZNSsC1ERKSs) refers to main.o(t._ZNKSs7_C_prefEv) for std::basic_string<char, std::char_traits<char>, std::allocator<char>>::_C_pref() const
    main.o(t._ZNSsC1ERKSs) refers to main.o(t._ZNK4__rw12__string_refIcSt11char_traitsIcESaIcEE12_C_ref_countEv) for __rw::__string_ref<char, std::char_traits<char>, std::allocator<char>>::_C_ref_count() const
    main.o(t._ZNSsC1ERKSs) refers to main.o(t._ZN4__rw12__string_refIcSt11char_traitsIcESaIcEE10_C_inc_refEv) for __rw::__string_ref<char, std::char_traits<char>, std::allocator<char>>::_C_inc_ref()
    main.o(t._ZNSsC1ERKSs) refers to main.o(t._ZNKSs4sizeEv) for std::basic_string<char, std::char_traits<char>, std::allocator<char>>::size() const
    main.o(t._ZNSsC1ERKSs) refers to main.o(t._ZNSs9_C_getRepEjj) for std::basic_string<char, std::char_traits<char>, std::allocator<char>>::_C_getRep(unsigned, unsigned)
    main.o(t._ZNSsC1ERKSs) refers to main.o(t._ZN4__rw12__string_refIcSt11char_traitsIcESaIcEE4dataEv) for __rw::__string_ref<char, std::char_traits<char>, std::allocator<char>>::data()
    main.o(t._ZNSsC1ERKSs) refers to main.o(t._ZNKSs5c_strEv) for std::basic_string<char, std::char_traits<char>, std::allocator<char>>::c_str() const
    main.o(t._ZNSsC1ERKSs) refers to main.o(i._ZNSt11char_traitsIcE4copyEPcPKcj) for std::char_traits<char>::copy(char*, const char*, unsigned)
    main.o(.ARM.exidx) refers to main.o(t._ZNSsC1ERKSs) for t._ZNSsC1ERKSs
    main.o(.ARM.exidx) refers to unwind_pr0.o(.text) for __aeabi_unwind_cpp_pr0
    main.o(t._ZNKSt4lessISsEclERKSsS2_) refers to main.o(t._ZNKSs7compareERKSs) for std::basic_string<char, std::char_traits<char>, std::allocator<char>>::compare(const std::basic_string<char, std::char_traits<char>, std::allocator<char>>&) const
    main.o(.ARM.exidx) refers to main.o(t._ZNKSt4lessISsEclERKSsS2_) for t._ZNKSt4lessISsEclERKSsS2_
    main.o(.ARM.exidx) refers to unwind_pr0.o(.text) for __aeabi_unwind_cpp_pr0
    main.o(.ARM.exidx) refers to main.o(t._ZN4__rw17__rw_new_capacityINS_9__rb_treeISsSt4pairIKSsiENS_11__select1stIS4_SsEESt4lessISsESaIS4_EEEEEjjPKT_) for t._ZN4__rw17__rw_new_capacityINS_9__rb_treeISsSt4pairIKSsiENS_11__select1stIS4_SsEESt4lessISsESaIS4_EEEEEjjPKT_
    main.o(t._ZN4__rw9__rb_treeISsSt4pairIKSsiENS_11__select1stIS3_SsEESt4lessISsESaIS3_EE17_C_add_new_bufferEv) refers to main.o(t._ZN4__rw17__rw_new_capacityINS_9__rb_treeISsSt4pairIKSsiENS_11__select1stIS4_SsEESt4lessISsESaIS4_EEEEEjjPKT_) for unsigned __rw::__rw_new_capacity<__rw::__rb_tree<std::basic_string<char, std::char_traits<char>, std::allocator<char>>, std::pair<const std::basic_string<char, std::char_traits<char>, std::allocator<char>>, int>, __rw::__select1st<std::pair<const std::basic_string<char, std::char_traits<char>, std::allocator<char>>, int>, std::basic_string<char, std::char_traits<char>, std::allocator<char>>>, std::less<std::basic_string<char, std::char_traits<char>, std::allocator<char>>>, std::allocator<std::pair<const std::basic_string<char, std::char_traits<char>, std::allocator<char>>, int>>>>(unsigned, const T1*)
    main.o(t._ZN4__rw9__rb_treeISsSt4pairIKSsiENS_11__select1stIS3_SsEESt4lessISsESaIS3_EE17_C_add_new_bufferEv) refers to main.o(t._ZNSaIN4__rw9__rb_treeISsSt4pairIKSsiENS_11__select1stIS3_SsEESt4lessISsESaIS3_EE22_C_rb_tree_node_bufferEEC1IS3_EERKSaIT_E) for std::allocator<__rw::__rb_tree<std::basic_string<char, std::char_traits<char>, std::allocator<char>>, std::pair<const std::basic_string<char, std::char_traits<char>, std::allocator<char>>, int>, __rw::__select1st<std::pair<const std::basic_string<char, std::char_traits<char>, std::allocator<char>>, int>, std::basic_string<char, std::char_traits<char>, std::allocator<char>>>, std::less<std::basic_string<char, std::char_traits<char>, std::allocator<char>>>, std::allocator<std::pair<const std::basic_string<char, std::char_traits<char>, std::allocator<char>>, int>>>::_C_rb_tree_node_buffer>::allocator<std::pair<const std::basic_string<char, std::char_traits<char>, std::allocator<char>>, int>>(const std::allocator<T1>&)
    main.o(t._ZN4__rw9__rb_treeISsSt4pairIKSsiENS_11__select1stIS3_SsEESt4lessISsESaIS3_EE17_C_add_new_bufferEv) refers to rwalloc.o(i._ZN4__rw13__rw_allocateEji) for __rw::__rw_allocate(unsigned, int)
    main.o(t._ZN4__rw9__rb_treeISsSt4pairIKSsiENS_11__select1stIS3_SsEESt4lessISsESaIS3_EE17_C_add_new_bufferEv) refers to main.o(t._ZNSaIN4__rw17__rw_rb_tree_nodeISaISt4pairIKSsiEES3_SsNS_11__select1stIS3_SsEEEEEC1IS3_EERKSaIT_E) for std::allocator<__rw::__rw_rb_tree_node<std::allocator<std::pair<const std::basic_string<char, std::char_traits<char>, std::allocator<char>>, int>>, std::pair<const std::basic_string<char, std::char_traits<char>, std::allocator<char>>, int>, std::basic_string<char, std::char_traits<char>, std::allocator<char>>, __rw::__select1st<std::pair<const std::basic_string<char, std::char_traits<char>, std::allocator<char>>, int>, std::basic_string<char, std::char_traits<char>, std::allocator<char>>>>>::allocator<std::pair<const std::basic_string<char, std::char_traits<char>, std::allocator<char>>, int>>(const std::allocator<T1>&)
    main.o(t._ZN4__rw9__rb_treeISsSt4pairIKSsiENS_11__select1stIS3_SsEESt4lessISsESaIS3_EE17_C_add_new_bufferEv) refers to arm_exceptions_begincatch.o(.text) for __cxa_begin_catch
    main.o(t._ZN4__rw9__rb_treeISsSt4pairIKSsiENS_11__select1stIS3_SsEESt4lessISsESaIS3_EE17_C_add_new_bufferEv) refers to main.o(t._ZNSaIN4__rw9__rb_treeISsSt4pairIKSsiENS_11__select1stIS3_SsEESt4lessISsESaIS3_EE22_C_rb_tree_node_bufferEE10deallocateEPSA_j) for std::allocator<__rw::__rb_tree<std::basic_string<char, std::char_traits<char>, std::allocator<char>>, std::pair<const std::basic_string<char, std::char_traits<char>, std::allocator<char>>, int>, __rw::__select1st<std::pair<const std::basic_string<char, std::char_traits<char>, std::allocator<char>>, int>, std::basic_string<char, std::char_traits<char>, std::allocator<char>>>, std::less<std::basic_string<char, std::char_traits<char>, std::allocator<char>>>, std::allocator<std::pair<const std::basic_string<char, std::char_traits<char>, std::allocator<char>>, int>>>::_C_rb_tree_node_buffer>::deallocate(__rw::__rb_tree<std::basic_string<char, std::char_traits<char>, std::allocator<char>>, std::pair<const std::basic_string<char, std::char_traits<char>, std::allocator<char>>, int>, __rw::__select1st<std::pair<const std::basic_string<char, std::char_traits<char>, std::allocator<char>>, int>, std::basic_string<char, std::char_traits<char>, std::allocator<char>>>, std::less<std::basic_string<char, std::char_traits<char>, std::allocator<char>>>, std::allocator<std::pair<const std::basic_string<char, std::char_traits<char>, std::allocator<char>>, int>>>::_C_rb_tree_node_buffer*, unsigned)
    main.o(t._ZN4__rw9__rb_treeISsSt4pairIKSsiENS_11__select1stIS3_SsEESt4lessISsESaIS3_EE17_C_add_new_bufferEv) refers to arm_exceptions_rethrow.o(.text) for __cxa_rethrow
    main.o(t._ZN4__rw9__rb_treeISsSt4pairIKSsiENS_11__select1stIS3_SsEESt4lessISsESaIS3_EE17_C_add_new_bufferEv.clean) refers to arm_exceptions_endcatch.o(.text) for __cxa_end_catch
    main.o(t._ZN4__rw9__rb_treeISsSt4pairIKSsiENS_11__select1stIS3_SsEESt4lessISsESaIS3_EE17_C_add_new_bufferEv.clean) refers to arm_exceptions_cleanup.o(.emb_text) for __cxa_end_cleanup
    main.o(.ARM.extab) refers to main.o(t._ZN4__rw9__rb_treeISsSt4pairIKSsiENS_11__select1stIS3_SsEESt4lessISsESaIS3_EE17_C_add_new_bufferEv) for t._ZN4__rw9__rb_treeISsSt4pairIKSsiENS_11__select1stIS3_SsEESt4lessISsESaIS3_EE17_C_add_new_bufferEv
    main.o(.ARM.extab) refers to main.o(t._ZN4__rw9__rb_treeISsSt4pairIKSsiENS_11__select1stIS3_SsEESt4lessISsESaIS3_EE17_C_add_new_bufferEv.clean) for t._ZN4__rw9__rb_treeISsSt4pairIKSsiENS_11__select1stIS3_SsEESt4lessISsESaIS3_EE17_C_add_new_bufferEv.clean
    main.o(.ARM.exidx) refers to main.o(t._ZN4__rw9__rb_treeISsSt4pairIKSsiENS_11__select1stIS3_SsEESt4lessISsESaIS3_EE17_C_add_new_bufferEv) for t._ZN4__rw9__rb_treeISsSt4pairIKSsiENS_11__select1stIS3_SsEESt4lessISsESaIS3_EE17_C_add_new_bufferEv
    main.o(.ARM.exidx) refers to unwind_pr0.o(.text) for __aeabi_unwind_cpp_pr0
    main.o(.ARM.exidx) refers to main.o(.ARM.extab) for .extab._ZN4__rw9__rb_treeISsSt4pairIKSsiENS_11__select1stIS3_SsEESt4lessISsESaIS3_EE17_C_add_new_bufferEv
    main.o(.ARM.exidx) refers to main.o(t._ZN4__rw9__rb_treeISsSt4pairIKSsiENS_11__select1stIS3_SsEESt4lessISsESaIS3_EE17_C_add_new_bufferEv.clean) for t._ZN4__rw9__rb_treeISsSt4pairIKSsiENS_11__select1stIS3_SsEESt4lessISsESaIS3_EE17_C_add_new_bufferEv.clean
    main.o(t._ZN4__rw9__rb_treeISsSt4pairIKSsiENS_11__select1stIS3_SsEESt4lessISsESaIS3_EE11_C_get_linkEv) refers to main.o(t._ZN4__rw9__rb_treeISsSt4pairIKSsiENS_11__select1stIS3_SsEESt4lessISsESaIS3_EE17_C_add_new_bufferEv) for __rw::__rb_tree<std::basic_string<char, std::char_traits<char>, std::allocator<char>>, std::pair<const std::basic_string<char, std::char_traits<char>, std::allocator<char>>, int>, __rw::__select1st<std::pair<const std::basic_string<char, std::char_traits<char>, std::allocator<char>>, int>, std::basic_string<char, std::char_traits<char>, std::allocator<char>>>, std::less<std::basic_string<char, std::char_traits<char>, std::allocator<char>>>, std::allocator<std::pair<const std::basic_string<char, std::char_traits<char>, std::allocator<char>>, int>>>::_C_add_new_buffer()
    main.o(.ARM.exidx) refers to main.o(t._ZN4__rw9__rb_treeISsSt4pairIKSsiENS_11__select1stIS3_SsEESt4lessISsESaIS3_EE11_C_get_linkEv) for t._ZN4__rw9__rb_treeISsSt4pairIKSsiENS_11__select1stIS3_SsEESt4lessISsESaIS3_EE11_C_get_linkEv
    main.o(.ARM.exidx) refers to unwind_pr0.o(.text) for __aeabi_unwind_cpp_pr0
    main.o(t._ZN4__rw9__rb_treeISsSt4pairIKSsiENS_11__select1stIS3_SsEESt4lessISsESaIS3_EE9_C_insertEPNS_17__rw_rb_tree_nodeIS8_S3_SsS5_EESC_RKS3_) refers to main.o(t._ZN4__rw9__rb_treeISsSt4pairIKSsiENS_11__select1stIS3_SsEESt4lessISsESaIS3_EE11_C_get_nodeERKS3_) for __rw::__rb_tree<std::basic_string<char, std::char_traits<char>, std::allocator<char>>, std::pair<const std::basic_string<char, std::char_traits<char>, std::allocator<char>>, int>, __rw::__select1st<std::pair<const std::basic_string<char, std::char_traits<char>, std::allocator<char>>, int>, std::basic_string<char, std::char_traits<char>, std::allocator<char>>>, std::less<std::basic_string<char, std::char_traits<char>, std::allocator<char>>>, std::allocator<std::pair<const std::basic_string<char, std::char_traits<char>, std::allocator<char>>, int>>>::_C_get_node(const std::pair<const std::basic_string<char, std::char_traits<char>, std::allocator<char>>, int>&)
    main.o(t._ZN4__rw9__rb_treeISsSt4pairIKSsiENS_11__select1stIS3_SsEESt4lessISsESaIS3_EE9_C_insertEPNS_17__rw_rb_tree_nodeIS8_S3_SsS5_EESC_RKS3_) refers to main.o(t._ZN4__rw17__rw_rb_tree_nodeISaISt4pairIKSsiEES3_SsNS_11__select1stIS3_SsEEE6_C_keyEv) for __rw::__rw_rb_tree_node<std::allocator<std::pair<const std::basic_string<char, std::char_traits<char>, std::allocator<char>>, int>>, std::pair<const std::basic_string<char, std::char_traits<char>, std::allocator<char>>, int>, std::basic_string<char, std::char_traits<char>, std::allocator<char>>, __rw::__select1st<std::pair<const std::basic_string<char, std::char_traits<char>, std::allocator<char>>, int>, std::basic_string<char, std::char_traits<char>, std::allocator<char>>>>::_C_key()
    main.o(t._ZN4__rw9__rb_treeISsSt4pairIKSsiENS_11__select1stIS3_SsEESt4lessISsESaIS3_EE9_C_insertEPNS_17__rw_rb_tree_nodeIS8_S3_SsS5_EESC_RKS3_) refers to main.o(t._ZNKSt4lessISsEclERKSsS2_) for std::less<std::basic_string<char, std::char_traits<char>, std::allocator<char>>>::operator ()(const std::basic_string<char, std::char_traits<char>, std::allocator<char>>&, const std::basic_string<char, std::char_traits<char>, std::allocator<char>>&) const
    main.o(t._ZN4__rw9__rb_treeISsSt4pairIKSsiENS_11__select1stIS3_SsEESt4lessISsESaIS3_EE9_C_insertEPNS_17__rw_rb_tree_nodeIS8_S3_SsS5_EESC_RKS3_) refers to main.o(t._ZN4__rw17__rw_rb_tree_nodeISaISt4pairIKSsiEES3_SsNS_11__select1stIS3_SsEEE7_C_leftEv) for __rw::__rw_rb_tree_node<std::allocator<std::pair<const std::basic_string<char, std::char_traits<char>, std::allocator<char>>, int>>, std::pair<const std::basic_string<char, std::char_traits<char>, std::allocator<char>>, int>, std::basic_string<char, std::char_traits<char>, std::allocator<char>>, __rw::__select1st<std::pair<const std::basic_string<char, std::char_traits<char>, std::allocator<char>>, int>, std::basic_string<char, std::char_traits<char>, std::allocator<char>>>>::_C_left()
    main.o(t._ZN4__rw9__rb_treeISsSt4pairIKSsiENS_11__select1stIS3_SsEESt4lessISsESaIS3_EE9_C_insertEPNS_17__rw_rb_tree_nodeIS8_S3_SsS5_EESC_RKS3_) refers to main.o(t._ZNK4__rw9__rb_treeISsSt4pairIKSsiENS_11__select1stIS3_SsEESt4lessISsESaIS3_EE7_C_rootEv) for __rw::__rb_tree<std::basic_string<char, std::char_traits<char>, std::allocator<char>>, std::pair<const std::basic_string<char, std::char_traits<char>, std::allocator<char>>, int>, __rw::__select1st<std::pair<const std::basic_string<char, std::char_traits<char>, std::allocator<char>>, int>, std::basic_string<char, std::char_traits<char>, std::allocator<char>>>, std::less<std::basic_string<char, std::char_traits<char>, std::allocator<char>>>, std::allocator<std::pair<const std::basic_string<char, std::char_traits<char>, std::allocator<char>>, int>>>::_C_root() const
    main.o(t._ZN4__rw9__rb_treeISsSt4pairIKSsiENS_11__select1stIS3_SsEESt4lessISsESaIS3_EE9_C_insertEPNS_17__rw_rb_tree_nodeIS8_S3_SsS5_EESC_RKS3_) refers to main.o(t._ZNK4__rw9__rb_treeISsSt4pairIKSsiENS_11__select1stIS3_SsEESt4lessISsESaIS3_EE12_C_rightmostEv) for __rw::__rb_tree<std::basic_string<char, std::char_traits<char>, std::allocator<char>>, std::pair<const std::basic_string<char, std::char_traits<char>, std::allocator<char>>, int>, __rw::__select1st<std::pair<const std::basic_string<char, std::char_traits<char>, std::allocator<char>>, int>, std::basic_string<char, std::char_traits<char>, std::allocator<char>>>, std::less<std::basic_string<char, std::char_traits<char>, std::allocator<char>>>, std::allocator<std::pair<const std::basic_string<char, std::char_traits<char>, std::allocator<char>>, int>>>::_C_rightmost() const
    main.o(t._ZN4__rw9__rb_treeISsSt4pairIKSsiENS_11__select1stIS3_SsEESt4lessISsESaIS3_EE9_C_insertEPNS_17__rw_rb_tree_nodeIS8_S3_SsS5_EESC_RKS3_) refers to main.o(t._ZNK4__rw9__rb_treeISsSt4pairIKSsiENS_11__select1stIS3_SsEESt4lessISsESaIS3_EE11_C_leftmostEv) for __rw::__rb_tree<std::basic_string<char, std::char_traits<char>, std::allocator<char>>, std::pair<const std::basic_string<char, std::char_traits<char>, std::allocator<char>>, int>, __rw::__select1st<std::pair<const std::basic_string<char, std::char_traits<char>, std::allocator<char>>, int>, std::basic_string<char, std::char_traits<char>, std::allocator<char>>>, std::less<std::basic_string<char, std::char_traits<char>, std::allocator<char>>>, std::allocator<std::pair<const std::basic_string<char, std::char_traits<char>, std::allocator<char>>, int>>>::_C_leftmost() const
    main.o(t._ZN4__rw9__rb_treeISsSt4pairIKSsiENS_11__select1stIS3_SsEESt4lessISsESaIS3_EE9_C_insertEPNS_17__rw_rb_tree_nodeIS8_S3_SsS5_EESC_RKS3_) refers to main.o(t._ZN4__rw17__rw_rb_tree_nodeISaISt4pairIKSsiEES3_SsNS_11__select1stIS3_SsEEE8_C_rightEv) for __rw::__rw_rb_tree_node<std::allocator<std::pair<const std::basic_string<char, std::char_traits<char>, std::allocator<char>>, int>>, std::pair<const std::basic_string<char, std::char_traits<char>, std::allocator<char>>, int>, std::basic_string<char, std::char_traits<char>, std::allocator<char>>, __rw::__select1st<std::pair<const std::basic_string<char, std::char_traits<char>, std::allocator<char>>, int>, std::basic_string<char, std::char_traits<char>, std::allocator<char>>>>::_C_right()
    main.o(t._ZN4__rw9__rb_treeISsSt4pairIKSsiENS_11__select1stIS3_SsEESt4lessISsESaIS3_EE9_C_insertEPNS_17__rw_rb_tree_nodeIS8_S3_SsS5_EESC_RKS3_) refers to main.o(t._ZN4__rw17__rw_rb_tree_nodeISaISt4pairIKSsiEES3_SsNS_11__select1stIS3_SsEEE9_C_parentEv) for __rw::__rw_rb_tree_node<std::allocator<std::pair<const std::basic_string<char, std::char_traits<char>, std::allocator<char>>, int>>, std::pair<const std::basic_string<char, std::char_traits<char>, std::allocator<char>>, int>, std::basic_string<char, std::char_traits<char>, std::allocator<char>>, __rw::__select1st<std::pair<const std::basic_string<char, std::char_traits<char>, std::allocator<char>>, int>, std::basic_string<char, std::char_traits<char>, std::allocator<char>>>>::_C_parent()
    main.o(t._ZN4__rw9__rb_treeISsSt4pairIKSsiENS_11__select1stIS3_SsEESt4lessISsESaIS3_EE9_C_insertEPNS_17__rw_rb_tree_nodeIS8_S3_SsS5_EESC_RKS3_) refers to main.o(t._ZN4__rw9__rb_treeISsSt4pairIKSsiENS_11__select1stIS3_SsEESt4lessISsESaIS3_EE13__rotate_leftEPNS_17__rw_rb_tree_nodeIS8_S3_SsS5_EE) for __rw::__rb_tree<std::basic_string<char, std::char_traits<char>, std::allocator<char>>, std::pair<const std::basic_string<char, std::char_traits<char>, std::allocator<char>>, int>, __rw::__select1st<std::pair<const std::basic_string<char, std::char_traits<char>, std::allocator<char>>, int>, std::basic_string<char, std::char_traits<char>, std::allocator<char>>>, std::less<std::basic_string<char, std::char_traits<char>, std::allocator<char>>>, std::allocator<std::pair<const std::basic_string<char, std::char_traits<char>, std::allocator<char>>, int>>>::__rotate_left(__rw::__rw_rb_tree_node<std::allocator<std::pair<const std::basic_string<char, std::char_traits<char>, std::allocator<char>>, int>>, std::pair<const std::basic_string<char, std::char_traits<char>, std::allocator<char>>, int>, std::basic_string<char, std::char_traits<char>, std::allocator<char>>, __rw::__select1st<std::pair<const std::basic_string<char, std::char_traits<char>, std::allocator<char>>, int>, std::basic_string<char, std::char_traits<char>, std::allocator<char>>>>*)
    main.o(t._ZN4__rw9__rb_treeISsSt4pairIKSsiENS_11__select1stIS3_SsEESt4lessISsESaIS3_EE9_C_insertEPNS_17__rw_rb_tree_nodeIS8_S3_SsS5_EESC_RKS3_) refers to main.o(t._ZN4__rw9__rb_treeISsSt4pairIKSsiENS_11__select1stIS3_SsEESt4lessISsESaIS3_EE14__rotate_rightEPNS_17__rw_rb_tree_nodeIS8_S3_SsS5_EE) for __rw::__rb_tree<std::basic_string<char, std::char_traits<char>, std::allocator<char>>, std::pair<const std::basic_string<char, std::char_traits<char>, std::allocator<char>>, int>, __rw::__select1st<std::pair<const std::basic_string<char, std::char_traits<char>, std::allocator<char>>, int>, std::basic_string<char, std::char_traits<char>, std::allocator<char>>>, std::less<std::basic_string<char, std::char_traits<char>, std::allocator<char>>>, std::allocator<std::pair<const std::basic_string<char, std::char_traits<char>, std::allocator<char>>, int>>>::__rotate_right(__rw::__rw_rb_tree_node<std::allocator<std::pair<const std::basic_string<char, std::char_traits<char>, std::allocator<char>>, int>>, std::pair<const std::basic_string<char, std::char_traits<char>, std::allocator<char>>, int>, std::basic_string<char, std::char_traits<char>, std::allocator<char>>, __rw::__select1st<std::pair<const std::basic_string<char, std::char_traits<char>, std::allocator<char>>, int>, std::basic_string<char, std::char_traits<char>, std::allocator<char>>>>*)
    main.o(t._ZN4__rw9__rb_treeISsSt4pairIKSsiENS_11__select1stIS3_SsEESt4lessISsESaIS3_EE9_C_insertEPNS_17__rw_rb_tree_nodeIS8_S3_SsS5_EESC_RKS3_) refers to main.o(t._ZN4__rw9__rb_treeISsSt4pairIKSsiENS_11__select1stIS3_SsEESt4lessISsESaIS3_EE12_C_make_iterEPNS_17__rw_rb_tree_nodeIS8_S3_SsS5_EE) for __rw::__rb_tree<std::basic_string<char, std::char_traits<char>, std::allocator<char>>, std::pair<const std::basic_string<char, std::char_traits<char>, std::allocator<char>>, int>, __rw::__select1st<std::pair<const std::basic_string<char, std::char_traits<char>, std::allocator<char>>, int>, std::basic_string<char, std::char_traits<char>, std::allocator<char>>>, std::less<std::basic_string<char, std::char_traits<char>, std::allocator<char>>>, std::allocator<std::pair<const std::basic_string<char, std::char_traits<char>, std::allocator<char>>, int>>>::_C_make_iter(__rw::__rw_rb_tree_node<std::allocator<std::pair<const std::basic_string<char, std::char_traits<char>, std::allocator<char>>, int>>, std::pair<const std::basic_string<char, std::char_traits<char>, std::allocator<char>>, int>, std::basic_string<char, std::char_traits<char>, std::allocator<char>>, __rw::__select1st<std::pair<const std::basic_string<char, std::char_traits<char>, std::allocator<char>>, int>, std::basic_string<char, std::char_traits<char>, std::allocator<char>>>>*)
    main.o(.ARM.exidx) refers to main.o(t._ZN4__rw9__rb_treeISsSt4pairIKSsiENS_11__select1stIS3_SsEESt4lessISsESaIS3_EE9_C_insertEPNS_17__rw_rb_tree_nodeIS8_S3_SsS5_EESC_RKS3_) for t._ZN4__rw9__rb_treeISsSt4pairIKSsiENS_11__select1stIS3_SsEESt4lessISsESaIS3_EE9_C_insertEPNS_17__rw_rb_tree_nodeIS8_S3_SsS5_EESC_RKS3_
    main.o(.ARM.exidx) refers to unwind_pr1.o(.text) for __aeabi_unwind_cpp_pr1
    main.o(.ARM.exidx) refers to main.o(.ARM.extab) for .extab._ZN4__rw9__rb_treeISsSt4pairIKSsiENS_11__select1stIS3_SsEESt4lessISsESaIS3_EE9_C_insertEPNS_17__rw_rb_tree_nodeIS8_S3_SsS5_EESC_RKS3_
    main.o(t._ZN4__rw14__rw_tree_iterISt4pairIKSsiEiPS3_RS3_NS_17__rw_rb_tree_nodeISaIS3_ES3_SsNS_11__select1stIS3_SsEEEEEmmEv) refers to main.o(t._ZN4__rw17__rw_rb_tree_nodeISaISt4pairIKSsiEES3_SsNS_11__select1stIS3_SsEEE9_C_parentEv) for __rw::__rw_rb_tree_node<std::allocator<std::pair<const std::basic_string<char, std::char_traits<char>, std::allocator<char>>, int>>, std::pair<const std::basic_string<char, std::char_traits<char>, std::allocator<char>>, int>, std::basic_string<char, std::char_traits<char>, std::allocator<char>>, __rw::__select1st<std::pair<const std::basic_string<char, std::char_traits<char>, std::allocator<char>>, int>, std::basic_string<char, std::char_traits<char>, std::allocator<char>>>>::_C_parent()
    main.o(t._ZN4__rw14__rw_tree_iterISt4pairIKSsiEiPS3_RS3_NS_17__rw_rb_tree_nodeISaIS3_ES3_SsNS_11__select1stIS3_SsEEEEEmmEv) refers to main.o(t._ZN4__rw17__rw_rb_tree_nodeISaISt4pairIKSsiEES3_SsNS_11__select1stIS3_SsEEE8_C_rightEv) for __rw::__rw_rb_tree_node<std::allocator<std::pair<const std::basic_string<char, std::char_traits<char>, std::allocator<char>>, int>>, std::pair<const std::basic_string<char, std::char_traits<char>, std::allocator<char>>, int>, std::basic_string<char, std::char_traits<char>, std::allocator<char>>, __rw::__select1st<std::pair<const std::basic_string<char, std::char_traits<char>, std::allocator<char>>, int>, std::basic_string<char, std::char_traits<char>, std::allocator<char>>>>::_C_right()
    main.o(t._ZN4__rw14__rw_tree_iterISt4pairIKSsiEiPS3_RS3_NS_17__rw_rb_tree_nodeISaIS3_ES3_SsNS_11__select1stIS3_SsEEEEEmmEv) refers to main.o(t._ZN4__rw17__rw_rb_tree_nodeISaISt4pairIKSsiEES3_SsNS_11__select1stIS3_SsEEE7_C_leftEv) for __rw::__rw_rb_tree_node<std::allocator<std::pair<const std::basic_string<char, std::char_traits<char>, std::allocator<char>>, int>>, std::pair<const std::basic_string<char, std::char_traits<char>, std::allocator<char>>, int>, std::basic_string<char, std::char_traits<char>, std::allocator<char>>, __rw::__select1st<std::pair<const std::basic_string<char, std::char_traits<char>, std::allocator<char>>, int>, std::basic_string<char, std::char_traits<char>, std::allocator<char>>>>::_C_left()
    main.o(.ARM.exidx) refers to main.o(t._ZN4__rw14__rw_tree_iterISt4pairIKSsiEiPS3_RS3_NS_17__rw_rb_tree_nodeISaIS3_ES3_SsNS_11__select1stIS3_SsEEEEEmmEv) for t._ZN4__rw14__rw_tree_iterISt4pairIKSsiEiPS3_RS3_NS_17__rw_rb_tree_nodeISaIS3_ES3_SsNS_11__select1stIS3_SsEEEEEmmEv
    main.o(.ARM.exidx) refers to unwind_pr0.o(.text) for __aeabi_unwind_cpp_pr0
    main.o(t._ZN4__rw9__rb_treeISsSt4pairIKSsiENS_11__select1stIS3_SsEESt4lessISsESaIS3_EE6insertERKS3_) refers to main.o(t._ZNK4__rw9__rb_treeISsSt4pairIKSsiENS_11__select1stIS3_SsEESt4lessISsESaIS3_EE7_C_rootEv) for __rw::__rb_tree<std::basic_string<char, std::char_traits<char>, std::allocator<char>>, std::pair<const std::basic_string<char, std::char_traits<char>, std::allocator<char>>, int>, __rw::__select1st<std::pair<const std::basic_string<char, std::char_traits<char>, std::allocator<char>>, int>, std::basic_string<char, std::char_traits<char>, std::allocator<char>>>, std::less<std::basic_string<char, std::char_traits<char>, std::allocator<char>>>, std::allocator<std::pair<const std::basic_string<char, std::char_traits<char>, std::allocator<char>>, int>>>::_C_root() const
    main.o(t._ZN4__rw9__rb_treeISsSt4pairIKSsiENS_11__select1stIS3_SsEESt4lessISsESaIS3_EE6insertERKS3_) refers to main.o(t._ZN4__rw17__rw_rb_tree_nodeISaISt4pairIKSsiEES3_SsNS_11__select1stIS3_SsEEE6_C_keyEv) for __rw::__rw_rb_tree_node<std::allocator<std::pair<const std::basic_string<char, std::char_traits<char>, std::allocator<char>>, int>>, std::pair<const std::basic_string<char, std::char_traits<char>, std::allocator<char>>, int>, std::basic_string<char, std::char_traits<char>, std::allocator<char>>, __rw::__select1st<std::pair<const std::basic_string<char, std::char_traits<char>, std::allocator<char>>, int>, std::basic_string<char, std::char_traits<char>, std::allocator<char>>>>::_C_key()
    main.o(t._ZN4__rw9__rb_treeISsSt4pairIKSsiENS_11__select1stIS3_SsEESt4lessISsESaIS3_EE6insertERKS3_) refers to main.o(t._ZNKSt4lessISsEclERKSsS2_) for std::less<std::basic_string<char, std::char_traits<char>, std::allocator<char>>>::operator ()(const std::basic_string<char, std::char_traits<char>, std::allocator<char>>&, const std::basic_string<char, std::char_traits<char>, std::allocator<char>>&) const
    main.o(t._ZN4__rw9__rb_treeISsSt4pairIKSsiENS_11__select1stIS3_SsEESt4lessISsESaIS3_EE6insertERKS3_) refers to main.o(t._ZN4__rw17__rw_rb_tree_nodeISaISt4pairIKSsiEES3_SsNS_11__select1stIS3_SsEEE7_C_leftEv) for __rw::__rw_rb_tree_node<std::allocator<std::pair<const std::basic_string<char, std::char_traits<char>, std::allocator<char>>, int>>, std::pair<const std::basic_string<char, std::char_traits<char>, std::allocator<char>>, int>, std::basic_string<char, std::char_traits<char>, std::allocator<char>>, __rw::__select1st<std::pair<const std::basic_string<char, std::char_traits<char>, std::allocator<char>>, int>, std::basic_string<char, std::char_traits<char>, std::allocator<char>>>>::_C_left()
    main.o(t._ZN4__rw9__rb_treeISsSt4pairIKSsiENS_11__select1stIS3_SsEESt4lessISsESaIS3_EE6insertERKS3_) refers to main.o(t._ZN4__rw17__rw_rb_tree_nodeISaISt4pairIKSsiEES3_SsNS_11__select1stIS3_SsEEE8_C_rightEv) for __rw::__rw_rb_tree_node<std::allocator<std::pair<const std::basic_string<char, std::char_traits<char>, std::allocator<char>>, int>>, std::pair<const std::basic_string<char, std::char_traits<char>, std::allocator<char>>, int>, std::basic_string<char, std::char_traits<char>, std::allocator<char>>, __rw::__select1st<std::pair<const std::basic_string<char, std::char_traits<char>, std::allocator<char>>, int>, std::basic_string<char, std::char_traits<char>, std::allocator<char>>>>::_C_right()
    main.o(t._ZN4__rw9__rb_treeISsSt4pairIKSsiENS_11__select1stIS3_SsEESt4lessISsESaIS3_EE6insertERKS3_) refers to main.o(t._ZN4__rw9__rb_treeISsSt4pairIKSsiENS_11__select1stIS3_SsEESt4lessISsESaIS3_EE9_C_insertEPNS_17__rw_rb_tree_nodeIS8_S3_SsS5_EESC_RKS3_) for __rw::__rb_tree<std::basic_string<char, std::char_traits<char>, std::allocator<char>>, std::pair<const std::basic_string<char, std::char_traits<char>, std::allocator<char>>, int>, __rw::__select1st<std::pair<const std::basic_string<char, std::char_traits<char>, std::allocator<char>>, int>, std::basic_string<char, std::char_traits<char>, std::allocator<char>>>, std::less<std::basic_string<char, std::char_traits<char>, std::allocator<char>>>, std::allocator<std::pair<const std::basic_string<char, std::char_traits<char>, std::allocator<char>>, int>>>::_C_insert(__rw::__rw_rb_tree_node<std::allocator<std::pair<const std::basic_string<char, std::char_traits<char>, std::allocator<char>>, int>>, std::pair<const std::basic_string<char, std::char_traits<char>, std::allocator<char>>, int>, std::basic_string<char, std::char_traits<char>, std::allocator<char>>, __rw::__select1st<std::pair<const std::basic_string<char, std::char_traits<char>, std::allocator<char>>, int>, std::basic_string<char, std::char_traits<char>, std::allocator<char>>>>*, __rw::__rw_rb_tree_node<std::allocator<std::pair<const std::basic_string<char, std::char_traits<char>, std::allocator<char>>, int>>, std::pair<const std::basic_string<char, std::char_traits<char>, std::allocator<char>>, int>, std::basic_string<char, std::char_traits<char>, std::allocator<char>>, __rw::__select1st<std::pair<const std::basic_string<char, std::char_traits<char>, std::allocator<char>>, int>, std::basic_string<char, std::char_traits<char>, std::allocator<char>>>>*, const std::pair<const std::basic_string<char, std::char_traits<char>, std::allocator<char>>, int>&)
    main.o(t._ZN4__rw9__rb_treeISsSt4pairIKSsiENS_11__select1stIS3_SsEESt4lessISsESaIS3_EE6insertERKS3_) refers to main.o(t._ZNSt4pairIN4__rw14__rw_tree_iterIS_IKSsiEiPS3_RS3_NS0_17__rw_rb_tree_nodeISaIS3_ES3_SsNS0_11__select1stIS3_SsEEEEEEbEC1ERKSB_RKb) for std::pair<__rw::__rw_tree_iter<std::pair<const std::basic_string<char, std::char_traits<char>, std::allocator<char>>, int>, int, std::pair<const std::basic_string<char, std::char_traits<char>, std::allocator<char>>, int>*, std::pair<const std::basic_string<char, std::char_traits<char>, std::allocator<char>>, int>&, __rw::__rw_rb_tree_node<std::allocator<std::pair<const std::basic_string<char, std::char_traits<char>, std::allocator<char>>, int>>, std::pair<const std::basic_string<char, std::char_traits<char>, std::allocator<char>>, int>, std::basic_string<char, std::char_traits<char>, std::allocator<char>>, __rw::__select1st<std::pair<const std::basic_string<char, std::char_traits<char>, std::allocator<char>>, int>, std::basic_string<char, std::char_traits<char>, std::allocator<char>>>>>, bool>::pair(const __rw::__rw_tree_iter<std::pair<const std::basic_string<char, std::char_traits<char>, std::allocator<char>>, int>, int, std::pair<const std::basic_string<char, std::char_traits<char>, std::allocator<char>>, int>*, std::pair<const std::basic_string<char, std::char_traits<char>, std::allocator<char>>, int>&, __rw::__rw_rb_tree_node<std::allocator<std::pair<const std::basic_string<char, std::char_traits<char>, std::allocator<char>>, int>>, std::pair<const std::basic_string<char, std::char_traits<char>, std::allocator<char>>, int>, std::basic_string<char, std::char_traits<char>, std::allocator<char>>, __rw::__select1st<std::pair<const std::basic_string<char, std::char_traits<char>, std::allocator<char>>, int>, std::basic_string<char, std::char_traits<char>, std::allocator<char>>>>>&, const bool&)
    main.o(t._ZN4__rw9__rb_treeISsSt4pairIKSsiENS_11__select1stIS3_SsEESt4lessISsESaIS3_EE6insertERKS3_) refers to main.o(t._ZN4__rw9__rb_treeISsSt4pairIKSsiENS_11__select1stIS3_SsEESt4lessISsESaIS3_EE12_C_make_iterEPNS_17__rw_rb_tree_nodeIS8_S3_SsS5_EE) for __rw::__rb_tree<std::basic_string<char, std::char_traits<char>, std::allocator<char>>, std::pair<const std::basic_string<char, std::char_traits<char>, std::allocator<char>>, int>, __rw::__select1st<std::pair<const std::basic_string<char, std::char_traits<char>, std::allocator<char>>, int>, std::basic_string<char, std::char_traits<char>, std::allocator<char>>>, std::less<std::basic_string<char, std::char_traits<char>, std::allocator<char>>>, std::allocator<std::pair<const std::basic_string<char, std::char_traits<char>, std::allocator<char>>, int>>>::_C_make_iter(__rw::__rw_rb_tree_node<std::allocator<std::pair<const std::basic_string<char, std::char_traits<char>, std::allocator<char>>, int>>, std::pair<const std::basic_string<char, std::char_traits<char>, std::allocator<char>>, int>, std::basic_string<char, std::char_traits<char>, std::allocator<char>>, __rw::__select1st<std::pair<const std::basic_string<char, std::char_traits<char>, std::allocator<char>>, int>, std::basic_string<char, std::char_traits<char>, std::allocator<char>>>>*)
    main.o(t._ZN4__rw9__rb_treeISsSt4pairIKSsiENS_11__select1stIS3_SsEESt4lessISsESaIS3_EE6insertERKS3_) refers to main.o(t._ZN4__rw9__rb_treeISsSt4pairIKSsiENS_11__select1stIS3_SsEESt4lessISsESaIS3_EE5beginEv) for __rw::__rb_tree<std::basic_string<char, std::char_traits<char>, std::allocator<char>>, std::pair<const std::basic_string<char, std::char_traits<char>, std::allocator<char>>, int>, __rw::__select1st<std::pair<const std::basic_string<char, std::char_traits<char>, std::allocator<char>>, int>, std::basic_string<char, std::char_traits<char>, std::allocator<char>>>, std::less<std::basic_string<char, std::char_traits<char>, std::allocator<char>>>, std::allocator<std::pair<const std::basic_string<char, std::char_traits<char>, std::allocator<char>>, int>>>::begin()
    main.o(t._ZN4__rw9__rb_treeISsSt4pairIKSsiENS_11__select1stIS3_SsEESt4lessISsESaIS3_EE6insertERKS3_) refers to main.o(t._ZN4__rweqISt4pairIKSsiEiPS3_RS3_S4_S5_NS_17__rw_rb_tree_nodeISaIS3_ES3_SsNS_11__select1stIS3_SsEEEEEEbRKNS_14__rw_tree_iterIT_T0_T1_T2_T5_EERKNSB_ISC_SD_T3_T4_SG_EE) for bool __rw::operator ==<std::pair<const std::basic_string<char, std::char_traits<char>, std::allocator<char>>, int>, int, std::pair<const std::basic_string<char, std::char_traits<char>, std::allocator<char>>, int>*, std::pair<const std::basic_string<char, std::char_traits<char>, std::allocator<char>>, int>&, std::pair<const std::basic_string<char, std::char_traits<char>, std::allocator<char>>, int>*, std::pair<const std::basic_string<char, std::char_traits<char>, std::allocator<char>>, int>&, __rw::__rw_rb_tree_node<std::allocator<std::pair<const std::basic_string<char, std::char_traits<char>, std::allocator<char>>, int>>, std::pair<const std::basic_string<char, std::char_traits<char>, std::allocator<char>>, int>, std::basic_string<char, std::char_traits<char>, std::allocator<char>>, __rw::__select1st<std::pair<const std::basic_string<char, std::char_traits<char>, std::allocator<char>>, int>, std::basic_string<char, std::char_traits<char>, std::allocator<char>>>>>(const __rw::__rw_tree_iter<T1, T2, T3, T4, T7>&, const __rw::__rw_tree_iter<T1, T2, T5, T6, T7>&)
    main.o(t._ZN4__rw9__rb_treeISsSt4pairIKSsiENS_11__select1stIS3_SsEESt4lessISsESaIS3_EE6insertERKS3_) refers to main.o(t._ZN4__rw14__rw_tree_iterISt4pairIKSsiEiPS3_RS3_NS_17__rw_rb_tree_nodeISaIS3_ES3_SsNS_11__select1stIS3_SsEEEEEmmEv) for __rw::__rw_tree_iter<std::pair<const std::basic_string<char, std::char_traits<char>, std::allocator<char>>, int>, int, std::pair<const std::basic_string<char, std::char_traits<char>, std::allocator<char>>, int>*, std::pair<const std::basic_string<char, std::char_traits<char>, std::allocator<char>>, int>&, __rw::__rw_rb_tree_node<std::allocator<std::pair<const std::basic_string<char, std::char_traits<char>, std::allocator<char>>, int>>, std::pair<const std::basic_string<char, std::char_traits<char>, std::allocator<char>>, int>, std::basic_string<char, std::char_traits<char>, std::allocator<char>>, __rw::__select1st<std::pair<const std::basic_string<char, std::char_traits<char>, std::allocator<char>>, int>, std::basic_string<char, std::char_traits<char>, std::allocator<char>>>>>::operator --()
    main.o(.ARM.exidx) refers to main.o(t._ZN4__rw9__rb_treeISsSt4pairIKSsiENS_11__select1stIS3_SsEESt4lessISsESaIS3_EE6insertERKS3_) for t._ZN4__rw9__rb_treeISsSt4pairIKSsiENS_11__select1stIS3_SsEESt4lessISsESaIS3_EE6insertERKS3_
    main.o(.ARM.exidx) refers to unwind_pr0.o(.text) for __aeabi_unwind_cpp_pr0
    main.o(t._ZNSt3mapISsiSt4lessISsESaISt4pairIKSsiEEEixERS3_) refers to main.o(t._ZNSsC1ERKSs) for std::basic_string<char, std::char_traits<char>, std::allocator<char>>::basic_string(const std::basic_string<char, std::char_traits<char>, std::allocator<char>>&)
    main.o(t._ZNSt3mapISsiSt4lessISsESaISt4pairIKSsiEEEixERS3_) refers to main.o(t._ZN4__rw9__rb_treeISsSt4pairIKSsiENS_11__select1stIS3_SsEESt4lessISsESaIS3_EE6insertERKS3_) for __rw::__rb_tree<std::basic_string<char, std::char_traits<char>, std::allocator<char>>, std::pair<const std::basic_string<char, std::char_traits<char>, std::allocator<char>>, int>, __rw::__select1st<std::pair<const std::basic_string<char, std::char_traits<char>, std::allocator<char>>, int>, std::basic_string<char, std::char_traits<char>, std::allocator<char>>>, std::less<std::basic_string<char, std::char_traits<char>, std::allocator<char>>>, std::allocator<std::pair<const std::basic_string<char, std::char_traits<char>, std::allocator<char>>, int>>>::insert(const std::pair<const std::basic_string<char, std::char_traits<char>, std::allocator<char>>, int>&)
    main.o(t._ZNSt3mapISsiSt4lessISsESaISt4pairIKSsiEEEixERS3_) refers to main.o(t._ZN4__rw14__rw_tree_iterISt4pairIKSsiEiPS3_RS3_NS_17__rw_rb_tree_nodeISaIS3_ES3_SsNS_11__select1stIS3_SsEEEEEC1ERKSB_) for __rw::__rw_tree_iter<std::pair<const std::basic_string<char, std::char_traits<char>, std::allocator<char>>, int>, int, std::pair<const std::basic_string<char, std::char_traits<char>, std::allocator<char>>, int>*, std::pair<const std::basic_string<char, std::char_traits<char>, std::allocator<char>>, int>&, __rw::__rw_rb_tree_node<std::allocator<std::pair<const std::basic_string<char, std::char_traits<char>, std::allocator<char>>, int>>, std::pair<const std::basic_string<char, std::char_traits<char>, std::allocator<char>>, int>, std::basic_string<char, std::char_traits<char>, std::allocator<char>>, __rw::__select1st<std::pair<const std::basic_string<char, std::char_traits<char>, std::allocator<char>>, int>, std::basic_string<char, std::char_traits<char>, std::allocator<char>>>>>::__rw_tree_iter(const __rw::__rw_tree_iter<std::pair<const std::basic_string<char, std::char_traits<char>, std::allocator<char>>, int>, int, std::pair<const std::basic_string<char, std::char_traits<char>, std::allocator<char>>, int>*, std::pair<const std::basic_string<char, std::char_traits<char>, std::allocator<char>>, int>&, __rw::__rw_rb_tree_node<std::allocator<std::pair<const std::basic_string<char, std::char_traits<char>, std::allocator<char>>, int>>, std::pair<const std::basic_string<char, std::char_traits<char>, std::allocator<char>>, int>, std::basic_string<char, std::char_traits<char>, std::allocator<char>>, __rw::__select1st<std::pair<const std::basic_string<char, std::char_traits<char>, std::allocator<char>>, int>, std::basic_string<char, std::char_traits<char>, std::allocator<char>>>>>&)
    main.o(t._ZNSt3mapISsiSt4lessISsESaISt4pairIKSsiEEEixERS3_) refers to main.o(i._ZNSt4pairIKSsiED1Ev) for std::pair<const std::basic_string<char, std::char_traits<char>, std::allocator<char>>, int>::~pair()
    main.o(t._ZNSt3mapISsiSt4lessISsESaISt4pairIKSsiEEEixERS3_) refers to main.o(t._ZNK4__rw14__rw_tree_iterISt4pairIKSsiEiPS3_RS3_NS_17__rw_rb_tree_nodeISaIS3_ES3_SsNS_11__select1stIS3_SsEEEEEdeEv) for __rw::__rw_tree_iter<std::pair<const std::basic_string<char, std::char_traits<char>, std::allocator<char>>, int>, int, std::pair<const std::basic_string<char, std::char_traits<char>, std::allocator<char>>, int>*, std::pair<const std::basic_string<char, std::char_traits<char>, std::allocator<char>>, int>&, __rw::__rw_rb_tree_node<std::allocator<std::pair<const std::basic_string<char, std::char_traits<char>, std::allocator<char>>, int>>, std::pair<const std::basic_string<char, std::char_traits<char>, std::allocator<char>>, int>, std::basic_string<char, std::char_traits<char>, std::allocator<char>>, __rw::__select1st<std::pair<const std::basic_string<char, std::char_traits<char>, std::allocator<char>>, int>, std::basic_string<char, std::char_traits<char>, std::allocator<char>>>>>::operator *() const
    main.o(t._ZNSt3mapISsiSt4lessISsESaISt4pairIKSsiEEEixERS3_.clean) refers to main.o(i._ZNSt4pairIKSsiED1Ev) for std::pair<const std::basic_string<char, std::char_traits<char>, std::allocator<char>>, int>::~pair()
    main.o(t._ZNSt3mapISsiSt4lessISsESaISt4pairIKSsiEEEixERS3_.clean) refers to arm_exceptions_cleanup.o(.emb_text) for __cxa_end_cleanup
    main.o(.ARM.extab) refers to main.o(t._ZNSt3mapISsiSt4lessISsESaISt4pairIKSsiEEEixERS3_.clean) for t._ZNSt3mapISsiSt4lessISsESaISt4pairIKSsiEEEixERS3_.clean
    main.o(.ARM.exidx) refers to main.o(t._ZNSt3mapISsiSt4lessISsESaISt4pairIKSsiEEEixERS3_) for t._ZNSt3mapISsiSt4lessISsESaISt4pairIKSsiEEEixERS3_
    main.o(.ARM.exidx) refers to unwind_pr0.o(.text) for __aeabi_unwind_cpp_pr0
    main.o(.ARM.exidx) refers to main.o(.ARM.extab) for .extab._ZNSt3mapISsiSt4lessISsESaISt4pairIKSsiEEEixERS3_
    main.o(.ARM.exidx) refers to main.o(t._ZNSt3mapISsiSt4lessISsESaISt4pairIKSsiEEEixERS3_.clean) for t._ZNSt3mapISsiSt4lessISsESaISt4pairIKSsiEEEixERS3_.clean
    main.o(t._ZNSs7replaceEjjPKcjjj) refers to main.o(t._ZNKSs4sizeEv) for std::basic_string<char, std::char_traits<char>, std::allocator<char>>::size() const
    main.o(t._ZNSs7replaceEjjPKcjjj) refers to rwstdexcept.o(i._ZN4__rw10__rw_throwEiz) for __rw::__rw_throw(int, ...)
    main.o(t._ZNSs7replaceEjjPKcjjj) refers to main.o(t._ZNSs9_C_unlinkEv) for std::basic_string<char, std::char_traits<char>, std::allocator<char>>::_C_unlink()
    main.o(t._ZNSs7replaceEjjPKcjjj) refers to main.o(t._ZNSs7_C_nullEv) for std::basic_string<char, std::char_traits<char>, std::allocator<char>>::_C_null()
    main.o(t._ZNSs7replaceEjjPKcjjj) refers to main.o(t._ZNKSs7_C_prefEv) for std::basic_string<char, std::char_traits<char>, std::allocator<char>>::_C_pref() const
    main.o(t._ZNSs7replaceEjjPKcjjj) refers to main.o(t._ZNK4__rw12__string_refIcSt11char_traitsIcESaIcEE12_C_ref_countEv) for __rw::__string_ref<char, std::char_traits<char>, std::allocator<char>>::_C_ref_count() const
    main.o(t._ZNSs7replaceEjjPKcjjj) refers to main.o(t._ZNKSs8capacityEv) for std::basic_string<char, std::char_traits<char>, std::allocator<char>>::capacity() const
    main.o(t._ZNSs7replaceEjjPKcjjj) refers to main.o(t._ZNKSs4dataEv) for std::basic_string<char, std::char_traits<char>, std::allocator<char>>::data() const
    main.o(t._ZNSs7replaceEjjPKcjjj) refers to main.o(t._ZSt3maxIjERKT_S2_S2_) for const T1& std::max<unsigned>(const T1&, const T1&)
    main.o(t._ZNSs7replaceEjjPKcjjj) refers to main.o(t._ZNSs9_C_getRepEjj) for std::basic_string<char, std::char_traits<char>, std::allocator<char>>::_C_getRep(unsigned, unsigned)
    main.o(t._ZNSs7replaceEjjPKcjjj) refers to main.o(t._ZN4__rw12__string_refIcSt11char_traitsIcESaIcEE4dataEv) for __rw::__string_ref<char, std::char_traits<char>, std::allocator<char>>::data()
    main.o(t._ZNSs7replaceEjjPKcjjj) refers to main.o(i._ZNSt11char_traitsIcE4copyEPcPKcj) for std::char_traits<char>::copy(char*, const char*, unsigned)
    main.o(t._ZNSs7replaceEjjPKcjjj) refers to main.o(i._ZNSt11char_traitsIcE4moveEPcPKcj) for std::char_traits<char>::move(char*, const char*, unsigned)
    main.o(t._ZNSs7replaceEjjPKcjjj) refers to main.o(i._ZNSt11char_traitsIcE6assignERcRKc) for std::char_traits<char>::assign(char&, const char&)
    main.o(t._ZNSs7replaceEjjPKcjjj) refers to main.o(.constdata__ZZNSs7replaceEjjPKcjjjEs) for std::basic_string<char, std::char_traits<char>, std::allocator<char>>::replace(unsigned, unsigned, const char*, unsigned, unsigned, unsigned)::string
    main.o(.ARM.exidx) refers to main.o(t._ZNSs7replaceEjjPKcjjj) for t._ZNSs7replaceEjjPKcjjj
    main.o(.ARM.exidx) refers to unwind_pr0.o(.text) for __aeabi_unwind_cpp_pr0
    main.o(t._ZNSs7replaceEjjPKcj) refers to main.o(t._ZNSs7replaceEjjPKcjjj) for std::basic_string<char, std::char_traits<char>, std::allocator<char>>::replace(unsigned, unsigned, const char*, unsigned, unsigned, unsigned)
    main.o(.ARM.exidx) refers to main.o(t._ZNSs7replaceEjjPKcj) for t._ZNSs7replaceEjjPKcj
    main.o(.ARM.exidx) refers to unwind_pr0.o(.text) for __aeabi_unwind_cpp_pr0
    main.o(t._ZNSsaSERKSs) refers to main.o(t._ZNKSs7_C_prefEv) for std::basic_string<char, std::char_traits<char>, std::allocator<char>>::_C_pref() const
    main.o(t._ZNSsaSERKSs) refers to main.o(t._ZNK4__rw12__string_refIcSt11char_traitsIcESaIcEE12_C_ref_countEv) for __rw::__string_ref<char, std::char_traits<char>, std::allocator<char>>::_C_ref_count() const
    main.o(t._ZNSsaSERKSs) refers to main.o(t._ZN4__rw12__string_refIcSt11char_traitsIcESaIcEE10_C_inc_refEv) for __rw::__string_ref<char, std::char_traits<char>, std::allocator<char>>::_C_inc_ref()
    main.o(t._ZNSsaSERKSs) refers to main.o(t._ZNSs9_C_unlinkEv) for std::basic_string<char, std::char_traits<char>, std::allocator<char>>::_C_unlink()
    main.o(t._ZNSsaSERKSs) refers to main.o(t._ZNKSs4sizeEv) for std::basic_string<char, std::char_traits<char>, std::allocator<char>>::size() const
    main.o(t._ZNSsaSERKSs) refers to main.o(t._ZNKSs4dataEv) for std::basic_string<char, std::char_traits<char>, std::allocator<char>>::data() const
    main.o(t._ZNSsaSERKSs) refers to main.o(t._ZNSs7replaceEjjPKcj) for std::basic_string<char, std::char_traits<char>, std::allocator<char>>::replace(unsigned, unsigned, const char*, unsigned)
    main.o(.ARM.exidx) refers to main.o(t._ZNSsaSERKSs) for t._ZNSsaSERKSs
    main.o(.ARM.exidx) refers to unwind_pr0.o(.text) for __aeabi_unwind_cpp_pr0
    main.o(t._ZNSsaSEPKc) refers to main.o(i._ZNSt11char_traitsIcE6lengthEPKc) for std::char_traits<char>::length(const char*)
    main.o(t._ZNSsaSEPKc) refers to main.o(t._ZNKSs7_C_prefEv) for std::basic_string<char, std::char_traits<char>, std::allocator<char>>::_C_pref() const
    main.o(t._ZNSsaSEPKc) refers to main.o(t._ZNK4__rw12__string_refIcSt11char_traitsIcESaIcEE12_C_ref_countEv) for __rw::__string_ref<char, std::char_traits<char>, std::allocator<char>>::_C_ref_count() const
    main.o(t._ZNSsaSEPKc) refers to main.o(i._ZNSt11char_traitsIcE6assignERcRKc) for std::char_traits<char>::assign(char&, const char&)
    main.o(t._ZNSsaSEPKc) refers to main.o(t._ZNSs9_C_unlinkEv) for std::basic_string<char, std::char_traits<char>, std::allocator<char>>::_C_unlink()
    main.o(t._ZNSsaSEPKc) refers to main.o(t._ZNSs7_C_nullEv) for std::basic_string<char, std::char_traits<char>, std::allocator<char>>::_C_null()
    main.o(t._ZNSsaSEPKc) refers to main.o(t._ZNKSs4sizeEv) for std::basic_string<char, std::char_traits<char>, std::allocator<char>>::size() const
    main.o(t._ZNSsaSEPKc) refers to main.o(t._ZNSs7replaceEjjPKcj) for std::basic_string<char, std::char_traits<char>, std::allocator<char>>::replace(unsigned, unsigned, const char*, unsigned)
    main.o(.ARM.exidx) refers to main.o(t._ZNSsaSEPKc) for t._ZNSsaSEPKc
    main.o(.ARM.exidx) refers to unwind_pr0.o(.text) for __aeabi_unwind_cpp_pr0
    main.o(i._ZN4__rw23__rw_numpunct_impl_dataIcED1Ev) refers to main.o(t._ZNSsD1Ev) for std::basic_string<char, std::char_traits<char>, std::allocator<char>>::~basic_string()
    main.o(i._ZN4__rw23__rw_numpunct_impl_dataIcED1Ev) refers to main.o(i._ZN4__rw15__rw_punct_dataIcED1Ev) for __rw::__rw_punct_data<char>::~__rw_punct_data()
    main.o(i._ZN4__rw23__rw_numpunct_impl_dataIcED1Ev.clean) refers to main.o(t._ZNSsD1Ev) for std::basic_string<char, std::char_traits<char>, std::allocator<char>>::~basic_string()
    main.o(i._ZN4__rw23__rw_numpunct_impl_dataIcED1Ev.clean) refers to main.o(i._ZN4__rw15__rw_punct_dataIcED1Ev) for __rw::__rw_punct_data<char>::~__rw_punct_data()
    main.o(i._ZN4__rw23__rw_numpunct_impl_dataIcED1Ev.clean) refers to arm_exceptions_cleanup.o(.emb_text) for __cxa_end_cleanup
    main.o(.ARM.extab) refers to main.o(i._ZN4__rw23__rw_numpunct_impl_dataIcED1Ev.clean) for i._ZN4__rw23__rw_numpunct_impl_dataIcED1Ev.clean
    main.o(.ARM.exidx) refers to main.o(i._ZN4__rw23__rw_numpunct_impl_dataIcED1Ev) for i._ZN4__rw23__rw_numpunct_impl_dataIcED1Ev
    main.o(.ARM.exidx) refers to unwind_pr0.o(.text) for __aeabi_unwind_cpp_pr0
    main.o(.ARM.exidx) refers to main.o(.ARM.extab) for .extab._ZN4__rw23__rw_numpunct_impl_dataIcED1Ev
    main.o(.ARM.exidx) refers to main.o(i._ZN4__rw23__rw_numpunct_impl_dataIcED1Ev.clean) for i._ZN4__rw23__rw_numpunct_impl_dataIcED1Ev.clean
    main.o(t._ZN4__rw23__rw_numpunct_impl_dataIcEC1EPKNS_23__rw_numpunct_init_dataIcEE) refers to main.o(t._ZNSaIcEC1Ev) for std::allocator<char>::allocator()
    main.o(t._ZN4__rw23__rw_numpunct_impl_dataIcEC1EPKNS_23__rw_numpunct_init_dataIcEE) refers to main.o(t._ZNSsC1ERKSaIcE) for std::basic_string<char, std::char_traits<char>, std::allocator<char>>::basic_string(const std::allocator<char>&)
    main.o(t._ZN4__rw23__rw_numpunct_impl_dataIcEC1EPKNS_23__rw_numpunct_init_dataIcEE) refers to main.o(t._ZNSsaSEPKc) for std::basic_string<char, std::char_traits<char>, std::allocator<char>>::operator =(const char*)
    main.o(t._ZN4__rw23__rw_numpunct_impl_dataIcEC1EPKNS_23__rw_numpunct_init_dataIcEE) refers to array_del.o(i._ZdaPv) for operator delete[] (void*)
    main.o(t._ZN4__rw23__rw_numpunct_impl_dataIcEC1EPKNS_23__rw_numpunct_init_dataIcEE.clean) refers to main.o(t._ZNSsD1Ev) for std::basic_string<char, std::char_traits<char>, std::allocator<char>>::~basic_string()
    main.o(t._ZN4__rw23__rw_numpunct_impl_dataIcEC1EPKNS_23__rw_numpunct_init_dataIcEE.clean) refers to main.o(i._ZN4__rw15__rw_punct_dataIcED1Ev) for __rw::__rw_punct_data<char>::~__rw_punct_data()
    main.o(t._ZN4__rw23__rw_numpunct_impl_dataIcEC1EPKNS_23__rw_numpunct_init_dataIcEE.clean) refers to arm_exceptions_cleanup.o(.emb_text) for __cxa_end_cleanup
    main.o(.ARM.extab) refers to main.o(t._ZN4__rw23__rw_numpunct_impl_dataIcEC1EPKNS_23__rw_numpunct_init_dataIcEE.clean) for t._ZN4__rw23__rw_numpunct_impl_dataIcEC1EPKNS_23__rw_numpunct_init_dataIcEE.clean
    main.o(.ARM.exidx) refers to main.o(t._ZN4__rw23__rw_numpunct_impl_dataIcEC1EPKNS_23__rw_numpunct_init_dataIcEE) for t._ZN4__rw23__rw_numpunct_impl_dataIcEC1EPKNS_23__rw_numpunct_init_dataIcEE
    main.o(.ARM.exidx) refers to unwind_pr0.o(.text) for __aeabi_unwind_cpp_pr0
    main.o(.ARM.exidx) refers to main.o(.ARM.extab) for .extab._ZN4__rw23__rw_numpunct_impl_dataIcEC1EPKNS_23__rw_numpunct_init_dataIcEE
    main.o(.ARM.exidx) refers to main.o(t._ZN4__rw23__rw_numpunct_impl_dataIcEC1EPKNS_23__rw_numpunct_init_dataIcEE.clean) for t._ZN4__rw23__rw_numpunct_impl_dataIcEC1EPKNS_23__rw_numpunct_init_dataIcEE.clean
    main.o(t._ZNSt8numpunctIcEC1EjPKN4__rw23__rw_numpunct_init_dataIcEE) refers to main.o(i._ZNSt6locale5facetC1Eji) for std::locale::facet::facet(unsigned, int)
    main.o(t._ZNSt8numpunctIcEC1EjPKN4__rw23__rw_numpunct_init_dataIcEE) refers to main.o(t._ZN4__rw23__rw_numpunct_impl_dataIcEC1EPKNS_23__rw_numpunct_init_dataIcEE) for __rw::__rw_numpunct_impl_data<char>::__rw_numpunct_impl_data(const __rw::__rw_numpunct_init_data<char>*)
    main.o(t._ZNSt8numpunctIcEC1EjPKN4__rw23__rw_numpunct_init_dataIcEE) refers to main.o(.constdata__ZTVSt8numpunctIcE) for vtable for std::numpunct<char>
    main.o(t._ZNSt8numpunctIcEC1EjPKN4__rw23__rw_numpunct_init_dataIcEE.clean) refers to main.o(i._ZNSt6locale5facetD1Ev) for std::locale::facet::~facet()
    main.o(t._ZNSt8numpunctIcEC1EjPKN4__rw23__rw_numpunct_init_dataIcEE.clean) refers to arm_exceptions_cleanup.o(.emb_text) for __cxa_end_cleanup
    main.o(.ARM.extab) refers to main.o(t._ZNSt8numpunctIcEC1EjPKN4__rw23__rw_numpunct_init_dataIcEE.clean) for t._ZNSt8numpunctIcEC1EjPKN4__rw23__rw_numpunct_init_dataIcEE.clean
    main.o(.ARM.exidx) refers to main.o(t._ZNSt8numpunctIcEC1EjPKN4__rw23__rw_numpunct_init_dataIcEE) for t._ZNSt8numpunctIcEC1EjPKN4__rw23__rw_numpunct_init_dataIcEE
    main.o(.ARM.exidx) refers to unwind_pr0.o(.text) for __aeabi_unwind_cpp_pr0
    main.o(.ARM.exidx) refers to main.o(.ARM.extab) for .extab._ZNSt8numpunctIcEC1EjPKN4__rw23__rw_numpunct_init_dataIcEE
    main.o(.ARM.exidx) refers to main.o(t._ZNSt8numpunctIcEC1EjPKN4__rw23__rw_numpunct_init_dataIcEE.clean) for t._ZNSt8numpunctIcEC1EjPKN4__rw23__rw_numpunct_init_dataIcEE.clean
    main.o(t._ZN4__rw23__rw_numpunct_impl_dataIcE16_C_initfacetbaseERKSt6locale) refers to main.o(t._ZNKSs5c_strEv) for std::basic_string<char, std::char_traits<char>, std::allocator<char>>::c_str() const
    main.o(.ARM.exidx) refers to main.o(t._ZN4__rw23__rw_numpunct_impl_dataIcE16_C_initfacetbaseERKSt6locale) for t._ZN4__rw23__rw_numpunct_impl_dataIcE16_C_initfacetbaseERKSt6locale
    main.o(.ARM.exidx) refers to unwind_pr0.o(.text) for __aeabi_unwind_cpp_pr0
    main.o(t._ZNSt8numpunctIcE12_C_initfacetERKSt6locale) refers to main.o(t._ZNSsaSERKSs) for std::basic_string<char, std::char_traits<char>, std::allocator<char>>::operator =(const std::basic_string<char, std::char_traits<char>, std::allocator<char>>&)
    main.o(t._ZNSt8numpunctIcE12_C_initfacetERKSt6locale) refers to main.o(t._ZNSsD1Ev) for std::basic_string<char, std::char_traits<char>, std::allocator<char>>::~basic_string()
    main.o(t._ZNSt8numpunctIcE12_C_initfacetERKSt6locale) refers to main.o(t._ZN4__rw23__rw_numpunct_impl_dataIcE16_C_initfacetbaseERKSt6locale) for __rw::__rw_numpunct_impl_data<char>::_C_initfacetbase(const std::locale&)
    main.o(t._ZNSt8numpunctIcE12_C_initfacetERKSt6locale.clean) refers to main.o(t._ZNSsD1Ev) for std::basic_string<char, std::char_traits<char>, std::allocator<char>>::~basic_string()
    main.o(t._ZNSt8numpunctIcE12_C_initfacetERKSt6locale.clean) refers to arm_exceptions_cleanup.o(.emb_text) for __cxa_end_cleanup
    main.o(.ARM.extab) refers to main.o(t._ZNSt8numpunctIcE12_C_initfacetERKSt6locale.clean) for t._ZNSt8numpunctIcE12_C_initfacetERKSt6locale.clean
    main.o(.ARM.exidx) refers to main.o(t._ZNSt8numpunctIcE12_C_initfacetERKSt6locale) for t._ZNSt8numpunctIcE12_C_initfacetERKSt6locale
    main.o(.ARM.exidx) refers to unwind_pr0.o(.text) for __aeabi_unwind_cpp_pr0
    main.o(.ARM.exidx) refers to main.o(.ARM.extab) for .extab._ZNSt8numpunctIcE12_C_initfacetERKSt6locale
    main.o(.ARM.exidx) refers to main.o(t._ZNSt8numpunctIcE12_C_initfacetERKSt6locale.clean) for t._ZNSt8numpunctIcE12_C_initfacetERKSt6locale.clean
    main.o(i._ZNSt8numpunctIcED1Ev) refers to main.o(i._ZN4__rw18__rw_numpunct_implIcED1Ev) for __rw::__rw_numpunct_impl<char>::~__rw_numpunct_impl()
    main.o(i._ZNSt8numpunctIcED1Ev) refers to main.o(i._ZNSt6locale5facetD1Ev) for std::locale::facet::~facet()
    main.o(i._ZNSt8numpunctIcED1Ev.clean) refers to main.o(i._ZNSt6locale5facetD1Ev) for std::locale::facet::~facet()
    main.o(i._ZNSt8numpunctIcED1Ev.clean) refers to arm_exceptions_cleanup.o(.emb_text) for __cxa_end_cleanup
    main.o(.ARM.extab) refers to main.o(i._ZNSt8numpunctIcED1Ev.clean) for i._ZNSt8numpunctIcED1Ev.clean
    main.o(.ARM.exidx) refers to main.o(i._ZNSt8numpunctIcED1Ev) for i._ZNSt8numpunctIcED1Ev
    main.o(.ARM.exidx) refers to unwind_pr0.o(.text) for __aeabi_unwind_cpp_pr0
    main.o(.ARM.exidx) refers to main.o(.ARM.extab) for .extab._ZNSt8numpunctIcED1Ev
    main.o(.ARM.exidx) refers to main.o(i._ZNSt8numpunctIcED1Ev.clean) for i._ZNSt8numpunctIcED1Ev.clean
    main.o(t._ZN4__rw23__rw_numpunct_impl_dataIcE20_C_get_init_by_name_EPKc) refers to locale.o(i._ZN4__rw23__rw_numpunct_impl_base18_C_get_named_init_EPKc) for __rw::__rw_numpunct_impl_base::_C_get_named_init_(const char*)
    main.o(.ARM.exidx) refers to main.o(t._ZN4__rw23__rw_numpunct_impl_dataIcE20_C_get_init_by_name_EPKc) for t._ZN4__rw23__rw_numpunct_impl_dataIcE20_C_get_init_by_name_EPKc
    main.o(.ARM.exidx) refers to unwind_pr0.o(.text) for __aeabi_unwind_cpp_pr0
    main.o(t._ZNSt15numpunct_bynameIcEC1EPKcj) refers to main.o(t._ZN4__rw23__rw_numpunct_impl_dataIcE20_C_get_init_by_name_EPKc) for __rw::__rw_numpunct_impl_data<char>::_C_get_init_by_name_(const char*)
    main.o(t._ZNSt15numpunct_bynameIcEC1EPKcj) refers to main.o(t._ZNSt8numpunctIcEC1EjPKN4__rw23__rw_numpunct_init_dataIcEE) for std::numpunct<char>::numpunct(unsigned, const __rw::__rw_numpunct_init_data<char>*)
    main.o(t._ZNSt15numpunct_bynameIcEC1EPKcj) refers to main.o(.constdata__ZTVSt15numpunct_bynameIcE) for vtable for std::numpunct_byname<char>
    main.o(.ARM.exidx) refers to main.o(t._ZNSt15numpunct_bynameIcEC1EPKcj) for t._ZNSt15numpunct_bynameIcEC1EPKcj
    main.o(.ARM.exidx) refers to unwind_pr0.o(.text) for __aeabi_unwind_cpp_pr0
    main.o(i._ZN4__rw22__rw_digit_writer_baseD1Ev) refers to array_del.o(i._ZdaPv) for operator delete[] (void*)
    main.o(i._ZN4__rw22__rw_digit_writer_baseD1Ev) refers to main.o(.constdata__ZTVN4__rw22__rw_digit_writer_baseE) for vtable for __rw::__rw_digit_writer_base
    main.o(.ARM.exidx) refers to main.o(i._ZN4__rw22__rw_digit_writer_baseD1Ev) for i._ZN4__rw22__rw_digit_writer_baseD1Ev
    main.o(t._ZNSt19ostreambuf_iteratorIcSt11char_traitsIcEEaSEc) refers to main.o(t._ZNKSt19ostreambuf_iteratorIcSt11char_traitsIcEE6failedEv) for std::ostreambuf_iterator<char, std::char_traits<char>>::failed() const
    main.o(t._ZNSt19ostreambuf_iteratorIcSt11char_traitsIcEEaSEc) refers to main.o(t._ZNSt15basic_streambufIcSt11char_traitsIcEE5sputcEc) for std::basic_streambuf<char, std::char_traits<char>>::sputc(char)
    main.o(t._ZNSt19ostreambuf_iteratorIcSt11char_traitsIcEEaSEc) refers to main.o(i._ZNSt11char_traitsIcE11eq_int_typeERKiS2_) for std::char_traits<char>::eq_int_type(const int&, const int&)
    main.o(.ARM.exidx) refers to main.o(t._ZNSt19ostreambuf_iteratorIcSt11char_traitsIcEEaSEc) for t._ZNSt19ostreambuf_iteratorIcSt11char_traitsIcEEaSEc
    main.o(.ARM.exidx) refers to unwind_pr0.o(.text) for __aeabi_unwind_cpp_pr0
    main.o(t._ZN4__rw17__rw_digit_writerIcSt19ostreambuf_iteratorIcSt11char_traitsIcEEE13_C_put_digitsEc) refers to main.o(t._ZNKSs5c_strEv) for std::basic_string<char, std::char_traits<char>, std::allocator<char>>::c_str() const
    main.o(t._ZN4__rw17__rw_digit_writerIcSt19ostreambuf_iteratorIcSt11char_traitsIcEEE13_C_put_digitsEc) refers to vendor.o(i._ZN4__rw22__rw_digit_writer_base14_C_calc_groupsEiPKc) for __rw::__rw_digit_writer_base::_C_calc_groups(int, const char*)
    main.o(t._ZN4__rw17__rw_digit_writerIcSt19ostreambuf_iteratorIcSt11char_traitsIcEEE13_C_put_digitsEc) refers to array_new.o(i._Znaj) for operator new[] (unsigned)
    main.o(t._ZN4__rw17__rw_digit_writerIcSt19ostreambuf_iteratorIcSt11char_traitsIcEEE13_C_put_digitsEc) refers to main.o(t._ZNSt19ostreambuf_iteratorIcSt11char_traitsIcEEaSEc) for std::ostreambuf_iterator<char, std::char_traits<char>>::operator =(char)
    main.o(t._ZN4__rw17__rw_digit_writerIcSt19ostreambuf_iteratorIcSt11char_traitsIcEEE13_C_put_digitsEc) refers to array_del.o(i._ZdaPv) for operator delete[] (void*)
    main.o(.ARM.exidx) refers to main.o(t._ZN4__rw17__rw_digit_writerIcSt19ostreambuf_iteratorIcSt11char_traitsIcEEE13_C_put_digitsEc) for t._ZN4__rw17__rw_digit_writerIcSt19ostreambuf_iteratorIcSt11char_traitsIcEEE13_C_put_digitsEc
    main.o(.ARM.exidx) refers to unwind_pr0.o(.text) for __aeabi_unwind_cpp_pr0
    main.o(t._ZN4__rw17__rw_digit_writerIcSt19ostreambuf_iteratorIcSt11char_traitsIcEEE14_C_put_keywordERKSsc) refers to main.o(t._ZNKSs6lengthEv) for std::basic_string<char, std::char_traits<char>, std::allocator<char>>::length() const
    main.o(t._ZN4__rw17__rw_digit_writerIcSt19ostreambuf_iteratorIcSt11char_traitsIcEEE14_C_put_keywordERKSsc) refers to main.o(t._ZNSt19ostreambuf_iteratorIcSt11char_traitsIcEEaSEc) for std::ostreambuf_iterator<char, std::char_traits<char>>::operator =(char)
    main.o(t._ZN4__rw17__rw_digit_writerIcSt19ostreambuf_iteratorIcSt11char_traitsIcEEE14_C_put_keywordERKSsc) refers to main.o(t._ZNKSs5c_strEv) for std::basic_string<char, std::char_traits<char>, std::allocator<char>>::c_str() const
    main.o(.ARM.exidx) refers to main.o(t._ZN4__rw17__rw_digit_writerIcSt19ostreambuf_iteratorIcSt11char_traitsIcEEE14_C_put_keywordERKSsc) for t._ZN4__rw17__rw_digit_writerIcSt19ostreambuf_iteratorIcSt11char_traitsIcEEE14_C_put_keywordERKSsc
    main.o(.ARM.exidx) refers to unwind_pr0.o(.text) for __aeabi_unwind_cpp_pr0
    main.o(i._ZN4__rw22__rw_digit_writer_baseC1ERSt8ios_base) refers to main.o(i._ZNKSt8ios_base5flagsEv) for std::ios_base::flags() const
    main.o(i._ZN4__rw22__rw_digit_writer_baseC1ERSt8ios_base) refers to main.o(.constdata__ZTVN4__rw22__rw_digit_writer_baseE) for vtable for __rw::__rw_digit_writer_base
    main.o(.ARM.exidx) refers to main.o(i._ZN4__rw22__rw_digit_writer_baseC1ERSt8ios_base) for i._ZN4__rw22__rw_digit_writer_baseC1ERSt8ios_base
    main.o(.ARM.exidx) refers to unwind_pr0.o(.text) for __aeabi_unwind_cpp_pr0
    main.o(t._ZN4__rw17__rw_digit_writerIcSt19ostreambuf_iteratorIcSt11char_traitsIcEEEC1ERS4_RSt8ios_base) refers to main.o(t._ZN4__rw24__rw_digit_writer_base_1IcEC1ERSt8ios_baseRKSt6locale) for __rw::__rw_digit_writer_base_1<char>::__rw_digit_writer_base_1(std::ios_base&, const std::locale&)
    main.o(t._ZN4__rw17__rw_digit_writerIcSt19ostreambuf_iteratorIcSt11char_traitsIcEEEC1ERS4_RSt8ios_base) refers to main.o(.constdata__ZTVN4__rw17__rw_digit_writerIcSt19ostreambuf_iteratorIcSt11char_traitsIcEEEE) for vtable for __rw::__rw_digit_writer<char, std::ostreambuf_iterator<char, std::char_traits<char>>>
    main.o(.ARM.exidx) refers to main.o(t._ZN4__rw17__rw_digit_writerIcSt19ostreambuf_iteratorIcSt11char_traitsIcEEEC1ERS4_RSt8ios_base) for t._ZN4__rw17__rw_digit_writerIcSt19ostreambuf_iteratorIcSt11char_traitsIcEEEC1ERS4_RSt8ios_base
    main.o(.ARM.exidx) refers to unwind_pr0.o(.text) for __aeabi_unwind_cpp_pr0
    main.o(t._ZNKSt7num_putIcSt19ostreambuf_iteratorIcSt11char_traitsIcEEE6do_putES3_RSt8ios_basecb) refers to main.o(t._ZN4__rw17__rw_digit_writerIcSt19ostreambuf_iteratorIcSt11char_traitsIcEEEC1ERS4_RSt8ios_base) for __rw::__rw_digit_writer<char, std::ostreambuf_iterator<char, std::char_traits<char>>>::__rw_digit_writer(std::ostreambuf_iterator<char, std::char_traits<char>>&, std::ios_base&)
    main.o(t._ZNKSt7num_putIcSt19ostreambuf_iteratorIcSt11char_traitsIcEEE6do_putES3_RSt8ios_basecb) refers to main.o(i._ZNKSt8ios_base5flagsEv) for std::ios_base::flags() const
    main.o(t._ZNKSt7num_putIcSt19ostreambuf_iteratorIcSt11char_traitsIcEEE6do_putES3_RSt8ios_basecb) refers to main.o(t._ZN4__rw17__rw_digit_writerIcSt19ostreambuf_iteratorIcSt11char_traitsIcEEE14_C_put_keywordERKSsc) for __rw::__rw_digit_writer<char, std::ostreambuf_iterator<char, std::char_traits<char>>>::_C_put_keyword(const std::basic_string<char, std::char_traits<char>, std::allocator<char>>&, char)
    main.o(t._ZNKSt7num_putIcSt19ostreambuf_iteratorIcSt11char_traitsIcEEE6do_putES3_RSt8ios_basecb) refers to main.o(i._ZN4__rw22__rw_digit_writer_base11_C_digitizeEm) for __rw::__rw_digit_writer_base::_C_digitize(unsigned long)
    main.o(t._ZNKSt7num_putIcSt19ostreambuf_iteratorIcSt11char_traitsIcEEE6do_putES3_RSt8ios_basecb) refers to main.o(t._ZN4__rw17__rw_digit_writerIcSt19ostreambuf_iteratorIcSt11char_traitsIcEEE13_C_put_digitsEc) for __rw::__rw_digit_writer<char, std::ostreambuf_iterator<char, std::char_traits<char>>>::_C_put_digits(char)
    main.o(t._ZNKSt7num_putIcSt19ostreambuf_iteratorIcSt11char_traitsIcEEE6do_putES3_RSt8ios_basecb) refers to main.o(i._ZN4__rw17__rw_digit_writerIcSt19ostreambuf_iteratorIcSt11char_traitsIcEEED1Ev) for __rw::__rw_digit_writer<char, std::ostreambuf_iterator<char, std::char_traits<char>>>::~__rw_digit_writer()
    main.o(t._ZNKSt7num_putIcSt19ostreambuf_iteratorIcSt11char_traitsIcEEE6do_putES3_RSt8ios_basecb.clean) refers to main.o(i._ZN4__rw17__rw_digit_writerIcSt19ostreambuf_iteratorIcSt11char_traitsIcEEED1Ev) for __rw::__rw_digit_writer<char, std::ostreambuf_iterator<char, std::char_traits<char>>>::~__rw_digit_writer()
    main.o(t._ZNKSt7num_putIcSt19ostreambuf_iteratorIcSt11char_traitsIcEEE6do_putES3_RSt8ios_basecb.clean) refers to arm_exceptions_cleanup.o(.emb_text) for __cxa_end_cleanup
    main.o(.ARM.extab) refers to main.o(t._ZNKSt7num_putIcSt19ostreambuf_iteratorIcSt11char_traitsIcEEE6do_putES3_RSt8ios_basecb.clean) for t._ZNKSt7num_putIcSt19ostreambuf_iteratorIcSt11char_traitsIcEEE6do_putES3_RSt8ios_basecb.clean
    main.o(.ARM.exidx) refers to main.o(t._ZNKSt7num_putIcSt19ostreambuf_iteratorIcSt11char_traitsIcEEE6do_putES3_RSt8ios_basecb) for t._ZNKSt7num_putIcSt19ostreambuf_iteratorIcSt11char_traitsIcEEE6do_putES3_RSt8ios_basecb
    main.o(.ARM.exidx) refers to unwind_pr0.o(.text) for __aeabi_unwind_cpp_pr0
    main.o(.ARM.exidx) refers to main.o(.ARM.extab) for .extab._ZNKSt7num_putIcSt19ostreambuf_iteratorIcSt11char_traitsIcEEE6do_putES3_RSt8ios_basecb
    main.o(.ARM.exidx) refers to main.o(t._ZNKSt7num_putIcSt19ostreambuf_iteratorIcSt11char_traitsIcEEE6do_putES3_RSt8ios_basecb.clean) for t._ZNKSt7num_putIcSt19ostreambuf_iteratorIcSt11char_traitsIcEEE6do_putES3_RSt8ios_basecb.clean
    main.o(t._ZNKSt7num_putIcSt19ostreambuf_iteratorIcSt11char_traitsIcEEE6do_putES3_RSt8ios_basecl) refers to main.o(t._ZN4__rw17__rw_digit_writerIcSt19ostreambuf_iteratorIcSt11char_traitsIcEEEC1ERS4_RSt8ios_base) for __rw::__rw_digit_writer<char, std::ostreambuf_iterator<char, std::char_traits<char>>>::__rw_digit_writer(std::ostreambuf_iterator<char, std::char_traits<char>>&, std::ios_base&)
    main.o(t._ZNKSt7num_putIcSt19ostreambuf_iteratorIcSt11char_traitsIcEEE6do_putES3_RSt8ios_basecl) refers to vendor.o(i._ZN4__rw22__rw_digit_writer_base11_C_digitizeEmbPKc) for __rw::__rw_digit_writer_base::_C_digitize(unsigned long, bool, const char*)
    main.o(t._ZNKSt7num_putIcSt19ostreambuf_iteratorIcSt11char_traitsIcEEE6do_putES3_RSt8ios_basecl) refers to main.o(t._ZN4__rw17__rw_digit_writerIcSt19ostreambuf_iteratorIcSt11char_traitsIcEEE13_C_put_digitsEc) for __rw::__rw_digit_writer<char, std::ostreambuf_iterator<char, std::char_traits<char>>>::_C_put_digits(char)
    main.o(t._ZNKSt7num_putIcSt19ostreambuf_iteratorIcSt11char_traitsIcEEE6do_putES3_RSt8ios_basecl) refers to main.o(i._ZN4__rw17__rw_digit_writerIcSt19ostreambuf_iteratorIcSt11char_traitsIcEEED1Ev) for __rw::__rw_digit_writer<char, std::ostreambuf_iterator<char, std::char_traits<char>>>::~__rw_digit_writer()
    main.o(t._ZNKSt7num_putIcSt19ostreambuf_iteratorIcSt11char_traitsIcEEE6do_putES3_RSt8ios_basecl) refers to main.o(.constdata__ZZN4__rw22__rw_digit_writer_base11_C_digitizeElEs) for __rw::__rw_digit_writer_base::_C_digitize(long)::string
    main.o(t._ZNKSt7num_putIcSt19ostreambuf_iteratorIcSt11char_traitsIcEEE6do_putES3_RSt8ios_basecl.clean) refers to main.o(i._ZN4__rw17__rw_digit_writerIcSt19ostreambuf_iteratorIcSt11char_traitsIcEEED1Ev) for __rw::__rw_digit_writer<char, std::ostreambuf_iterator<char, std::char_traits<char>>>::~__rw_digit_writer()
    main.o(t._ZNKSt7num_putIcSt19ostreambuf_iteratorIcSt11char_traitsIcEEE6do_putES3_RSt8ios_basecl.clean) refers to arm_exceptions_cleanup.o(.emb_text) for __cxa_end_cleanup
    main.o(.ARM.extab) refers to main.o(t._ZNKSt7num_putIcSt19ostreambuf_iteratorIcSt11char_traitsIcEEE6do_putES3_RSt8ios_basecl.clean) for t._ZNKSt7num_putIcSt19ostreambuf_iteratorIcSt11char_traitsIcEEE6do_putES3_RSt8ios_basecl.clean
    main.o(.ARM.exidx) refers to main.o(t._ZNKSt7num_putIcSt19ostreambuf_iteratorIcSt11char_traitsIcEEE6do_putES3_RSt8ios_basecl) for t._ZNKSt7num_putIcSt19ostreambuf_iteratorIcSt11char_traitsIcEEE6do_putES3_RSt8ios_basecl
    main.o(.ARM.exidx) refers to unwind_pr0.o(.text) for __aeabi_unwind_cpp_pr0
    main.o(.ARM.exidx) refers to main.o(.ARM.extab) for .extab._ZNKSt7num_putIcSt19ostreambuf_iteratorIcSt11char_traitsIcEEE6do_putES3_RSt8ios_basecl
    main.o(.ARM.exidx) refers to main.o(t._ZNKSt7num_putIcSt19ostreambuf_iteratorIcSt11char_traitsIcEEE6do_putES3_RSt8ios_basecl.clean) for t._ZNKSt7num_putIcSt19ostreambuf_iteratorIcSt11char_traitsIcEEE6do_putES3_RSt8ios_basecl.clean
    main.o(t._ZNKSt7num_putIcSt19ostreambuf_iteratorIcSt11char_traitsIcEEE6do_putES3_RSt8ios_basecm) refers to main.o(t._ZN4__rw17__rw_digit_writerIcSt19ostreambuf_iteratorIcSt11char_traitsIcEEEC1ERS4_RSt8ios_base) for __rw::__rw_digit_writer<char, std::ostreambuf_iterator<char, std::char_traits<char>>>::__rw_digit_writer(std::ostreambuf_iterator<char, std::char_traits<char>>&, std::ios_base&)
    main.o(t._ZNKSt7num_putIcSt19ostreambuf_iteratorIcSt11char_traitsIcEEE6do_putES3_RSt8ios_basecm) refers to main.o(i._ZN4__rw22__rw_digit_writer_base11_C_digitizeEm) for __rw::__rw_digit_writer_base::_C_digitize(unsigned long)
    main.o(t._ZNKSt7num_putIcSt19ostreambuf_iteratorIcSt11char_traitsIcEEE6do_putES3_RSt8ios_basecm) refers to main.o(t._ZN4__rw17__rw_digit_writerIcSt19ostreambuf_iteratorIcSt11char_traitsIcEEE13_C_put_digitsEc) for __rw::__rw_digit_writer<char, std::ostreambuf_iterator<char, std::char_traits<char>>>::_C_put_digits(char)
    main.o(t._ZNKSt7num_putIcSt19ostreambuf_iteratorIcSt11char_traitsIcEEE6do_putES3_RSt8ios_basecm) refers to main.o(i._ZN4__rw17__rw_digit_writerIcSt19ostreambuf_iteratorIcSt11char_traitsIcEEED1Ev) for __rw::__rw_digit_writer<char, std::ostreambuf_iterator<char, std::char_traits<char>>>::~__rw_digit_writer()
    main.o(t._ZNKSt7num_putIcSt19ostreambuf_iteratorIcSt11char_traitsIcEEE6do_putES3_RSt8ios_basecm.clean) refers to main.o(i._ZN4__rw17__rw_digit_writerIcSt19ostreambuf_iteratorIcSt11char_traitsIcEEED1Ev) for __rw::__rw_digit_writer<char, std::ostreambuf_iterator<char, std::char_traits<char>>>::~__rw_digit_writer()
    main.o(t._ZNKSt7num_putIcSt19ostreambuf_iteratorIcSt11char_traitsIcEEE6do_putES3_RSt8ios_basecm.clean) refers to arm_exceptions_cleanup.o(.emb_text) for __cxa_end_cleanup
    main.o(.ARM.extab) refers to main.o(t._ZNKSt7num_putIcSt19ostreambuf_iteratorIcSt11char_traitsIcEEE6do_putES3_RSt8ios_basecm.clean) for t._ZNKSt7num_putIcSt19ostreambuf_iteratorIcSt11char_traitsIcEEE6do_putES3_RSt8ios_basecm.clean
    main.o(.ARM.exidx) refers to main.o(t._ZNKSt7num_putIcSt19ostreambuf_iteratorIcSt11char_traitsIcEEE6do_putES3_RSt8ios_basecm) for t._ZNKSt7num_putIcSt19ostreambuf_iteratorIcSt11char_traitsIcEEE6do_putES3_RSt8ios_basecm
    main.o(.ARM.exidx) refers to unwind_pr0.o(.text) for __aeabi_unwind_cpp_pr0
    main.o(.ARM.exidx) refers to main.o(.ARM.extab) for .extab._ZNKSt7num_putIcSt19ostreambuf_iteratorIcSt11char_traitsIcEEE6do_putES3_RSt8ios_basecm
    main.o(.ARM.exidx) refers to main.o(t._ZNKSt7num_putIcSt19ostreambuf_iteratorIcSt11char_traitsIcEEE6do_putES3_RSt8ios_basecm.clean) for t._ZNKSt7num_putIcSt19ostreambuf_iteratorIcSt11char_traitsIcEEE6do_putES3_RSt8ios_basecm.clean
    main.o(t._ZNKSt7num_putIcSt19ostreambuf_iteratorIcSt11char_traitsIcEEE6do_putES3_RSt8ios_basecd) refers to main.o(t._ZN4__rw17__rw_digit_writerIcSt19ostreambuf_iteratorIcSt11char_traitsIcEEEC1ERS4_RSt8ios_base) for __rw::__rw_digit_writer<char, std::ostreambuf_iterator<char, std::char_traits<char>>>::__rw_digit_writer(std::ostreambuf_iterator<char, std::char_traits<char>>&, std::ios_base&)
    main.o(t._ZNKSt7num_putIcSt19ostreambuf_iteratorIcSt11char_traitsIcEEE6do_putES3_RSt8ios_basecd) refers to vendor.o(i._ZN4__rw22__rw_digit_writer_base11_C_digitizeEd) for __rw::__rw_digit_writer_base::_C_digitize(double)
    main.o(t._ZNKSt7num_putIcSt19ostreambuf_iteratorIcSt11char_traitsIcEEE6do_putES3_RSt8ios_basecd) refers to main.o(t._ZN4__rw17__rw_digit_writerIcSt19ostreambuf_iteratorIcSt11char_traitsIcEEE13_C_put_digitsEc) for __rw::__rw_digit_writer<char, std::ostreambuf_iterator<char, std::char_traits<char>>>::_C_put_digits(char)
    main.o(t._ZNKSt7num_putIcSt19ostreambuf_iteratorIcSt11char_traitsIcEEE6do_putES3_RSt8ios_basecd) refers to main.o(i._ZN4__rw17__rw_digit_writerIcSt19ostreambuf_iteratorIcSt11char_traitsIcEEED1Ev) for __rw::__rw_digit_writer<char, std::ostreambuf_iterator<char, std::char_traits<char>>>::~__rw_digit_writer()
    main.o(t._ZNKSt7num_putIcSt19ostreambuf_iteratorIcSt11char_traitsIcEEE6do_putES3_RSt8ios_basecd.clean) refers to main.o(i._ZN4__rw17__rw_digit_writerIcSt19ostreambuf_iteratorIcSt11char_traitsIcEEED1Ev) for __rw::__rw_digit_writer<char, std::ostreambuf_iterator<char, std::char_traits<char>>>::~__rw_digit_writer()
    main.o(t._ZNKSt7num_putIcSt19ostreambuf_iteratorIcSt11char_traitsIcEEE6do_putES3_RSt8ios_basecd.clean) refers to arm_exceptions_cleanup.o(.emb_text) for __cxa_end_cleanup
    main.o(.ARM.extab) refers to main.o(t._ZNKSt7num_putIcSt19ostreambuf_iteratorIcSt11char_traitsIcEEE6do_putES3_RSt8ios_basecd.clean) for t._ZNKSt7num_putIcSt19ostreambuf_iteratorIcSt11char_traitsIcEEE6do_putES3_RSt8ios_basecd.clean
    main.o(.ARM.exidx) refers to main.o(t._ZNKSt7num_putIcSt19ostreambuf_iteratorIcSt11char_traitsIcEEE6do_putES3_RSt8ios_basecd) for t._ZNKSt7num_putIcSt19ostreambuf_iteratorIcSt11char_traitsIcEEE6do_putES3_RSt8ios_basecd
    main.o(.ARM.exidx) refers to unwind_pr0.o(.text) for __aeabi_unwind_cpp_pr0
    main.o(.ARM.exidx) refers to main.o(.ARM.extab) for .extab._ZNKSt7num_putIcSt19ostreambuf_iteratorIcSt11char_traitsIcEEE6do_putES3_RSt8ios_basecd
    main.o(.ARM.exidx) refers to main.o(t._ZNKSt7num_putIcSt19ostreambuf_iteratorIcSt11char_traitsIcEEE6do_putES3_RSt8ios_basecd.clean) for t._ZNKSt7num_putIcSt19ostreambuf_iteratorIcSt11char_traitsIcEEE6do_putES3_RSt8ios_basecd.clean
    main.o(t._ZNKSt7num_putIcSt19ostreambuf_iteratorIcSt11char_traitsIcEEE6do_putES3_RSt8ios_basece) refers to main.o(t._ZN4__rw17__rw_digit_writerIcSt19ostreambuf_iteratorIcSt11char_traitsIcEEEC1ERS4_RSt8ios_base) for __rw::__rw_digit_writer<char, std::ostreambuf_iterator<char, std::char_traits<char>>>::__rw_digit_writer(std::ostreambuf_iterator<char, std::char_traits<char>>&, std::ios_base&)
    main.o(t._ZNKSt7num_putIcSt19ostreambuf_iteratorIcSt11char_traitsIcEEE6do_putES3_RSt8ios_basece) refers to vendor.o(i._ZN4__rw22__rw_digit_writer_base11_C_digitizeEe) for __rw::__rw_digit_writer_base::_C_digitize(long double)
    main.o(t._ZNKSt7num_putIcSt19ostreambuf_iteratorIcSt11char_traitsIcEEE6do_putES3_RSt8ios_basece) refers to main.o(t._ZN4__rw17__rw_digit_writerIcSt19ostreambuf_iteratorIcSt11char_traitsIcEEE13_C_put_digitsEc) for __rw::__rw_digit_writer<char, std::ostreambuf_iterator<char, std::char_traits<char>>>::_C_put_digits(char)
    main.o(t._ZNKSt7num_putIcSt19ostreambuf_iteratorIcSt11char_traitsIcEEE6do_putES3_RSt8ios_basece) refers to main.o(i._ZN4__rw17__rw_digit_writerIcSt19ostreambuf_iteratorIcSt11char_traitsIcEEED1Ev) for __rw::__rw_digit_writer<char, std::ostreambuf_iterator<char, std::char_traits<char>>>::~__rw_digit_writer()
    main.o(t._ZNKSt7num_putIcSt19ostreambuf_iteratorIcSt11char_traitsIcEEE6do_putES3_RSt8ios_basece.clean) refers to main.o(i._ZN4__rw17__rw_digit_writerIcSt19ostreambuf_iteratorIcSt11char_traitsIcEEED1Ev) for __rw::__rw_digit_writer<char, std::ostreambuf_iterator<char, std::char_traits<char>>>::~__rw_digit_writer()
    main.o(t._ZNKSt7num_putIcSt19ostreambuf_iteratorIcSt11char_traitsIcEEE6do_putES3_RSt8ios_basece.clean) refers to arm_exceptions_cleanup.o(.emb_text) for __cxa_end_cleanup
    main.o(.ARM.extab) refers to main.o(t._ZNKSt7num_putIcSt19ostreambuf_iteratorIcSt11char_traitsIcEEE6do_putES3_RSt8ios_basece.clean) for t._ZNKSt7num_putIcSt19ostreambuf_iteratorIcSt11char_traitsIcEEE6do_putES3_RSt8ios_basece.clean
    main.o(.ARM.exidx) refers to main.o(t._ZNKSt7num_putIcSt19ostreambuf_iteratorIcSt11char_traitsIcEEE6do_putES3_RSt8ios_basece) for t._ZNKSt7num_putIcSt19ostreambuf_iteratorIcSt11char_traitsIcEEE6do_putES3_RSt8ios_basece
    main.o(.ARM.exidx) refers to unwind_pr0.o(.text) for __aeabi_unwind_cpp_pr0
    main.o(.ARM.exidx) refers to main.o(.ARM.extab) for .extab._ZNKSt7num_putIcSt19ostreambuf_iteratorIcSt11char_traitsIcEEE6do_putES3_RSt8ios_basece
    main.o(.ARM.exidx) refers to main.o(t._ZNKSt7num_putIcSt19ostreambuf_iteratorIcSt11char_traitsIcEEE6do_putES3_RSt8ios_basece.clean) for t._ZNKSt7num_putIcSt19ostreambuf_iteratorIcSt11char_traitsIcEEE6do_putES3_RSt8ios_basece.clean
    main.o(t._ZNKSt7num_putIcSt19ostreambuf_iteratorIcSt11char_traitsIcEEE6do_putES3_RSt8ios_basecPKv) refers to main.o(t._ZN4__rw17__rw_digit_writerIcSt19ostreambuf_iteratorIcSt11char_traitsIcEEEC1ERS4_RSt8ios_base) for __rw::__rw_digit_writer<char, std::ostreambuf_iterator<char, std::char_traits<char>>>::__rw_digit_writer(std::ostreambuf_iterator<char, std::char_traits<char>>&, std::ios_base&)
    main.o(t._ZNKSt7num_putIcSt19ostreambuf_iteratorIcSt11char_traitsIcEEE6do_putES3_RSt8ios_basecPKv) refers to vendor.o(i._ZN4__rw22__rw_digit_writer_base11_C_digitizeEPKv) for __rw::__rw_digit_writer_base::_C_digitize(const void*)
    main.o(t._ZNKSt7num_putIcSt19ostreambuf_iteratorIcSt11char_traitsIcEEE6do_putES3_RSt8ios_basecPKv) refers to main.o(t._ZN4__rw17__rw_digit_writerIcSt19ostreambuf_iteratorIcSt11char_traitsIcEEE13_C_put_digitsEc) for __rw::__rw_digit_writer<char, std::ostreambuf_iterator<char, std::char_traits<char>>>::_C_put_digits(char)
    main.o(t._ZNKSt7num_putIcSt19ostreambuf_iteratorIcSt11char_traitsIcEEE6do_putES3_RSt8ios_basecPKv) refers to main.o(i._ZN4__rw17__rw_digit_writerIcSt19ostreambuf_iteratorIcSt11char_traitsIcEEED1Ev) for __rw::__rw_digit_writer<char, std::ostreambuf_iterator<char, std::char_traits<char>>>::~__rw_digit_writer()
    main.o(t._ZNKSt7num_putIcSt19ostreambuf_iteratorIcSt11char_traitsIcEEE6do_putES3_RSt8ios_basecPKv.clean) refers to main.o(i._ZN4__rw17__rw_digit_writerIcSt19ostreambuf_iteratorIcSt11char_traitsIcEEED1Ev) for __rw::__rw_digit_writer<char, std::ostreambuf_iterator<char, std::char_traits<char>>>::~__rw_digit_writer()
    main.o(t._ZNKSt7num_putIcSt19ostreambuf_iteratorIcSt11char_traitsIcEEE6do_putES3_RSt8ios_basecPKv.clean) refers to arm_exceptions_cleanup.o(.emb_text) for __cxa_end_cleanup
    main.o(.ARM.extab) refers to main.o(t._ZNKSt7num_putIcSt19ostreambuf_iteratorIcSt11char_traitsIcEEE6do_putES3_RSt8ios_basecPKv.clean) for t._ZNKSt7num_putIcSt19ostreambuf_iteratorIcSt11char_traitsIcEEE6do_putES3_RSt8ios_basecPKv.clean
    main.o(.ARM.exidx) refers to main.o(t._ZNKSt7num_putIcSt19ostreambuf_iteratorIcSt11char_traitsIcEEE6do_putES3_RSt8ios_basecPKv) for t._ZNKSt7num_putIcSt19ostreambuf_iteratorIcSt11char_traitsIcEEE6do_putES3_RSt8ios_basecPKv
    main.o(.ARM.exidx) refers to unwind_pr0.o(.text) for __aeabi_unwind_cpp_pr0
    main.o(.ARM.exidx) refers to main.o(.ARM.extab) for .extab._ZNKSt7num_putIcSt19ostreambuf_iteratorIcSt11char_traitsIcEEE6do_putES3_RSt8ios_basecPKv
    main.o(.ARM.exidx) refers to main.o(t._ZNKSt7num_putIcSt19ostreambuf_iteratorIcSt11char_traitsIcEEE6do_putES3_RSt8ios_basecPKv.clean) for t._ZNKSt7num_putIcSt19ostreambuf_iteratorIcSt11char_traitsIcEEE6do_putES3_RSt8ios_basecPKv.clean
    main.o(t._ZNKSt7num_putIcSt19ostreambuf_iteratorIcSt11char_traitsIcEEE6do_putES3_RSt8ios_basecs) refers to main.o(t._ZN4__rw17__rw_digit_writerIcSt19ostreambuf_iteratorIcSt11char_traitsIcEEEC1ERS4_RSt8ios_base) for __rw::__rw_digit_writer<char, std::ostreambuf_iterator<char, std::char_traits<char>>>::__rw_digit_writer(std::ostreambuf_iterator<char, std::char_traits<char>>&, std::ios_base&)
    main.o(t._ZNKSt7num_putIcSt19ostreambuf_iteratorIcSt11char_traitsIcEEE6do_putES3_RSt8ios_basecs) refers to vendor.o(i._ZN4__rw22__rw_digit_writer_base11_C_digitizeEmbPKc) for __rw::__rw_digit_writer_base::_C_digitize(unsigned long, bool, const char*)
    main.o(t._ZNKSt7num_putIcSt19ostreambuf_iteratorIcSt11char_traitsIcEEE6do_putES3_RSt8ios_basecs) refers to main.o(t._ZN4__rw17__rw_digit_writerIcSt19ostreambuf_iteratorIcSt11char_traitsIcEEE13_C_put_digitsEc) for __rw::__rw_digit_writer<char, std::ostreambuf_iterator<char, std::char_traits<char>>>::_C_put_digits(char)
    main.o(t._ZNKSt7num_putIcSt19ostreambuf_iteratorIcSt11char_traitsIcEEE6do_putES3_RSt8ios_basecs) refers to main.o(i._ZN4__rw17__rw_digit_writerIcSt19ostreambuf_iteratorIcSt11char_traitsIcEEED1Ev) for __rw::__rw_digit_writer<char, std::ostreambuf_iterator<char, std::char_traits<char>>>::~__rw_digit_writer()
    main.o(t._ZNKSt7num_putIcSt19ostreambuf_iteratorIcSt11char_traitsIcEEE6do_putES3_RSt8ios_basecs) refers to main.o(.constdata__ZZN4__rw22__rw_digit_writer_base11_C_digitizeEsEs) for __rw::__rw_digit_writer_base::_C_digitize(short)::string
    main.o(t._ZNKSt7num_putIcSt19ostreambuf_iteratorIcSt11char_traitsIcEEE6do_putES3_RSt8ios_basecs.clean) refers to main.o(i._ZN4__rw17__rw_digit_writerIcSt19ostreambuf_iteratorIcSt11char_traitsIcEEED1Ev) for __rw::__rw_digit_writer<char, std::ostreambuf_iterator<char, std::char_traits<char>>>::~__rw_digit_writer()
    main.o(t._ZNKSt7num_putIcSt19ostreambuf_iteratorIcSt11char_traitsIcEEE6do_putES3_RSt8ios_basecs.clean) refers to arm_exceptions_cleanup.o(.emb_text) for __cxa_end_cleanup
    main.o(.ARM.extab) refers to main.o(t._ZNKSt7num_putIcSt19ostreambuf_iteratorIcSt11char_traitsIcEEE6do_putES3_RSt8ios_basecs.clean) for t._ZNKSt7num_putIcSt19ostreambuf_iteratorIcSt11char_traitsIcEEE6do_putES3_RSt8ios_basecs.clean
    main.o(.ARM.exidx) refers to main.o(t._ZNKSt7num_putIcSt19ostreambuf_iteratorIcSt11char_traitsIcEEE6do_putES3_RSt8ios_basecs) for t._ZNKSt7num_putIcSt19ostreambuf_iteratorIcSt11char_traitsIcEEE6do_putES3_RSt8ios_basecs
    main.o(.ARM.exidx) refers to unwind_pr0.o(.text) for __aeabi_unwind_cpp_pr0
    main.o(.ARM.exidx) refers to main.o(.ARM.extab) for .extab._ZNKSt7num_putIcSt19ostreambuf_iteratorIcSt11char_traitsIcEEE6do_putES3_RSt8ios_basecs
    main.o(.ARM.exidx) refers to main.o(t._ZNKSt7num_putIcSt19ostreambuf_iteratorIcSt11char_traitsIcEEE6do_putES3_RSt8ios_basecs.clean) for t._ZNKSt7num_putIcSt19ostreambuf_iteratorIcSt11char_traitsIcEEE6do_putES3_RSt8ios_basecs.clean
    main.o(t._ZNKSt7num_putIcSt19ostreambuf_iteratorIcSt11char_traitsIcEEE6do_putES3_RSt8ios_basect) refers to main.o(t._ZN4__rw17__rw_digit_writerIcSt19ostreambuf_iteratorIcSt11char_traitsIcEEEC1ERS4_RSt8ios_base) for __rw::__rw_digit_writer<char, std::ostreambuf_iterator<char, std::char_traits<char>>>::__rw_digit_writer(std::ostreambuf_iterator<char, std::char_traits<char>>&, std::ios_base&)
    main.o(t._ZNKSt7num_putIcSt19ostreambuf_iteratorIcSt11char_traitsIcEEE6do_putES3_RSt8ios_basect) refers to vendor.o(i._ZN4__rw22__rw_digit_writer_base11_C_digitizeEmbPKc) for __rw::__rw_digit_writer_base::_C_digitize(unsigned long, bool, const char*)
    main.o(t._ZNKSt7num_putIcSt19ostreambuf_iteratorIcSt11char_traitsIcEEE6do_putES3_RSt8ios_basect) refers to main.o(t._ZN4__rw17__rw_digit_writerIcSt19ostreambuf_iteratorIcSt11char_traitsIcEEE13_C_put_digitsEc) for __rw::__rw_digit_writer<char, std::ostreambuf_iterator<char, std::char_traits<char>>>::_C_put_digits(char)
    main.o(t._ZNKSt7num_putIcSt19ostreambuf_iteratorIcSt11char_traitsIcEEE6do_putES3_RSt8ios_basect) refers to main.o(i._ZN4__rw17__rw_digit_writerIcSt19ostreambuf_iteratorIcSt11char_traitsIcEEED1Ev) for __rw::__rw_digit_writer<char, std::ostreambuf_iterator<char, std::char_traits<char>>>::~__rw_digit_writer()
    main.o(t._ZNKSt7num_putIcSt19ostreambuf_iteratorIcSt11char_traitsIcEEE6do_putES3_RSt8ios_basect) refers to main.o(.constdata__ZZN4__rw22__rw_digit_writer_base11_C_digitizeEtEs) for __rw::__rw_digit_writer_base::_C_digitize(unsigned short)::string
    main.o(t._ZNKSt7num_putIcSt19ostreambuf_iteratorIcSt11char_traitsIcEEE6do_putES3_RSt8ios_basect.clean) refers to main.o(i._ZN4__rw17__rw_digit_writerIcSt19ostreambuf_iteratorIcSt11char_traitsIcEEED1Ev) for __rw::__rw_digit_writer<char, std::ostreambuf_iterator<char, std::char_traits<char>>>::~__rw_digit_writer()
    main.o(t._ZNKSt7num_putIcSt19ostreambuf_iteratorIcSt11char_traitsIcEEE6do_putES3_RSt8ios_basect.clean) refers to arm_exceptions_cleanup.o(.emb_text) for __cxa_end_cleanup
    main.o(.ARM.extab) refers to main.o(t._ZNKSt7num_putIcSt19ostreambuf_iteratorIcSt11char_traitsIcEEE6do_putES3_RSt8ios_basect.clean) for t._ZNKSt7num_putIcSt19ostreambuf_iteratorIcSt11char_traitsIcEEE6do_putES3_RSt8ios_basect.clean
    main.o(.ARM.exidx) refers to main.o(t._ZNKSt7num_putIcSt19ostreambuf_iteratorIcSt11char_traitsIcEEE6do_putES3_RSt8ios_basect) for t._ZNKSt7num_putIcSt19ostreambuf_iteratorIcSt11char_traitsIcEEE6do_putES3_RSt8ios_basect
    main.o(.ARM.exidx) refers to unwind_pr0.o(.text) for __aeabi_unwind_cpp_pr0
    main.o(.ARM.exidx) refers to main.o(.ARM.extab) for .extab._ZNKSt7num_putIcSt19ostreambuf_iteratorIcSt11char_traitsIcEEE6do_putES3_RSt8ios_basect
    main.o(.ARM.exidx) refers to main.o(t._ZNKSt7num_putIcSt19ostreambuf_iteratorIcSt11char_traitsIcEEE6do_putES3_RSt8ios_basect.clean) for t._ZNKSt7num_putIcSt19ostreambuf_iteratorIcSt11char_traitsIcEEE6do_putES3_RSt8ios_basect.clean
    main.o(t._ZNKSt7num_putIcSt19ostreambuf_iteratorIcSt11char_traitsIcEEE6do_putES3_RSt8ios_baseci) refers to main.o(t._ZN4__rw17__rw_digit_writerIcSt19ostreambuf_iteratorIcSt11char_traitsIcEEEC1ERS4_RSt8ios_base) for __rw::__rw_digit_writer<char, std::ostreambuf_iterator<char, std::char_traits<char>>>::__rw_digit_writer(std::ostreambuf_iterator<char, std::char_traits<char>>&, std::ios_base&)
    main.o(t._ZNKSt7num_putIcSt19ostreambuf_iteratorIcSt11char_traitsIcEEE6do_putES3_RSt8ios_baseci) refers to vendor.o(i._ZN4__rw22__rw_digit_writer_base11_C_digitizeEmbPKc) for __rw::__rw_digit_writer_base::_C_digitize(unsigned long, bool, const char*)
    main.o(t._ZNKSt7num_putIcSt19ostreambuf_iteratorIcSt11char_traitsIcEEE6do_putES3_RSt8ios_baseci) refers to main.o(t._ZN4__rw17__rw_digit_writerIcSt19ostreambuf_iteratorIcSt11char_traitsIcEEE13_C_put_digitsEc) for __rw::__rw_digit_writer<char, std::ostreambuf_iterator<char, std::char_traits<char>>>::_C_put_digits(char)
    main.o(t._ZNKSt7num_putIcSt19ostreambuf_iteratorIcSt11char_traitsIcEEE6do_putES3_RSt8ios_baseci) refers to main.o(i._ZN4__rw17__rw_digit_writerIcSt19ostreambuf_iteratorIcSt11char_traitsIcEEED1Ev) for __rw::__rw_digit_writer<char, std::ostreambuf_iterator<char, std::char_traits<char>>>::~__rw_digit_writer()
    main.o(t._ZNKSt7num_putIcSt19ostreambuf_iteratorIcSt11char_traitsIcEEE6do_putES3_RSt8ios_baseci) refers to main.o(.constdata__ZZN4__rw22__rw_digit_writer_base11_C_digitizeEiEs) for __rw::__rw_digit_writer_base::_C_digitize(int)::string
    main.o(t._ZNKSt7num_putIcSt19ostreambuf_iteratorIcSt11char_traitsIcEEE6do_putES3_RSt8ios_baseci.clean) refers to main.o(i._ZN4__rw17__rw_digit_writerIcSt19ostreambuf_iteratorIcSt11char_traitsIcEEED1Ev) for __rw::__rw_digit_writer<char, std::ostreambuf_iterator<char, std::char_traits<char>>>::~__rw_digit_writer()
    main.o(t._ZNKSt7num_putIcSt19ostreambuf_iteratorIcSt11char_traitsIcEEE6do_putES3_RSt8ios_baseci.clean) refers to arm_exceptions_cleanup.o(.emb_text) for __cxa_end_cleanup
    main.o(.ARM.extab) refers to main.o(t._ZNKSt7num_putIcSt19ostreambuf_iteratorIcSt11char_traitsIcEEE6do_putES3_RSt8ios_baseci.clean) for t._ZNKSt7num_putIcSt19ostreambuf_iteratorIcSt11char_traitsIcEEE6do_putES3_RSt8ios_baseci.clean
    main.o(.ARM.exidx) refers to main.o(t._ZNKSt7num_putIcSt19ostreambuf_iteratorIcSt11char_traitsIcEEE6do_putES3_RSt8ios_baseci) for t._ZNKSt7num_putIcSt19ostreambuf_iteratorIcSt11char_traitsIcEEE6do_putES3_RSt8ios_baseci
    main.o(.ARM.exidx) refers to unwind_pr0.o(.text) for __aeabi_unwind_cpp_pr0
    main.o(.ARM.exidx) refers to main.o(.ARM.extab) for .extab._ZNKSt7num_putIcSt19ostreambuf_iteratorIcSt11char_traitsIcEEE6do_putES3_RSt8ios_baseci
    main.o(.ARM.exidx) refers to main.o(t._ZNKSt7num_putIcSt19ostreambuf_iteratorIcSt11char_traitsIcEEE6do_putES3_RSt8ios_baseci.clean) for t._ZNKSt7num_putIcSt19ostreambuf_iteratorIcSt11char_traitsIcEEE6do_putES3_RSt8ios_baseci.clean
    main.o(t._ZNKSt7num_putIcSt19ostreambuf_iteratorIcSt11char_traitsIcEEE6do_putES3_RSt8ios_basecj) refers to main.o(t._ZN4__rw17__rw_digit_writerIcSt19ostreambuf_iteratorIcSt11char_traitsIcEEEC1ERS4_RSt8ios_base) for __rw::__rw_digit_writer<char, std::ostreambuf_iterator<char, std::char_traits<char>>>::__rw_digit_writer(std::ostreambuf_iterator<char, std::char_traits<char>>&, std::ios_base&)
    main.o(t._ZNKSt7num_putIcSt19ostreambuf_iteratorIcSt11char_traitsIcEEE6do_putES3_RSt8ios_basecj) refers to vendor.o(i._ZN4__rw22__rw_digit_writer_base11_C_digitizeEmbPKc) for __rw::__rw_digit_writer_base::_C_digitize(unsigned long, bool, const char*)
    main.o(t._ZNKSt7num_putIcSt19ostreambuf_iteratorIcSt11char_traitsIcEEE6do_putES3_RSt8ios_basecj) refers to main.o(t._ZN4__rw17__rw_digit_writerIcSt19ostreambuf_iteratorIcSt11char_traitsIcEEE13_C_put_digitsEc) for __rw::__rw_digit_writer<char, std::ostreambuf_iterator<char, std::char_traits<char>>>::_C_put_digits(char)
    main.o(t._ZNKSt7num_putIcSt19ostreambuf_iteratorIcSt11char_traitsIcEEE6do_putES3_RSt8ios_basecj) refers to main.o(i._ZN4__rw17__rw_digit_writerIcSt19ostreambuf_iteratorIcSt11char_traitsIcEEED1Ev) for __rw::__rw_digit_writer<char, std::ostreambuf_iterator<char, std::char_traits<char>>>::~__rw_digit_writer()
    main.o(t._ZNKSt7num_putIcSt19ostreambuf_iteratorIcSt11char_traitsIcEEE6do_putES3_RSt8ios_basecj) refers to main.o(.constdata__ZZN4__rw22__rw_digit_writer_base11_C_digitizeEjEs) for __rw::__rw_digit_writer_base::_C_digitize(unsigned)::string
    main.o(t._ZNKSt7num_putIcSt19ostreambuf_iteratorIcSt11char_traitsIcEEE6do_putES3_RSt8ios_basecj.clean) refers to main.o(i._ZN4__rw17__rw_digit_writerIcSt19ostreambuf_iteratorIcSt11char_traitsIcEEED1Ev) for __rw::__rw_digit_writer<char, std::ostreambuf_iterator<char, std::char_traits<char>>>::~__rw_digit_writer()
    main.o(t._ZNKSt7num_putIcSt19ostreambuf_iteratorIcSt11char_traitsIcEEE6do_putES3_RSt8ios_basecj.clean) refers to arm_exceptions_cleanup.o(.emb_text) for __cxa_end_cleanup
    main.o(.ARM.extab) refers to main.o(t._ZNKSt7num_putIcSt19ostreambuf_iteratorIcSt11char_traitsIcEEE6do_putES3_RSt8ios_basecj.clean) for t._ZNKSt7num_putIcSt19ostreambuf_iteratorIcSt11char_traitsIcEEE6do_putES3_RSt8ios_basecj.clean
    main.o(.ARM.exidx) refers to main.o(t._ZNKSt7num_putIcSt19ostreambuf_iteratorIcSt11char_traitsIcEEE6do_putES3_RSt8ios_basecj) for t._ZNKSt7num_putIcSt19ostreambuf_iteratorIcSt11char_traitsIcEEE6do_putES3_RSt8ios_basecj
    main.o(.ARM.exidx) refers to unwind_pr0.o(.text) for __aeabi_unwind_cpp_pr0
    main.o(.ARM.exidx) refers to main.o(.ARM.extab) for .extab._ZNKSt7num_putIcSt19ostreambuf_iteratorIcSt11char_traitsIcEEE6do_putES3_RSt8ios_basecj
    main.o(.ARM.exidx) refers to main.o(t._ZNKSt7num_putIcSt19ostreambuf_iteratorIcSt11char_traitsIcEEE6do_putES3_RSt8ios_basecj.clean) for t._ZNKSt7num_putIcSt19ostreambuf_iteratorIcSt11char_traitsIcEEE6do_putES3_RSt8ios_basecj.clean
    main.o(t._ZNKSt7num_putIcSt19ostreambuf_iteratorIcSt11char_traitsIcEEE6do_putES3_RSt8ios_basecx) refers to main.o(t._ZN4__rw17__rw_digit_writerIcSt19ostreambuf_iteratorIcSt11char_traitsIcEEEC1ERS4_RSt8ios_base) for __rw::__rw_digit_writer<char, std::ostreambuf_iterator<char, std::char_traits<char>>>::__rw_digit_writer(std::ostreambuf_iterator<char, std::char_traits<char>>&, std::ios_base&)
    main.o(t._ZNKSt7num_putIcSt19ostreambuf_iteratorIcSt11char_traitsIcEEE6do_putES3_RSt8ios_basecx) refers to vendor.o(i._ZN4__rw22__rw_digit_writer_base11_C_digitizeEyb) for __rw::__rw_digit_writer_base::_C_digitize(unsigned long long, bool)
    main.o(t._ZNKSt7num_putIcSt19ostreambuf_iteratorIcSt11char_traitsIcEEE6do_putES3_RSt8ios_basecx) refers to main.o(t._ZN4__rw17__rw_digit_writerIcSt19ostreambuf_iteratorIcSt11char_traitsIcEEE13_C_put_digitsEc) for __rw::__rw_digit_writer<char, std::ostreambuf_iterator<char, std::char_traits<char>>>::_C_put_digits(char)
    main.o(t._ZNKSt7num_putIcSt19ostreambuf_iteratorIcSt11char_traitsIcEEE6do_putES3_RSt8ios_basecx) refers to main.o(i._ZN4__rw17__rw_digit_writerIcSt19ostreambuf_iteratorIcSt11char_traitsIcEEED1Ev) for __rw::__rw_digit_writer<char, std::ostreambuf_iterator<char, std::char_traits<char>>>::~__rw_digit_writer()
    main.o(t._ZNKSt7num_putIcSt19ostreambuf_iteratorIcSt11char_traitsIcEEE6do_putES3_RSt8ios_basecx.clean) refers to main.o(i._ZN4__rw17__rw_digit_writerIcSt19ostreambuf_iteratorIcSt11char_traitsIcEEED1Ev) for __rw::__rw_digit_writer<char, std::ostreambuf_iterator<char, std::char_traits<char>>>::~__rw_digit_writer()
    main.o(t._ZNKSt7num_putIcSt19ostreambuf_iteratorIcSt11char_traitsIcEEE6do_putES3_RSt8ios_basecx.clean) refers to arm_exceptions_cleanup.o(.emb_text) for __cxa_end_cleanup
    main.o(.ARM.extab) refers to main.o(t._ZNKSt7num_putIcSt19ostreambuf_iteratorIcSt11char_traitsIcEEE6do_putES3_RSt8ios_basecx.clean) for t._ZNKSt7num_putIcSt19ostreambuf_iteratorIcSt11char_traitsIcEEE6do_putES3_RSt8ios_basecx.clean
    main.o(.ARM.exidx) refers to main.o(t._ZNKSt7num_putIcSt19ostreambuf_iteratorIcSt11char_traitsIcEEE6do_putES3_RSt8ios_basecx) for t._ZNKSt7num_putIcSt19ostreambuf_iteratorIcSt11char_traitsIcEEE6do_putES3_RSt8ios_basecx
    main.o(.ARM.exidx) refers to unwind_pr0.o(.text) for __aeabi_unwind_cpp_pr0
    main.o(.ARM.exidx) refers to main.o(.ARM.extab) for .extab._ZNKSt7num_putIcSt19ostreambuf_iteratorIcSt11char_traitsIcEEE6do_putES3_RSt8ios_basecx
    main.o(.ARM.exidx) refers to main.o(t._ZNKSt7num_putIcSt19ostreambuf_iteratorIcSt11char_traitsIcEEE6do_putES3_RSt8ios_basecx.clean) for t._ZNKSt7num_putIcSt19ostreambuf_iteratorIcSt11char_traitsIcEEE6do_putES3_RSt8ios_basecx.clean
    main.o(t._ZNKSt7num_putIcSt19ostreambuf_iteratorIcSt11char_traitsIcEEE6do_putES3_RSt8ios_basecy) refers to main.o(t._ZN4__rw17__rw_digit_writerIcSt19ostreambuf_iteratorIcSt11char_traitsIcEEEC1ERS4_RSt8ios_base) for __rw::__rw_digit_writer<char, std::ostreambuf_iterator<char, std::char_traits<char>>>::__rw_digit_writer(std::ostreambuf_iterator<char, std::char_traits<char>>&, std::ios_base&)
    main.o(t._ZNKSt7num_putIcSt19ostreambuf_iteratorIcSt11char_traitsIcEEE6do_putES3_RSt8ios_basecy) refers to vendor.o(i._ZN4__rw22__rw_digit_writer_base11_C_digitizeEyb) for __rw::__rw_digit_writer_base::_C_digitize(unsigned long long, bool)
    main.o(t._ZNKSt7num_putIcSt19ostreambuf_iteratorIcSt11char_traitsIcEEE6do_putES3_RSt8ios_basecy) refers to main.o(t._ZN4__rw17__rw_digit_writerIcSt19ostreambuf_iteratorIcSt11char_traitsIcEEE13_C_put_digitsEc) for __rw::__rw_digit_writer<char, std::ostreambuf_iterator<char, std::char_traits<char>>>::_C_put_digits(char)
    main.o(t._ZNKSt7num_putIcSt19ostreambuf_iteratorIcSt11char_traitsIcEEE6do_putES3_RSt8ios_basecy) refers to main.o(i._ZN4__rw17__rw_digit_writerIcSt19ostreambuf_iteratorIcSt11char_traitsIcEEED1Ev) for __rw::__rw_digit_writer<char, std::ostreambuf_iterator<char, std::char_traits<char>>>::~__rw_digit_writer()
    main.o(t._ZNKSt7num_putIcSt19ostreambuf_iteratorIcSt11char_traitsIcEEE6do_putES3_RSt8ios_basecy.clean) refers to main.o(i._ZN4__rw17__rw_digit_writerIcSt19ostreambuf_iteratorIcSt11char_traitsIcEEED1Ev) for __rw::__rw_digit_writer<char, std::ostreambuf_iterator<char, std::char_traits<char>>>::~__rw_digit_writer()
    main.o(t._ZNKSt7num_putIcSt19ostreambuf_iteratorIcSt11char_traitsIcEEE6do_putES3_RSt8ios_basecy.clean) refers to arm_exceptions_cleanup.o(.emb_text) for __cxa_end_cleanup
    main.o(.ARM.extab) refers to main.o(t._ZNKSt7num_putIcSt19ostreambuf_iteratorIcSt11char_traitsIcEEE6do_putES3_RSt8ios_basecy.clean) for t._ZNKSt7num_putIcSt19ostreambuf_iteratorIcSt11char_traitsIcEEE6do_putES3_RSt8ios_basecy.clean
    main.o(.ARM.exidx) refers to main.o(t._ZNKSt7num_putIcSt19ostreambuf_iteratorIcSt11char_traitsIcEEE6do_putES3_RSt8ios_basecy) for t._ZNKSt7num_putIcSt19ostreambuf_iteratorIcSt11char_traitsIcEEE6do_putES3_RSt8ios_basecy
    main.o(.ARM.exidx) refers to unwind_pr0.o(.text) for __aeabi_unwind_cpp_pr0
    main.o(.ARM.exidx) refers to main.o(.ARM.extab) for .extab._ZNKSt7num_putIcSt19ostreambuf_iteratorIcSt11char_traitsIcEEE6do_putES3_RSt8ios_basecy
    main.o(.ARM.exidx) refers to main.o(t._ZNKSt7num_putIcSt19ostreambuf_iteratorIcSt11char_traitsIcEEE6do_putES3_RSt8ios_basecy.clean) for t._ZNKSt7num_putIcSt19ostreambuf_iteratorIcSt11char_traitsIcEEE6do_putES3_RSt8ios_basecy.clean
    main.o(i._ZNSt7num_putIcSt19ostreambuf_iteratorIcSt11char_traitsIcEEED1Ev) refers to main.o(i._ZNSt6locale5facetD1Ev) for std::locale::facet::~facet()
    main.o(.ARM.exidx) refers to main.o(i._ZNSt7num_putIcSt19ostreambuf_iteratorIcSt11char_traitsIcEEED1Ev) for i._ZNSt7num_putIcSt19ostreambuf_iteratorIcSt11char_traitsIcEEED1Ev
    main.o(.ARM.exidx) refers to unwind_pr0.o(.text) for __aeabi_unwind_cpp_pr0
    main.o(.ARM.exidx) refers to main.o(i._ZnwjPv) for i._ZnwjPv
    main.o(.ARM.exidx) refers to main.o(t._ZNSaIN4__rw9__rb_treeISsSt4pairIKSsiENS_11__select1stIS3_SsEESt4lessISsESaIS3_EE22_C_rb_tree_node_bufferEEC1IS3_EERKSaIT_E) for t._ZNSaIN4__rw9__rb_treeISsSt4pairIKSsiENS_11__select1stIS3_SsEESt4lessISsESaIS3_EE22_C_rb_tree_node_bufferEEC1IS3_EERKSaIT_E
    main.o(t._ZNSaIN4__rw9__rb_treeISsSt4pairIKSsiENS_11__select1stIS3_SsEESt4lessISsESaIS3_EE22_C_rb_tree_node_bufferEE10deallocateEPSA_j) refers to rwalloc.o(i._ZN4__rw15__rw_deallocateEPvji) for __rw::__rw_deallocate(void*, unsigned, int)
    main.o(.ARM.exidx) refers to main.o(t._ZNSaIN4__rw9__rb_treeISsSt4pairIKSsiENS_11__select1stIS3_SsEESt4lessISsESaIS3_EE22_C_rb_tree_node_bufferEE10deallocateEPSA_j) for t._ZNSaIN4__rw9__rb_treeISsSt4pairIKSsiENS_11__select1stIS3_SsEESt4lessISsESaIS3_EE22_C_rb_tree_node_bufferEE10deallocateEPSA_j
    main.o(.ARM.exidx) refers to unwind_pr0.o(.text) for __aeabi_unwind_cpp_pr0
    main.o(.ARM.exidx) refers to main.o(t._ZNSaIN4__rw17__rw_rb_tree_nodeISaISt4pairIKSsiEES3_SsNS_11__select1stIS3_SsEEEEEC1IS3_EERKSaIT_E) for t._ZNSaIN4__rw17__rw_rb_tree_nodeISaISt4pairIKSsiEES3_SsNS_11__select1stIS3_SsEEEEEC1IS3_EERKSaIT_E
    main.o(.ARM.exidx) refers to main.o(t._ZNKSs7_C_prefEv) for t._ZNKSs7_C_prefEv
    main.o(.ARM.exidx) refers to main.o(t._ZNSaIN4__rw12__string_refIcSt11char_traitsIcESaIcEEEEC1IcEERKSaIT_E) for t._ZNSaIN4__rw12__string_refIcSt11char_traitsIcESaIcEEEEC1IcEERKSaIT_E
    main.o(t._ZNKSs8capacityEv) refers to main.o(t._ZNKSs7_C_prefEv) for std::basic_string<char, std::char_traits<char>, std::allocator<char>>::_C_pref() const
    main.o(.ARM.exidx) refers to main.o(t._ZNKSs8capacityEv) for t._ZNKSs8capacityEv
    main.o(.ARM.exidx) refers to unwind_pr0.o(.text) for __aeabi_unwind_cpp_pr0
    main.o(.ARM.exidx) refers to main.o(t._ZNK4__rw12__string_refIcSt11char_traitsIcESaIcEE12_C_ref_countEv) for t._ZNK4__rw12__string_refIcSt11char_traitsIcESaIcEE12_C_ref_countEv
    main.o(.ARM.exidx) refers to main.o(t._ZN4__rw12__string_refIcSt11char_traitsIcESaIcEE4dataEv) for t._ZN4__rw12__string_refIcSt11char_traitsIcESaIcEE4dataEv
    main.o(t._ZNSs7_C_nullEv) refers to main.o(t._ZN4__rw12__string_refIcSt11char_traitsIcESaIcEE4dataEv) for __rw::__string_ref<char, std::char_traits<char>, std::allocator<char>>::data()
    main.o(t._ZNSs7_C_nullEv) refers to rwthrowproc_impl.o(.bss__ZNSs9__nullrefE) for std::basic_string<char, std::char_traits<char>, std::allocator<char>>::__nullref
    main.o(.ARM.exidx) refers to main.o(t._ZNSs7_C_nullEv) for t._ZNSs7_C_nullEv
    main.o(.ARM.exidx) refers to unwind_pr0.o(.text) for __aeabi_unwind_cpp_pr0
    main.o(.ARM.exidx) refers to main.o(t._ZNKSs4dataEv) for t._ZNKSs4dataEv
    main.o(t._ZNSsD1Ev) refers to main.o(t._ZNSs9_C_unlinkEv) for std::basic_string<char, std::char_traits<char>, std::allocator<char>>::_C_unlink()
    main.o(.ARM.exidx) refers to main.o(t._ZNSsD1Ev) for t._ZNSsD1Ev
    main.o(.ARM.exidx) refers to unwind_pr0.o(.text) for __aeabi_unwind_cpp_pr0
    main.o(i._ZNSt4pairIKSsiED1Ev) refers to main.o(t._ZNSsD1Ev) for std::basic_string<char, std::char_traits<char>, std::allocator<char>>::~basic_string()
    main.o(.ARM.extab) refers to arm_exceptions_callunex.o(.text) for __cxa_call_unexpected
    main.o(.ARM.exidx) refers to main.o(i._ZNSt4pairIKSsiED1Ev) for i._ZNSt4pairIKSsiED1Ev
    main.o(.ARM.exidx) refers to unwind_pr0.o(.text) for __aeabi_unwind_cpp_pr0
    main.o(.ARM.exidx) refers to main.o(.ARM.extab) for .extab._ZNSt4pairIKSsiED1Ev
    main.o(.ARM.exidx) refers to main.o(t._ZN4__rw9__rb_treeISsSt4pairIKSsiENS_11__select1stIS3_SsEESt4lessISsESaIS3_EE12_C_make_iterEPNS_17__rw_rb_tree_nodeIS8_S3_SsS5_EE) for t._ZN4__rw9__rb_treeISsSt4pairIKSsiENS_11__select1stIS3_SsEESt4lessISsESaIS3_EE12_C_make_iterEPNS_17__rw_rb_tree_nodeIS8_S3_SsS5_EE
    main.o(t._ZN4__rw9__rb_treeISsSt4pairIKSsiENS_11__select1stIS3_SsEESt4lessISsESaIS3_EE3endEv) refers to main.o(t._ZN4__rw9__rb_treeISsSt4pairIKSsiENS_11__select1stIS3_SsEESt4lessISsESaIS3_EE12_C_make_iterEPNS_17__rw_rb_tree_nodeIS8_S3_SsS5_EE) for __rw::__rb_tree<std::basic_string<char, std::char_traits<char>, std::allocator<char>>, std::pair<const std::basic_string<char, std::char_traits<char>, std::allocator<char>>, int>, __rw::__select1st<std::pair<const std::basic_string<char, std::char_traits<char>, std::allocator<char>>, int>, std::basic_string<char, std::char_traits<char>, std::allocator<char>>>, std::less<std::basic_string<char, std::char_traits<char>, std::allocator<char>>>, std::allocator<std::pair<const std::basic_string<char, std::char_traits<char>, std::allocator<char>>, int>>>::_C_make_iter(__rw::__rw_rb_tree_node<std::allocator<std::pair<const std::basic_string<char, std::char_traits<char>, std::allocator<char>>, int>>, std::pair<const std::basic_string<char, std::char_traits<char>, std::allocator<char>>, int>, std::basic_string<char, std::char_traits<char>, std::allocator<char>>, __rw::__select1st<std::pair<const std::basic_string<char, std::char_traits<char>, std::allocator<char>>, int>, std::basic_string<char, std::char_traits<char>, std::allocator<char>>>>*)
    main.o(.ARM.exidx) refers to main.o(t._ZN4__rw9__rb_treeISsSt4pairIKSsiENS_11__select1stIS3_SsEESt4lessISsESaIS3_EE3endEv) for t._ZN4__rw9__rb_treeISsSt4pairIKSsiENS_11__select1stIS3_SsEESt4lessISsESaIS3_EE3endEv
    main.o(.ARM.exidx) refers to unwind_pr0.o(.text) for __aeabi_unwind_cpp_pr0
    main.o(.ARM.exidx) refers to main.o(t._ZN4__rw17__rw_rb_tree_nodeISaISt4pairIKSsiEES3_SsNS_11__select1stIS3_SsEEE7_C_leftEv) for t._ZN4__rw17__rw_rb_tree_nodeISaISt4pairIKSsiEES3_SsNS_11__select1stIS3_SsEEE7_C_leftEv
    main.o(t._ZNK4__rw9__rb_treeISsSt4pairIKSsiENS_11__select1stIS3_SsEESt4lessISsESaIS3_EE11_C_leftmostEv) refers to main.o(t._ZN4__rw17__rw_rb_tree_nodeISaISt4pairIKSsiEES3_SsNS_11__select1stIS3_SsEEE7_C_leftEv) for __rw::__rw_rb_tree_node<std::allocator<std::pair<const std::basic_string<char, std::char_traits<char>, std::allocator<char>>, int>>, std::pair<const std::basic_string<char, std::char_traits<char>, std::allocator<char>>, int>, std::basic_string<char, std::char_traits<char>, std::allocator<char>>, __rw::__select1st<std::pair<const std::basic_string<char, std::char_traits<char>, std::allocator<char>>, int>, std::basic_string<char, std::char_traits<char>, std::allocator<char>>>>::_C_left()
    main.o(.ARM.exidx) refers to main.o(t._ZNK4__rw9__rb_treeISsSt4pairIKSsiENS_11__select1stIS3_SsEESt4lessISsESaIS3_EE11_C_leftmostEv) for t._ZNK4__rw9__rb_treeISsSt4pairIKSsiENS_11__select1stIS3_SsEESt4lessISsESaIS3_EE11_C_leftmostEv
    main.o(.ARM.exidx) refers to unwind_pr0.o(.text) for __aeabi_unwind_cpp_pr0
    main.o(t._ZN4__rw9__rb_treeISsSt4pairIKSsiENS_11__select1stIS3_SsEESt4lessISsESaIS3_EE5beginEv) refers to main.o(t._ZNK4__rw9__rb_treeISsSt4pairIKSsiENS_11__select1stIS3_SsEESt4lessISsESaIS3_EE11_C_leftmostEv) for __rw::__rb_tree<std::basic_string<char, std::char_traits<char>, std::allocator<char>>, std::pair<const std::basic_string<char, std::char_traits<char>, std::allocator<char>>, int>, __rw::__select1st<std::pair<const std::basic_string<char, std::char_traits<char>, std::allocator<char>>, int>, std::basic_string<char, std::char_traits<char>, std::allocator<char>>>, std::less<std::basic_string<char, std::char_traits<char>, std::allocator<char>>>, std::allocator<std::pair<const std::basic_string<char, std::char_traits<char>, std::allocator<char>>, int>>>::_C_leftmost() const
    main.o(t._ZN4__rw9__rb_treeISsSt4pairIKSsiENS_11__select1stIS3_SsEESt4lessISsESaIS3_EE5beginEv) refers to main.o(t._ZN4__rw9__rb_treeISsSt4pairIKSsiENS_11__select1stIS3_SsEESt4lessISsESaIS3_EE12_C_make_iterEPNS_17__rw_rb_tree_nodeIS8_S3_SsS5_EE) for __rw::__rb_tree<std::basic_string<char, std::char_traits<char>, std::allocator<char>>, std::pair<const std::basic_string<char, std::char_traits<char>, std::allocator<char>>, int>, __rw::__select1st<std::pair<const std::basic_string<char, std::char_traits<char>, std::allocator<char>>, int>, std::basic_string<char, std::char_traits<char>, std::allocator<char>>>, std::less<std::basic_string<char, std::char_traits<char>, std::allocator<char>>>, std::allocator<std::pair<const std::basic_string<char, std::char_traits<char>, std::allocator<char>>, int>>>::_C_make_iter(__rw::__rw_rb_tree_node<std::allocator<std::pair<const std::basic_string<char, std::char_traits<char>, std::allocator<char>>, int>>, std::pair<const std::basic_string<char, std::char_traits<char>, std::allocator<char>>, int>, std::basic_string<char, std::char_traits<char>, std::allocator<char>>, __rw::__select1st<std::pair<const std::basic_string<char, std::char_traits<char>, std::allocator<char>>, int>, std::basic_string<char, std::char_traits<char>, std::allocator<char>>>>*)
    main.o(.ARM.exidx) refers to main.o(t._ZN4__rw9__rb_treeISsSt4pairIKSsiENS_11__select1stIS3_SsEESt4lessISsESaIS3_EE5beginEv) for t._ZN4__rw9__rb_treeISsSt4pairIKSsiENS_11__select1stIS3_SsEESt4lessISsESaIS3_EE5beginEv
    main.o(.ARM.exidx) refers to unwind_pr0.o(.text) for __aeabi_unwind_cpp_pr0
    main.o(.ARM.exidx) refers to main.o(t._ZN4__rw17__rw_rb_tree_nodeISaISt4pairIKSsiEES3_SsNS_11__select1stIS3_SsEEE8_C_rightEv) for t._ZN4__rw17__rw_rb_tree_nodeISaISt4pairIKSsiEES3_SsNS_11__select1stIS3_SsEEE8_C_rightEv
    main.o(.ARM.exidx) refers to main.o(t._ZN4__rw17__rw_rb_tree_nodeISaISt4pairIKSsiEES3_SsNS_11__select1stIS3_SsEEE9_C_parentEv) for t._ZN4__rw17__rw_rb_tree_nodeISaISt4pairIKSsiEES3_SsNS_11__select1stIS3_SsEEE9_C_parentEv
    main.o(.ARM.exidx) refers to main.o(t._ZN4__rw14__rw_tree_iterISt4pairIKSsiEiPS3_RS3_NS_17__rw_rb_tree_nodeISaIS3_ES3_SsNS_11__select1stIS3_SsEEEEEC1ERKSB_) for t._ZN4__rw14__rw_tree_iterISt4pairIKSsiEiPS3_RS3_NS_17__rw_rb_tree_nodeISaIS3_ES3_SsNS_11__select1stIS3_SsEEEEEC1ERKSB_
    main.o(t._ZNK4__rw9__rb_treeISsSt4pairIKSsiENS_11__select1stIS3_SsEESt4lessISsESaIS3_EE7_C_rootEv) refers to main.o(t._ZN4__rw17__rw_rb_tree_nodeISaISt4pairIKSsiEES3_SsNS_11__select1stIS3_SsEEE9_C_parentEv) for __rw::__rw_rb_tree_node<std::allocator<std::pair<const std::basic_string<char, std::char_traits<char>, std::allocator<char>>, int>>, std::pair<const std::basic_string<char, std::char_traits<char>, std::allocator<char>>, int>, std::basic_string<char, std::char_traits<char>, std::allocator<char>>, __rw::__select1st<std::pair<const std::basic_string<char, std::char_traits<char>, std::allocator<char>>, int>, std::basic_string<char, std::char_traits<char>, std::allocator<char>>>>::_C_parent()
    main.o(.ARM.exidx) refers to main.o(t._ZNK4__rw9__rb_treeISsSt4pairIKSsiENS_11__select1stIS3_SsEESt4lessISsESaIS3_EE7_C_rootEv) for t._ZNK4__rw9__rb_treeISsSt4pairIKSsiENS_11__select1stIS3_SsEESt4lessISsESaIS3_EE7_C_rootEv
    main.o(.ARM.exidx) refers to unwind_pr0.o(.text) for __aeabi_unwind_cpp_pr0
    main.o(t._ZNK4__rw9__rb_treeISsSt4pairIKSsiENS_11__select1stIS3_SsEESt4lessISsESaIS3_EE12_C_rightmostEv) refers to main.o(t._ZN4__rw17__rw_rb_tree_nodeISaISt4pairIKSsiEES3_SsNS_11__select1stIS3_SsEEE8_C_rightEv) for __rw::__rw_rb_tree_node<std::allocator<std::pair<const std::basic_string<char, std::char_traits<char>, std::allocator<char>>, int>>, std::pair<const std::basic_string<char, std::char_traits<char>, std::allocator<char>>, int>, std::basic_string<char, std::char_traits<char>, std::allocator<char>>, __rw::__select1st<std::pair<const std::basic_string<char, std::char_traits<char>, std::allocator<char>>, int>, std::basic_string<char, std::char_traits<char>, std::allocator<char>>>>::_C_right()
    main.o(.ARM.exidx) refers to main.o(t._ZNK4__rw9__rb_treeISsSt4pairIKSsiENS_11__select1stIS3_SsEESt4lessISsESaIS3_EE12_C_rightmostEv) for t._ZNK4__rw9__rb_treeISsSt4pairIKSsiENS_11__select1stIS3_SsEESt4lessISsESaIS3_EE12_C_rightmostEv
    main.o(.ARM.exidx) refers to unwind_pr0.o(.text) for __aeabi_unwind_cpp_pr0
    main.o(t._ZN4__rw9__rb_treeISsSt4pairIKSsiENS_11__select1stIS3_SsEESt4lessISsESaIS3_EE13_C_erase_leafEPNS_17__rw_rb_tree_nodeIS8_S3_SsS5_EE) refers to main.o(t._ZN4__rw17__rw_rb_tree_nodeISaISt4pairIKSsiEES3_SsNS_11__select1stIS3_SsEEE9_C_parentEv) for __rw::__rw_rb_tree_node<std::allocator<std::pair<const std::basic_string<char, std::char_traits<char>, std::allocator<char>>, int>>, std::pair<const std::basic_string<char, std::char_traits<char>, std::allocator<char>>, int>, std::basic_string<char, std::char_traits<char>, std::allocator<char>>, __rw::__select1st<std::pair<const std::basic_string<char, std::char_traits<char>, std::allocator<char>>, int>, std::basic_string<char, std::char_traits<char>, std::allocator<char>>>>::_C_parent()
    main.o(t._ZN4__rw9__rb_treeISsSt4pairIKSsiENS_11__select1stIS3_SsEESt4lessISsESaIS3_EE13_C_erase_leafEPNS_17__rw_rb_tree_nodeIS8_S3_SsS5_EE) refers to main.o(t._ZNK4__rw9__rb_treeISsSt4pairIKSsiENS_11__select1stIS3_SsEESt4lessISsESaIS3_EE12_C_rightmostEv) for __rw::__rb_tree<std::basic_string<char, std::char_traits<char>, std::allocator<char>>, std::pair<const std::basic_string<char, std::char_traits<char>, std::allocator<char>>, int>, __rw::__select1st<std::pair<const std::basic_string<char, std::char_traits<char>, std::allocator<char>>, int>, std::basic_string<char, std::char_traits<char>, std::allocator<char>>>, std::less<std::basic_string<char, std::char_traits<char>, std::allocator<char>>>, std::allocator<std::pair<const std::basic_string<char, std::char_traits<char>, std::allocator<char>>, int>>>::_C_rightmost() const
    main.o(t._ZN4__rw9__rb_treeISsSt4pairIKSsiENS_11__select1stIS3_SsEESt4lessISsESaIS3_EE13_C_erase_leafEPNS_17__rw_rb_tree_nodeIS8_S3_SsS5_EE) refers to main.o(t._ZNK4__rw9__rb_treeISsSt4pairIKSsiENS_11__select1stIS3_SsEESt4lessISsESaIS3_EE11_C_leftmostEv) for __rw::__rb_tree<std::basic_string<char, std::char_traits<char>, std::allocator<char>>, std::pair<const std::basic_string<char, std::char_traits<char>, std::allocator<char>>, int>, __rw::__select1st<std::pair<const std::basic_string<char, std::char_traits<char>, std::allocator<char>>, int>, std::basic_string<char, std::char_traits<char>, std::allocator<char>>>, std::less<std::basic_string<char, std::char_traits<char>, std::allocator<char>>>, std::allocator<std::pair<const std::basic_string<char, std::char_traits<char>, std::allocator<char>>, int>>>::_C_leftmost() const
    main.o(t._ZN4__rw9__rb_treeISsSt4pairIKSsiENS_11__select1stIS3_SsEESt4lessISsESaIS3_EE13_C_erase_leafEPNS_17__rw_rb_tree_nodeIS8_S3_SsS5_EE) refers to main.o(t._ZNK4__rw9__rb_treeISsSt4pairIKSsiENS_11__select1stIS3_SsEESt4lessISsESaIS3_EE7_C_rootEv) for __rw::__rb_tree<std::basic_string<char, std::char_traits<char>, std::allocator<char>>, std::pair<const std::basic_string<char, std::char_traits<char>, std::allocator<char>>, int>, __rw::__select1st<std::pair<const std::basic_string<char, std::char_traits<char>, std::allocator<char>>, int>, std::basic_string<char, std::char_traits<char>, std::allocator<char>>>, std::less<std::basic_string<char, std::char_traits<char>, std::allocator<char>>>, std::allocator<std::pair<const std::basic_string<char, std::char_traits<char>, std::allocator<char>>, int>>>::_C_root() const
    main.o(t._ZN4__rw9__rb_treeISsSt4pairIKSsiENS_11__select1stIS3_SsEESt4lessISsESaIS3_EE13_C_erase_leafEPNS_17__rw_rb_tree_nodeIS8_S3_SsS5_EE) refers to main.o(t._ZN4__rw17__rw_rb_tree_nodeISaISt4pairIKSsiEES3_SsNS_11__select1stIS3_SsEEE7_C_leftEv) for __rw::__rw_rb_tree_node<std::allocator<std::pair<const std::basic_string<char, std::char_traits<char>, std::allocator<char>>, int>>, std::pair<const std::basic_string<char, std::char_traits<char>, std::allocator<char>>, int>, std::basic_string<char, std::char_traits<char>, std::allocator<char>>, __rw::__select1st<std::pair<const std::basic_string<char, std::char_traits<char>, std::allocator<char>>, int>, std::basic_string<char, std::char_traits<char>, std::allocator<char>>>>::_C_left()
    main.o(t._ZN4__rw9__rb_treeISsSt4pairIKSsiENS_11__select1stIS3_SsEESt4lessISsESaIS3_EE13_C_erase_leafEPNS_17__rw_rb_tree_nodeIS8_S3_SsS5_EE) refers to main.o(t._ZN4__rw17__rw_rb_tree_nodeISaISt4pairIKSsiEES3_SsNS_11__select1stIS3_SsEEE8_C_rightEv) for __rw::__rw_rb_tree_node<std::allocator<std::pair<const std::basic_string<char, std::char_traits<char>, std::allocator<char>>, int>>, std::pair<const std::basic_string<char, std::char_traits<char>, std::allocator<char>>, int>, std::basic_string<char, std::char_traits<char>, std::allocator<char>>, __rw::__select1st<std::pair<const std::basic_string<char, std::char_traits<char>, std::allocator<char>>, int>, std::basic_string<char, std::char_traits<char>, std::allocator<char>>>>::_C_right()
    main.o(.ARM.exidx) refers to main.o(t._ZN4__rw9__rb_treeISsSt4pairIKSsiENS_11__select1stIS3_SsEESt4lessISsESaIS3_EE13_C_erase_leafEPNS_17__rw_rb_tree_nodeIS8_S3_SsS5_EE) for t._ZN4__rw9__rb_treeISsSt4pairIKSsiENS_11__select1stIS3_SsEESt4lessISsESaIS3_EE13_C_erase_leafEPNS_17__rw_rb_tree_nodeIS8_S3_SsS5_EE
    main.o(.ARM.exidx) refers to unwind_pr0.o(.text) for __aeabi_unwind_cpp_pr0
    main.o(.ARM.exidx) refers to main.o(t._ZN4__rweqISt4pairIKSsiEiPS3_RS3_S4_S5_NS_17__rw_rb_tree_nodeISaIS3_ES3_SsNS_11__select1stIS3_SsEEEEEEbRKNS_14__rw_tree_iterIT_T0_T1_T2_T5_EERKNSB_ISC_SD_T3_T4_SG_EE) for t._ZN4__rweqISt4pairIKSsiEiPS3_RS3_S4_S5_NS_17__rw_rb_tree_nodeISaIS3_ES3_SsNS_11__select1stIS3_SsEEEEEEbRKNS_14__rw_tree_iterIT_T0_T1_T2_T5_EERKNSB_ISC_SD_T3_T4_SG_EE
    main.o(t._ZN4__rwneISt4pairIKSsiEiPS3_RS3_S4_S5_NS_17__rw_rb_tree_nodeISaIS3_ES3_SsNS_11__select1stIS3_SsEEEEEEbRKNS_14__rw_tree_iterIT_T0_T1_T2_T5_EERKNSB_ISC_SD_T3_T4_SG_EE) refers to main.o(t._ZN4__rweqISt4pairIKSsiEiPS3_RS3_S4_S5_NS_17__rw_rb_tree_nodeISaIS3_ES3_SsNS_11__select1stIS3_SsEEEEEEbRKNS_14__rw_tree_iterIT_T0_T1_T2_T5_EERKNSB_ISC_SD_T3_T4_SG_EE) for bool __rw::operator ==<std::pair<const std::basic_string<char, std::char_traits<char>, std::allocator<char>>, int>, int, std::pair<const std::basic_string<char, std::char_traits<char>, std::allocator<char>>, int>*, std::pair<const std::basic_string<char, std::char_traits<char>, std::allocator<char>>, int>&, std::pair<const std::basic_string<char, std::char_traits<char>, std::allocator<char>>, int>*, std::pair<const std::basic_string<char, std::char_traits<char>, std::allocator<char>>, int>&, __rw::__rw_rb_tree_node<std::allocator<std::pair<const std::basic_string<char, std::char_traits<char>, std::allocator<char>>, int>>, std::pair<const std::basic_string<char, std::char_traits<char>, std::allocator<char>>, int>, std::basic_string<char, std::char_traits<char>, std::allocator<char>>, __rw::__select1st<std::pair<const std::basic_string<char, std::char_traits<char>, std::allocator<char>>, int>, std::basic_string<char, std::char_traits<char>, std::allocator<char>>>>>(const __rw::__rw_tree_iter<T1, T2, T3, T4, T7>&, const __rw::__rw_tree_iter<T1, T2, T5, T6, T7>&)
    main.o(.ARM.exidx) refers to main.o(t._ZN4__rwneISt4pairIKSsiEiPS3_RS3_S4_S5_NS_17__rw_rb_tree_nodeISaIS3_ES3_SsNS_11__select1stIS3_SsEEEEEEbRKNS_14__rw_tree_iterIT_T0_T1_T2_T5_EERKNSB_ISC_SD_T3_T4_SG_EE) for t._ZN4__rwneISt4pairIKSsiEiPS3_RS3_S4_S5_NS_17__rw_rb_tree_nodeISaIS3_ES3_SsNS_11__select1stIS3_SsEEEEEEbRKNS_14__rw_tree_iterIT_T0_T1_T2_T5_EERKNSB_ISC_SD_T3_T4_SG_EE
    main.o(.ARM.exidx) refers to unwind_pr0.o(.text) for __aeabi_unwind_cpp_pr0
    main.o(i._ZNSt3mapISsiSt4lessISsESaISt4pairIKSsiEEED1Ev) refers to main.o(t._ZN4__rw9__rb_treeISsSt4pairIKSsiENS_11__select1stIS3_SsEESt4lessISsESaIS3_EED1Ev) for __rw::__rb_tree<std::basic_string<char, std::char_traits<char>, std::allocator<char>>, std::pair<const std::basic_string<char, std::char_traits<char>, std::allocator<char>>, int>, __rw::__select1st<std::pair<const std::basic_string<char, std::char_traits<char>, std::allocator<char>>, int>, std::basic_string<char, std::char_traits<char>, std::allocator<char>>>, std::less<std::basic_string<char, std::char_traits<char>, std::allocator<char>>>, std::allocator<std::pair<const std::basic_string<char, std::char_traits<char>, std::allocator<char>>, int>>>::~__rb_tree()
    main.o(.ARM.exidx) refers to main.o(i._ZNSt3mapISsiSt4lessISsESaISt4pairIKSsiEEED1Ev) for i._ZNSt3mapISsiSt4lessISsESaISt4pairIKSsiEEED1Ev
    main.o(.ARM.exidx) refers to unwind_pr0.o(.text) for __aeabi_unwind_cpp_pr0
    main.o(.ARM.exidx) refers to main.o(t._ZNKSt9basic_iosIcSt11char_traitsIcEE5rdbufEv) for t._ZNKSt9basic_iosIcSt11char_traitsIcEE5rdbufEv
    main.o(.ARM.exidx) refers to main.o(t._ZNSt15basic_streambufIcSt11char_traitsIcEE7pubsyncEv) for t._ZNSt15basic_streambufIcSt11char_traitsIcEE7pubsyncEv
    main.o(.ARM.exidx) refers to unwind_pr0.o(.text) for __aeabi_unwind_cpp_pr0
    main.o(i._ZNKSo10_C_is_coutEv) refers to ios.o(.bss) for std::__rw_std_streams
    main.o(.ARM.exidx) refers to main.o(i._ZNKSo10_C_is_coutEv) for i._ZNKSo10_C_is_coutEv
    main.o(.ARM.exidx) refers to main.o(i._ZNKSt8ios_base5flagsEv) for i._ZNKSt8ios_base5flagsEv
    main.o(.ARM.exidx) refers to main.o(i._ZNSt11char_traitsIcE6assignERcRKc) for i._ZNSt11char_traitsIcE6assignERcRKc
    main.o(.ARM.exidx) refers to main.o(i._ZNSt11char_traitsIcE11eq_int_typeERKiS2_) for i._ZNSt11char_traitsIcE11eq_int_typeERKiS2_
    main.o(t._ZSt4endlIcSt11char_traitsIcEERSt13basic_ostreamIT_T0_ES6_) refers to main.o(i._ZNSt6localeC1ERKS_) for std::locale::locale(const std::locale&)
    main.o(t._ZSt4endlIcSt11char_traitsIcEERSt13basic_ostreamIT_T0_ES6_) refers to main.o(t._ZSt9use_facetISt5ctypeIcEERKT_RKSt6locale) for const T1& std::use_facet<std::ctype<char>>(const std::locale&)
    main.o(t._ZSt4endlIcSt11char_traitsIcEERSt13basic_ostreamIT_T0_ES6_) refers to main.o(i._ZNSt6localeD1Ev) for std::locale::~locale()
    main.o(t._ZSt4endlIcSt11char_traitsIcEERSt13basic_ostreamIT_T0_ES6_) refers to main.o(t._ZN4__rw11__rw_insertIcSt11char_traitsIcEcEERSt13basic_ostreamIT_T0_ES7_PT1_ll) for std::basic_ostream<T1, T2>& __rw::__rw_insert<char, std::char_traits<char>, char>(std::basic_ostream<T1, T2>&, T3*, long, long)
    main.o(t._ZSt4endlIcSt11char_traitsIcEERSt13basic_ostreamIT_T0_ES6_) refers to main.o(t._ZNSo5flushEv) for std::basic_ostream<char, std::char_traits<char>>::flush()
    main.o(t._ZSt4endlIcSt11char_traitsIcEERSt13basic_ostreamIT_T0_ES6_.clean) refers to main.o(i._ZNSt6localeD1Ev) for std::locale::~locale()
    main.o(t._ZSt4endlIcSt11char_traitsIcEERSt13basic_ostreamIT_T0_ES6_.clean) refers to arm_exceptions_cleanup.o(.emb_text) for __cxa_end_cleanup
    main.o(.ARM.extab) refers to main.o(t._ZSt4endlIcSt11char_traitsIcEERSt13basic_ostreamIT_T0_ES6_.clean) for t._ZSt4endlIcSt11char_traitsIcEERSt13basic_ostreamIT_T0_ES6_.clean
    main.o(.ARM.exidx) refers to main.o(t._ZSt4endlIcSt11char_traitsIcEERSt13basic_ostreamIT_T0_ES6_) for t._ZSt4endlIcSt11char_traitsIcEERSt13basic_ostreamIT_T0_ES6_
    main.o(.ARM.exidx) refers to unwind_pr0.o(.text) for __aeabi_unwind_cpp_pr0
    main.o(.ARM.exidx) refers to main.o(.ARM.extab) for .extab._ZSt4endlIcSt11char_traitsIcEERSt13basic_ostreamIT_T0_ES6_
    main.o(.ARM.exidx) refers to main.o(t._ZSt4endlIcSt11char_traitsIcEERSt13basic_ostreamIT_T0_ES6_.clean) for t._ZSt4endlIcSt11char_traitsIcEERSt13basic_ostreamIT_T0_ES6_.clean
    main.o(i._ZNSt11char_traitsIcE6lengthEPKc) refers to strlen.o(.text) for strlen
    main.o(.ARM.exidx) refers to main.o(i._ZNSt11char_traitsIcE6lengthEPKc) for i._ZNSt11char_traitsIcE6lengthEPKc
    main.o(t._ZN4__rw11__rw_insertIcSt11char_traitsIcEcEERSt13basic_ostreamIT_T0_ES7_PKT1_ll) refers to main.o(t._ZN4__rw11__rw_insertIcSt11char_traitsIcEcEERSt13basic_ostreamIT_T0_ES7_PT1_ll) for std::basic_ostream<T1, T2>& __rw::__rw_insert<char, std::char_traits<char>, char>(std::basic_ostream<T1, T2>&, T3*, long, long)
    main.o(.ARM.exidx) refers to main.o(t._ZN4__rw11__rw_insertIcSt11char_traitsIcEcEERSt13basic_ostreamIT_T0_ES7_PKT1_ll) for t._ZN4__rw11__rw_insertIcSt11char_traitsIcEcEERSt13basic_ostreamIT_T0_ES7_PKT1_ll
    main.o(.ARM.exidx) refers to unwind_pr0.o(.text) for __aeabi_unwind_cpp_pr0
    main.o(.ARM.exidx) refers to main.o(i._ZNSt8ios_base5widthEl) for i._ZNSt8ios_base5widthEl
    main.o(.ARM.exidx) refers to main.o(t._ZNSolsEPFRSoS_E) for t._ZNSolsEPFRSoS_E
    main.o(.ARM.exidx) refers to unwind_pr0.o(.text) for __aeabi_unwind_cpp_pr0
    main.o(.ARM.exidx) refers to main.o(t._ZNK4__rw14__rw_tree_iterISt4pairIKSsiEiPS3_RS3_NS_17__rw_rb_tree_nodeISaIS3_ES3_SsNS_11__select1stIS3_SsEEEEEdeEv) for t._ZNK4__rw14__rw_tree_iterISt4pairIKSsiEiPS3_RS3_NS_17__rw_rb_tree_nodeISaIS3_ES3_SsNS_11__select1stIS3_SsEEEEEdeEv
    main.o(t._ZNK4__rw14__rw_tree_iterISt4pairIKSsiEiPS3_RS3_NS_17__rw_rb_tree_nodeISaIS3_ES3_SsNS_11__select1stIS3_SsEEEEEptEv) refers to main.o(t._ZNK4__rw14__rw_tree_iterISt4pairIKSsiEiPS3_RS3_NS_17__rw_rb_tree_nodeISaIS3_ES3_SsNS_11__select1stIS3_SsEEEEEdeEv) for __rw::__rw_tree_iter<std::pair<const std::basic_string<char, std::char_traits<char>, std::allocator<char>>, int>, int, std::pair<const std::basic_string<char, std::char_traits<char>, std::allocator<char>>, int>*, std::pair<const std::basic_string<char, std::char_traits<char>, std::allocator<char>>, int>&, __rw::__rw_rb_tree_node<std::allocator<std::pair<const std::basic_string<char, std::char_traits<char>, std::allocator<char>>, int>>, std::pair<const std::basic_string<char, std::char_traits<char>, std::allocator<char>>, int>, std::basic_string<char, std::char_traits<char>, std::allocator<char>>, __rw::__select1st<std::pair<const std::basic_string<char, std::char_traits<char>, std::allocator<char>>, int>, std::basic_string<char, std::char_traits<char>, std::allocator<char>>>>>::operator *() const
    main.o(.ARM.exidx) refers to main.o(t._ZNK4__rw14__rw_tree_iterISt4pairIKSsiEiPS3_RS3_NS_17__rw_rb_tree_nodeISaIS3_ES3_SsNS_11__select1stIS3_SsEEEEEptEv) for t._ZNK4__rw14__rw_tree_iterISt4pairIKSsiEiPS3_RS3_NS_17__rw_rb_tree_nodeISaIS3_ES3_SsNS_11__select1stIS3_SsEEEEEptEv
    main.o(.ARM.exidx) refers to unwind_pr0.o(.text) for __aeabi_unwind_cpp_pr0
    main.o(t._ZNKSs4sizeEv) refers to main.o(t._ZNKSs7_C_prefEv) for std::basic_string<char, std::char_traits<char>, std::allocator<char>>::_C_pref() const
    main.o(.ARM.exidx) refers to main.o(t._ZNKSs4sizeEv) for t._ZNKSs4sizeEv
    main.o(.ARM.exidx) refers to unwind_pr0.o(.text) for __aeabi_unwind_cpp_pr0
    main.o(t._ZNKSs6lengthEv) refers to main.o(t._ZNKSs4sizeEv) for std::basic_string<char, std::char_traits<char>, std::allocator<char>>::size() const
    main.o(.ARM.exidx) refers to main.o(t._ZNKSs6lengthEv) for t._ZNKSs6lengthEv
    main.o(.ARM.exidx) refers to unwind_pr0.o(.text) for __aeabi_unwind_cpp_pr0
    main.o(.ARM.exidx) refers to main.o(i._ZNSt6locale5facetD1Ev) for i._ZNSt6locale5facetD1Ev
    main.o(t._ZNSt7num_putIcSt19ostreambuf_iteratorIcSt11char_traitsIcEEEC1Ej) refers to main.o(i._ZNSt6locale5facetC1Eji) for std::locale::facet::facet(unsigned, int)
    main.o(t._ZNSt7num_putIcSt19ostreambuf_iteratorIcSt11char_traitsIcEEEC1Ej) refers to main.o(.constdata__ZTVSt7num_putIcSt19ostreambuf_iteratorIcSt11char_traitsIcEEE) for vtable for std::num_put<char, std::ostreambuf_iterator<char, std::char_traits<char>>>
    main.o(.ARM.exidx) refers to main.o(t._ZNSt7num_putIcSt19ostreambuf_iteratorIcSt11char_traitsIcEEEC1Ej) for t._ZNSt7num_putIcSt19ostreambuf_iteratorIcSt11char_traitsIcEEEC1Ej
    main.o(.ARM.exidx) refers to unwind_pr0.o(.text) for __aeabi_unwind_cpp_pr0
    main.o(t._ZSt9use_facetISt7num_putIcSt19ostreambuf_iteratorIcSt11char_traitsIcEEEERKT_RKSt6locale) refers to main.o(i._ZNKSt6locale12_C_use_facetERKNS_2idEbiPFPN4__rw15__rw_facet_baseEiPKcjE) for std::locale::_C_use_facet(const std::locale::id&, bool, int, __rw::__rw_facet_base*(*)(int, const char*, unsigned)) const
    main.o(t._ZSt9use_facetISt7num_putIcSt19ostreambuf_iteratorIcSt11char_traitsIcEEEERKT_RKSt6locale) refers to main.o(t._ZN4__rw16__rw_facet_makerISt7num_putIcSt19ostreambuf_iteratorIcSt11char_traitsIcEEEE13_C_maker_funcEiPKcj) for __rw::__rw_facet_maker<std::num_put<char, std::ostreambuf_iterator<char, std::char_traits<char>>>>::_C_maker_func(int, const char*, unsigned)
    main.o(t._ZSt9use_facetISt7num_putIcSt19ostreambuf_iteratorIcSt11char_traitsIcEEEERKT_RKSt6locale) refers to main.o(.data__ZNSt7num_putIcSt19ostreambuf_iteratorIcSt11char_traitsIcEEE2idE) for std::num_put<char, std::ostreambuf_iterator<char, std::char_traits<char>>>::id
    main.o(.ARM.exidx) refers to main.o(t._ZSt9use_facetISt7num_putIcSt19ostreambuf_iteratorIcSt11char_traitsIcEEEERKT_RKSt6locale) for t._ZSt9use_facetISt7num_putIcSt19ostreambuf_iteratorIcSt11char_traitsIcEEEERKT_RKSt6locale
    main.o(.ARM.exidx) refers to unwind_pr0.o(.text) for __aeabi_unwind_cpp_pr0
    main.o(.ARM.exidx) refers to main.o(t._ZNKSt19ostreambuf_iteratorIcSt11char_traitsIcEE6failedEv) for t._ZNKSt19ostreambuf_iteratorIcSt11char_traitsIcEE6failedEv
    main.o(t._ZNSolsEi) refers to main.o(t._ZN4__rw11__rw_insertIcSt11char_traitsIcEiEERSt13basic_ostreamIT_T0_ES7_T1_) for std::basic_ostream<T1, T2>& __rw::__rw_insert<char, std::char_traits<char>, int>(std::basic_ostream<T1, T2>&, T3)
    main.o(.ARM.exidx) refers to main.o(t._ZNSolsEi) for t._ZNSolsEi
    main.o(.ARM.exidx) refers to unwind_pr0.o(.text) for __aeabi_unwind_cpp_pr0
    main.o(t._ZNSt3mapISsiSt4lessISsESaISt4pairIKSsiEEE5beginEv) refers to main.o(t._ZN4__rw9__rb_treeISsSt4pairIKSsiENS_11__select1stIS3_SsEESt4lessISsESaIS3_EE5beginEv) for __rw::__rb_tree<std::basic_string<char, std::char_traits<char>, std::allocator<char>>, std::pair<const std::basic_string<char, std::char_traits<char>, std::allocator<char>>, int>, __rw::__select1st<std::pair<const std::basic_string<char, std::char_traits<char>, std::allocator<char>>, int>, std::basic_string<char, std::char_traits<char>, std::allocator<char>>>, std::less<std::basic_string<char, std::char_traits<char>, std::allocator<char>>>, std::allocator<std::pair<const std::basic_string<char, std::char_traits<char>, std::allocator<char>>, int>>>::begin()
    main.o(.ARM.exidx) refers to main.o(t._ZNSt3mapISsiSt4lessISsESaISt4pairIKSsiEEE5beginEv) for t._ZNSt3mapISsiSt4lessISsESaISt4pairIKSsiEEE5beginEv
    main.o(.ARM.exidx) refers to unwind_pr0.o(.text) for __aeabi_unwind_cpp_pr0
    main.o(.ARM.exidx) refers to main.o(t._ZNSaIcEC1Ev) for t._ZNSaIcEC1Ev
    main.o(i._ZNSt11char_traitsIcE4copyEPcPKcj) refers to rt_memcpy_v6.o(.text) for __aeabi_memcpy
    main.o(.ARM.exidx) refers to main.o(i._ZNSt11char_traitsIcE4copyEPcPKcj) for i._ZNSt11char_traitsIcE4copyEPcPKcj
    main.o(.ARM.exidx) refers to main.o(t._ZSt3maxIjERKT_S2_S2_) for t._ZSt3maxIjERKT_S2_S2_
    main.o(.ARM.exidx) refers to main.o(t._ZNSaIcEC1ERKS_) for t._ZNSaIcEC1ERKS_
    main.o(.ARM.exidx) refers to main.o(t._ZNKSs5c_strEv) for t._ZNKSs5c_strEv
    main.o(t._ZN4__rw12__string_refIcSt11char_traitsIcESaIcEE10_C_inc_refEv) refers to rwthrowproc_impl.o(.bss__ZNSs9__nullrefE) for std::basic_string<char, std::char_traits<char>, std::allocator<char>>::__nullref
    main.o(.ARM.exidx) refers to main.o(t._ZN4__rw12__string_refIcSt11char_traitsIcESaIcEE10_C_inc_refEv) for t._ZN4__rw12__string_refIcSt11char_traitsIcESaIcEE10_C_inc_refEv
    main.o(t._ZNSt4pairIN4__rw14__rw_tree_iterIS_IKSsiEiPS3_RS3_NS0_17__rw_rb_tree_nodeISaIS3_ES3_SsNS0_11__select1stIS3_SsEEEEEEbEC1ERKSB_RKb) refers to main.o(t._ZN4__rw14__rw_tree_iterISt4pairIKSsiEiPS3_RS3_NS_17__rw_rb_tree_nodeISaIS3_ES3_SsNS_11__select1stIS3_SsEEEEEC1ERKSB_) for __rw::__rw_tree_iter<std::pair<const std::basic_string<char, std::char_traits<char>, std::allocator<char>>, int>, int, std::pair<const std::basic_string<char, std::char_traits<char>, std::allocator<char>>, int>*, std::pair<const std::basic_string<char, std::char_traits<char>, std::allocator<char>>, int>&, __rw::__rw_rb_tree_node<std::allocator<std::pair<const std::basic_string<char, std::char_traits<char>, std::allocator<char>>, int>>, std::pair<const std::basic_string<char, std::char_traits<char>, std::allocator<char>>, int>, std::basic_string<char, std::char_traits<char>, std::allocator<char>>, __rw::__select1st<std::pair<const std::basic_string<char, std::char_traits<char>, std::allocator<char>>, int>, std::basic_string<char, std::char_traits<char>, std::allocator<char>>>>>::__rw_tree_iter(const __rw::__rw_tree_iter<std::pair<const std::basic_string<char, std::char_traits<char>, std::allocator<char>>, int>, int, std::pair<const std::basic_string<char, std::char_traits<char>, std::allocator<char>>, int>*, std::pair<const std::basic_string<char, std::char_traits<char>, std::allocator<char>>, int>&, __rw::__rw_rb_tree_node<std::allocator<std::pair<const std::basic_string<char, std::char_traits<char>, std::allocator<char>>, int>>, std::pair<const std::basic_string<char, std::char_traits<char>, std::allocator<char>>, int>, std::basic_string<char, std::char_traits<char>, std::allocator<char>>, __rw::__select1st<std::pair<const std::basic_string<char, std::char_traits<char>, std::allocator<char>>, int>, std::basic_string<char, std::char_traits<char>, std::allocator<char>>>>>&)
    main.o(.ARM.exidx) refers to main.o(t._ZNSt4pairIN4__rw14__rw_tree_iterIS_IKSsiEiPS3_RS3_NS0_17__rw_rb_tree_nodeISaIS3_ES3_SsNS0_11__select1stIS3_SsEEEEEEbEC1ERKSB_RKb) for t._ZNSt4pairIN4__rw14__rw_tree_iterIS_IKSsiEiPS3_RS3_NS0_17__rw_rb_tree_nodeISaIS3_ES3_SsNS0_11__select1stIS3_SsEEEEEEbEC1ERKSB_RKb
    main.o(.ARM.exidx) refers to unwind_pr0.o(.text) for __aeabi_unwind_cpp_pr0
    main.o(.ARM.exidx) refers to main.o(t._ZN4__rw17__rw_rb_tree_nodeISaISt4pairIKSsiEES3_SsNS_11__select1stIS3_SsEEE6_C_keyEv) for t._ZN4__rw17__rw_rb_tree_nodeISaISt4pairIKSsiEES3_SsNS_11__select1stIS3_SsEEE6_C_keyEv
    main.o(t._ZNKSs7compareERKSs) refers to main.o(t._ZNKSs4dataEv) for std::basic_string<char, std::char_traits<char>, std::allocator<char>>::data() const
    main.o(t._ZNKSs7compareERKSs) refers to main.o(t._ZNKSs4sizeEv) for std::basic_string<char, std::char_traits<char>, std::allocator<char>>::size() const
    main.o(t._ZNKSs7compareERKSs) refers to memcmp.o(.text) for memcmp
    main.o(.ARM.exidx) refers to main.o(t._ZNKSs7compareERKSs) for t._ZNKSs7compareERKSs
    main.o(.ARM.exidx) refers to unwind_pr1.o(.text) for __aeabi_unwind_cpp_pr1
    main.o(.ARM.exidx) refers to main.o(.ARM.extab) for .extab._ZNKSs7compareERKSs
    main.o(t._ZN4__rw9__rb_treeISsSt4pairIKSsiENS_11__select1stIS3_SsEESt4lessISsESaIS3_EE11_C_get_nodeERKS3_) refers to main.o(t._ZN4__rw9__rb_treeISsSt4pairIKSsiENS_11__select1stIS3_SsEESt4lessISsESaIS3_EE11_C_get_linkEv) for __rw::__rb_tree<std::basic_string<char, std::char_traits<char>, std::allocator<char>>, std::pair<const std::basic_string<char, std::char_traits<char>, std::allocator<char>>, int>, __rw::__select1st<std::pair<const std::basic_string<char, std::char_traits<char>, std::allocator<char>>, int>, std::basic_string<char, std::char_traits<char>, std::allocator<char>>>, std::less<std::basic_string<char, std::char_traits<char>, std::allocator<char>>>, std::allocator<std::pair<const std::basic_string<char, std::char_traits<char>, std::allocator<char>>, int>>>::_C_get_link()
    main.o(t._ZN4__rw9__rb_treeISsSt4pairIKSsiENS_11__select1stIS3_SsEESt4lessISsESaIS3_EE11_C_get_nodeERKS3_) refers to main.o(i._ZnwjPv) for operator new(unsigned, void*)
    main.o(t._ZN4__rw9__rb_treeISsSt4pairIKSsiENS_11__select1stIS3_SsEESt4lessISsESaIS3_EE11_C_get_nodeERKS3_) refers to main.o(t._ZNSsC1ERKSs) for std::basic_string<char, std::char_traits<char>, std::allocator<char>>::basic_string(const std::basic_string<char, std::char_traits<char>, std::allocator<char>>&)
    main.o(t._ZN4__rw9__rb_treeISsSt4pairIKSsiENS_11__select1stIS3_SsEESt4lessISsESaIS3_EE11_C_get_nodeERKS3_) refers to arm_exceptions_begincatch.o(.text) for __cxa_begin_catch
    main.o(t._ZN4__rw9__rb_treeISsSt4pairIKSsiENS_11__select1stIS3_SsEESt4lessISsESaIS3_EE11_C_get_nodeERKS3_) refers to main.o(t._ZN4__rw9__rb_treeISsSt4pairIKSsiENS_11__select1stIS3_SsEESt4lessISsESaIS3_EE11_C_put_nodeEPNS_17__rw_rb_tree_nodeIS8_S3_SsS5_EEb) for __rw::__rb_tree<std::basic_string<char, std::char_traits<char>, std::allocator<char>>, std::pair<const std::basic_string<char, std::char_traits<char>, std::allocator<char>>, int>, __rw::__select1st<std::pair<const std::basic_string<char, std::char_traits<char>, std::allocator<char>>, int>, std::basic_string<char, std::char_traits<char>, std::allocator<char>>>, std::less<std::basic_string<char, std::char_traits<char>, std::allocator<char>>>, std::allocator<std::pair<const std::basic_string<char, std::char_traits<char>, std::allocator<char>>, int>>>::_C_put_node(__rw::__rw_rb_tree_node<std::allocator<std::pair<const std::basic_string<char, std::char_traits<char>, std::allocator<char>>, int>>, std::pair<const std::basic_string<char, std::char_traits<char>, std::allocator<char>>, int>, std::basic_string<char, std::char_traits<char>, std::allocator<char>>, __rw::__select1st<std::pair<const std::basic_string<char, std::char_traits<char>, std::allocator<char>>, int>, std::basic_string<char, std::char_traits<char>, std::allocator<char>>>>*, bool)
    main.o(t._ZN4__rw9__rb_treeISsSt4pairIKSsiENS_11__select1stIS3_SsEESt4lessISsESaIS3_EE11_C_get_nodeERKS3_) refers to arm_exceptions_rethrow.o(.text) for __cxa_rethrow
    main.o(t._ZN4__rw9__rb_treeISsSt4pairIKSsiENS_11__select1stIS3_SsEESt4lessISsESaIS3_EE11_C_get_nodeERKS3_.clean) refers to main.o(i._ZdlPvS_) for operator delete (void*, void*)
    main.o(t._ZN4__rw9__rb_treeISsSt4pairIKSsiENS_11__select1stIS3_SsEESt4lessISsESaIS3_EE11_C_get_nodeERKS3_.clean) refers to arm_exceptions_cleanup.o(.emb_text) for __cxa_end_cleanup
    main.o(t._ZN4__rw9__rb_treeISsSt4pairIKSsiENS_11__select1stIS3_SsEESt4lessISsESaIS3_EE11_C_get_nodeERKS3_.clean) refers to arm_exceptions_endcatch.o(.text) for __cxa_end_catch
    main.o(.ARM.extab) refers to main.o(t._ZN4__rw9__rb_treeISsSt4pairIKSsiENS_11__select1stIS3_SsEESt4lessISsESaIS3_EE11_C_get_nodeERKS3_.clean) for t._ZN4__rw9__rb_treeISsSt4pairIKSsiENS_11__select1stIS3_SsEESt4lessISsESaIS3_EE11_C_get_nodeERKS3_.clean
    main.o(.ARM.extab) refers to main.o(t._ZN4__rw9__rb_treeISsSt4pairIKSsiENS_11__select1stIS3_SsEESt4lessISsESaIS3_EE11_C_get_nodeERKS3_) for t._ZN4__rw9__rb_treeISsSt4pairIKSsiENS_11__select1stIS3_SsEESt4lessISsESaIS3_EE11_C_get_nodeERKS3_
    main.o(.ARM.exidx) refers to main.o(t._ZN4__rw9__rb_treeISsSt4pairIKSsiENS_11__select1stIS3_SsEESt4lessISsESaIS3_EE11_C_get_nodeERKS3_) for t._ZN4__rw9__rb_treeISsSt4pairIKSsiENS_11__select1stIS3_SsEESt4lessISsESaIS3_EE11_C_get_nodeERKS3_
    main.o(.ARM.exidx) refers to unwind_pr0.o(.text) for __aeabi_unwind_cpp_pr0
    main.o(.ARM.exidx) refers to main.o(.ARM.extab) for .extab._ZN4__rw9__rb_treeISsSt4pairIKSsiENS_11__select1stIS3_SsEESt4lessISsESaIS3_EE11_C_get_nodeERKS3_
    main.o(.ARM.exidx) refers to main.o(t._ZN4__rw9__rb_treeISsSt4pairIKSsiENS_11__select1stIS3_SsEESt4lessISsESaIS3_EE11_C_get_nodeERKS3_.clean) for t._ZN4__rw9__rb_treeISsSt4pairIKSsiENS_11__select1stIS3_SsEESt4lessISsESaIS3_EE11_C_get_nodeERKS3_.clean
    main.o(.ARM.exidx) refers to main.o(t._ZNSaISt4pairIKSsiEEC1Ev) for t._ZNSaISt4pairIKSsiEEC1Ev
    main.o(t._ZN4__rw9__rb_treeISsSt4pairIKSsiENS_11__select1stIS3_SsEESt4lessISsESaIS3_EEC1ERKS7_bRKS8_) refers to main.o(t._ZNSaISt4pairIKSsiEEC1ERKS2_) for std::allocator<std::pair<const std::basic_string<char, std::char_traits<char>, std::allocator<char>>, int>>::allocator(const std::allocator<std::pair<const std::basic_string<char, std::char_traits<char>, std::allocator<char>>, int>>&)
    main.o(t._ZN4__rw9__rb_treeISsSt4pairIKSsiENS_11__select1stIS3_SsEESt4lessISsESaIS3_EEC1ERKS7_bRKS8_) refers to main.o(t._ZN4__rw9__rb_treeISsSt4pairIKSsiENS_11__select1stIS3_SsEESt4lessISsESaIS3_EE11_C_get_linkEv) for __rw::__rb_tree<std::basic_string<char, std::char_traits<char>, std::allocator<char>>, std::pair<const std::basic_string<char, std::char_traits<char>, std::allocator<char>>, int>, __rw::__select1st<std::pair<const std::basic_string<char, std::char_traits<char>, std::allocator<char>>, int>, std::basic_string<char, std::char_traits<char>, std::allocator<char>>>, std::less<std::basic_string<char, std::char_traits<char>, std::allocator<char>>>, std::allocator<std::pair<const std::basic_string<char, std::char_traits<char>, std::allocator<char>>, int>>>::_C_get_link()
    main.o(t._ZN4__rw9__rb_treeISsSt4pairIKSsiENS_11__select1stIS3_SsEESt4lessISsESaIS3_EEC1ERKS7_bRKS8_) refers to main.o(t._ZNK4__rw9__rb_treeISsSt4pairIKSsiENS_11__select1stIS3_SsEESt4lessISsESaIS3_EE7_C_rootEv) for __rw::__rb_tree<std::basic_string<char, std::char_traits<char>, std::allocator<char>>, std::pair<const std::basic_string<char, std::char_traits<char>, std::allocator<char>>, int>, __rw::__select1st<std::pair<const std::basic_string<char, std::char_traits<char>, std::allocator<char>>, int>, std::basic_string<char, std::char_traits<char>, std::allocator<char>>>, std::less<std::basic_string<char, std::char_traits<char>, std::allocator<char>>>, std::allocator<std::pair<const std::basic_string<char, std::char_traits<char>, std::allocator<char>>, int>>>::_C_root() const
    main.o(t._ZN4__rw9__rb_treeISsSt4pairIKSsiENS_11__select1stIS3_SsEESt4lessISsESaIS3_EEC1ERKS7_bRKS8_) refers to main.o(t._ZNK4__rw9__rb_treeISsSt4pairIKSsiENS_11__select1stIS3_SsEESt4lessISsESaIS3_EE11_C_leftmostEv) for __rw::__rb_tree<std::basic_string<char, std::char_traits<char>, std::allocator<char>>, std::pair<const std::basic_string<char, std::char_traits<char>, std::allocator<char>>, int>, __rw::__select1st<std::pair<const std::basic_string<char, std::char_traits<char>, std::allocator<char>>, int>, std::basic_string<char, std::char_traits<char>, std::allocator<char>>>, std::less<std::basic_string<char, std::char_traits<char>, std::allocator<char>>>, std::allocator<std::pair<const std::basic_string<char, std::char_traits<char>, std::allocator<char>>, int>>>::_C_leftmost() const
    main.o(t._ZN4__rw9__rb_treeISsSt4pairIKSsiENS_11__select1stIS3_SsEESt4lessISsESaIS3_EEC1ERKS7_bRKS8_) refers to main.o(t._ZNK4__rw9__rb_treeISsSt4pairIKSsiENS_11__select1stIS3_SsEESt4lessISsESaIS3_EE12_C_rightmostEv) for __rw::__rb_tree<std::basic_string<char, std::char_traits<char>, std::allocator<char>>, std::pair<const std::basic_string<char, std::char_traits<char>, std::allocator<char>>, int>, __rw::__select1st<std::pair<const std::basic_string<char, std::char_traits<char>, std::allocator<char>>, int>, std::basic_string<char, std::char_traits<char>, std::allocator<char>>>, std::less<std::basic_string<char, std::char_traits<char>, std::allocator<char>>>, std::allocator<std::pair<const std::basic_string<char, std::char_traits<char>, std::allocator<char>>, int>>>::_C_rightmost() const
    main.o(.ARM.exidx) refers to main.o(t._ZN4__rw9__rb_treeISsSt4pairIKSsiENS_11__select1stIS3_SsEESt4lessISsESaIS3_EEC1ERKS7_bRKS8_) for t._ZN4__rw9__rb_treeISsSt4pairIKSsiENS_11__select1stIS3_SsEESt4lessISsESaIS3_EEC1ERKS7_bRKS8_
    main.o(.ARM.exidx) refers to unwind_pr0.o(.text) for __aeabi_unwind_cpp_pr0
    main.o(i._ZNSt11char_traitsIcE4moveEPcPKcj) refers to rt_memmove_v6.o(.text) for __aeabi_memmove
    main.o(.ARM.exidx) refers to main.o(i._ZNSt11char_traitsIcE4moveEPcPKcj) for i._ZNSt11char_traitsIcE4moveEPcPKcj
    main.o(t._ZNSsC1ERKSaIcE) refers to main.o(t._ZNSaIcEC1ERKS_) for std::allocator<char>::allocator(const std::allocator<char>&)
    main.o(t._ZNSsC1ERKSaIcE) refers to main.o(t._ZNSs7_C_nullEv) for std::basic_string<char, std::char_traits<char>, std::allocator<char>>::_C_null()
    main.o(.ARM.exidx) refers to main.o(t._ZNSsC1ERKSaIcE) for t._ZNSsC1ERKSaIcE
    main.o(.ARM.exidx) refers to unwind_pr0.o(.text) for __aeabi_unwind_cpp_pr0
    main.o(.ARM.exidx) refers to main.o(i._ZNSt6locale2idC1Ev) for i._ZNSt6locale2idC1Ev
    main.o(i._ZN4__rw15__rw_punct_dataIcED1Ev) refers to main.o(t._ZNSsD1Ev) for std::basic_string<char, std::char_traits<char>, std::allocator<char>>::~basic_string()
    main.o(.ARM.exidx) refers to main.o(i._ZN4__rw15__rw_punct_dataIcED1Ev) for i._ZN4__rw15__rw_punct_dataIcED1Ev
    main.o(.ARM.exidx) refers to unwind_pr0.o(.text) for __aeabi_unwind_cpp_pr0
    main.o(i._ZN4__rw18__rw_numpunct_implIcED1Ev) refers to main.o(i._ZN4__rw23__rw_numpunct_impl_dataIcED1Ev) for __rw::__rw_numpunct_impl_data<char>::~__rw_numpunct_impl_data()
    main.o(.ARM.exidx) refers to main.o(i._ZN4__rw18__rw_numpunct_implIcED1Ev) for i._ZN4__rw18__rw_numpunct_implIcED1Ev
    main.o(.ARM.exidx) refers to unwind_pr0.o(.text) for __aeabi_unwind_cpp_pr0
    main.o(.ARM.exidx) refers to main.o(t._ZNKSt8numpunctIcE16do_decimal_pointEv) for t._ZNKSt8numpunctIcE16do_decimal_pointEv
    main.o(.ARM.exidx) refers to main.o(t._ZNKSt8numpunctIcE16do_thousands_sepEv) for t._ZNKSt8numpunctIcE16do_thousands_sepEv
    main.o(t._ZNKSt8numpunctIcE11do_groupingEv) refers to main.o(t._ZNSsC1ERKSs) for std::basic_string<char, std::char_traits<char>, std::allocator<char>>::basic_string(const std::basic_string<char, std::char_traits<char>, std::allocator<char>>&)
    main.o(.ARM.exidx) refers to main.o(t._ZNKSt8numpunctIcE11do_groupingEv) for t._ZNKSt8numpunctIcE11do_groupingEv
    main.o(.ARM.exidx) refers to unwind_pr0.o(.text) for __aeabi_unwind_cpp_pr0
    main.o(t._ZNKSt8numpunctIcE11do_truenameEv) refers to main.o(t._ZNSsC1ERKSs) for std::basic_string<char, std::char_traits<char>, std::allocator<char>>::basic_string(const std::basic_string<char, std::char_traits<char>, std::allocator<char>>&)
    main.o(.ARM.exidx) refers to main.o(t._ZNKSt8numpunctIcE11do_truenameEv) for t._ZNKSt8numpunctIcE11do_truenameEv
    main.o(.ARM.exidx) refers to unwind_pr0.o(.text) for __aeabi_unwind_cpp_pr0
    main.o(t._ZNKSt8numpunctIcE12do_falsenameEv) refers to main.o(t._ZNSsC1ERKSs) for std::basic_string<char, std::char_traits<char>, std::allocator<char>>::basic_string(const std::basic_string<char, std::char_traits<char>, std::allocator<char>>&)
    main.o(.ARM.exidx) refers to main.o(t._ZNKSt8numpunctIcE12do_falsenameEv) for t._ZNKSt8numpunctIcE12do_falsenameEv
    main.o(.ARM.exidx) refers to unwind_pr0.o(.text) for __aeabi_unwind_cpp_pr0
    main.o(i._ZNSt8numpunctIcED0Ev) refers to main.o(i._ZNSt8numpunctIcED1Ev) for std::numpunct<char>::~numpunct()
    main.o(i._ZNSt8numpunctIcED0Ev) refers to delete.o(i._ZdlPv) for operator delete (void*)
    main.o(.ARM.exidx) refers to main.o(i._ZNSt8numpunctIcED0Ev) for i._ZNSt8numpunctIcED0Ev
    main.o(.ARM.exidx) refers to unwind_pr0.o(.text) for __aeabi_unwind_cpp_pr0
    main.o(i._ZN4__rw17__rw_digit_writerIcSt19ostreambuf_iteratorIcSt11char_traitsIcEEED1Ev) refers to main.o(i._ZN4__rw24__rw_digit_writer_base_1IcED1Ev) for __rw::__rw_digit_writer_base_1<char>::~__rw_digit_writer_base_1()
    main.o(.ARM.exidx) refers to main.o(i._ZN4__rw17__rw_digit_writerIcSt19ostreambuf_iteratorIcSt11char_traitsIcEEED1Ev) for i._ZN4__rw17__rw_digit_writerIcSt19ostreambuf_iteratorIcSt11char_traitsIcEEED1Ev
    main.o(.ARM.exidx) refers to unwind_pr0.o(.text) for __aeabi_unwind_cpp_pr0
    main.o(i._ZN4__rw22__rw_digit_writer_base11_C_digitizeEm) refers to vendor.o(i._ZN4__rw22__rw_digit_writer_base11_C_digitizeEmbPKc) for __rw::__rw_digit_writer_base::_C_digitize(unsigned long, bool, const char*)
    main.o(i._ZN4__rw22__rw_digit_writer_base11_C_digitizeEm) refers to main.o(.constdata__ZZN4__rw22__rw_digit_writer_base11_C_digitizeEmEs) for __rw::__rw_digit_writer_base::_C_digitize(unsigned long)::string
    main.o(.ARM.exidx) refers to main.o(i._ZN4__rw22__rw_digit_writer_base11_C_digitizeEm) for i._ZN4__rw22__rw_digit_writer_base11_C_digitizeEm
    main.o(.ARM.exidx) refers to unwind_pr0.o(.text) for __aeabi_unwind_cpp_pr0
    main.o(t._ZN4__rw24__rw_digit_writer_base_1IcEC1ERSt8ios_baseRKSt6locale) refers to main.o(i._ZN4__rw22__rw_digit_writer_baseC1ERSt8ios_base) for __rw::__rw_digit_writer_base::__rw_digit_writer_base(std::ios_base&)
    main.o(t._ZN4__rw24__rw_digit_writer_base_1IcEC1ERSt8ios_baseRKSt6locale) refers to main.o(t._ZSt9use_facetISt5ctypeIcEERKT_RKSt6locale) for const T1& std::use_facet<std::ctype<char>>(const std::locale&)
    main.o(t._ZN4__rw24__rw_digit_writer_base_1IcEC1ERSt8ios_baseRKSt6locale) refers to main.o(i._ZNKSt6locale12_C_use_facetERKNS_2idEbiPFPN4__rw15__rw_facet_baseEiPKcjE) for std::locale::_C_use_facet(const std::locale::id&, bool, int, __rw::__rw_facet_base*(*)(int, const char*, unsigned)) const
    main.o(t._ZN4__rw24__rw_digit_writer_base_1IcEC1ERSt8ios_baseRKSt6locale) refers to main.o(t._ZN4__rw16__rw_facet_makerISt8numpunctIcEE13_C_maker_funcEiPKcj) for __rw::__rw_facet_maker<std::numpunct<char>>::_C_maker_func(int, const char*, unsigned)
    main.o(t._ZN4__rw24__rw_digit_writer_base_1IcEC1ERSt8ios_baseRKSt6locale) refers to main.o(.data__ZNSt8numpunctIcE2idE) for std::numpunct<char>::id
    main.o(t._ZN4__rw24__rw_digit_writer_base_1IcEC1ERSt8ios_baseRKSt6locale) refers to main.o(.constdata__ZTVN4__rw24__rw_digit_writer_base_1IcEE) for vtable for __rw::__rw_digit_writer_base_1<char>
    main.o(t._ZN4__rw24__rw_digit_writer_base_1IcEC1ERSt8ios_baseRKSt6locale.clean) refers to main.o(i._ZN4__rw22__rw_digit_writer_baseD1Ev) for __rw::__rw_digit_writer_base::~__rw_digit_writer_base()
    main.o(t._ZN4__rw24__rw_digit_writer_base_1IcEC1ERSt8ios_baseRKSt6locale.clean) refers to arm_exceptions_cleanup.o(.emb_text) for __cxa_end_cleanup
    main.o(.ARM.extab) refers to main.o(t._ZN4__rw24__rw_digit_writer_base_1IcEC1ERSt8ios_baseRKSt6locale.clean) for t._ZN4__rw24__rw_digit_writer_base_1IcEC1ERSt8ios_baseRKSt6locale.clean
    main.o(.ARM.exidx) refers to main.o(t._ZN4__rw24__rw_digit_writer_base_1IcEC1ERSt8ios_baseRKSt6locale) for t._ZN4__rw24__rw_digit_writer_base_1IcEC1ERSt8ios_baseRKSt6locale
    main.o(.ARM.exidx) refers to unwind_pr0.o(.text) for __aeabi_unwind_cpp_pr0
    main.o(.ARM.exidx) refers to main.o(.ARM.extab) for .extab._ZN4__rw24__rw_digit_writer_base_1IcEC1ERSt8ios_baseRKSt6locale
    main.o(.ARM.exidx) refers to main.o(t._ZN4__rw24__rw_digit_writer_base_1IcEC1ERSt8ios_baseRKSt6locale.clean) for t._ZN4__rw24__rw_digit_writer_base_1IcEC1ERSt8ios_baseRKSt6locale.clean
    main.o(i._ZNSt7num_putIcSt19ostreambuf_iteratorIcSt11char_traitsIcEEED0Ev) refers to main.o(i._ZNSt7num_putIcSt19ostreambuf_iteratorIcSt11char_traitsIcEEED1Ev) for std::num_put<char, std::ostreambuf_iterator<char, std::char_traits<char>>>::~num_put()
    main.o(i._ZNSt7num_putIcSt19ostreambuf_iteratorIcSt11char_traitsIcEEED0Ev) refers to delete.o(i._ZdlPv) for operator delete (void*)
    main.o(.ARM.exidx) refers to main.o(i._ZNSt7num_putIcSt19ostreambuf_iteratorIcSt11char_traitsIcEEED0Ev) for i._ZNSt7num_putIcSt19ostreambuf_iteratorIcSt11char_traitsIcEEED0Ev
    main.o(.ARM.exidx) refers to unwind_pr0.o(.text) for __aeabi_unwind_cpp_pr0
    main.o(.ARM.exidx) refers to main.o(i._ZN4__rw15__rw_facet_base12_C_initfacetERKSt6locale) for i._ZN4__rw15__rw_facet_base12_C_initfacetERKSt6locale
    main.o(.ARM.exidx) refers to main.o(i._ZdlPvS_) for i._ZdlPvS_
    main.o(i._ZNSt6localeD1Ev) refers to array_del.o(i._ZdaPv) for operator delete[] (void*)
    main.o(i._ZNSt6localeD1Ev) refers to main.o(t._ZN4__rw18__rw_locale_vectorIPNS_15__rw_facet_baseEED1Ev) for __rw::__rw_locale_vector<__rw::__rw_facet_base*>::~__rw_locale_vector()
    main.o(i._ZNSt6localeD1Ev) refers to main.o(t._ZN4__rw18__rw_locale_vectorISsED1Ev) for __rw::__rw_locale_vector<std::basic_string<char, std::char_traits<char>, std::allocator<char>>>::~__rw_locale_vector()
    main.o(i._ZNSt6localeD1Ev) refers to delete.o(i._ZdlPv) for operator delete (void*)
    main.o(i._ZNSt6localeD1Ev.clean) refers to main.o(t._ZN4__rw18__rw_locale_vectorISsED1Ev) for __rw::__rw_locale_vector<std::basic_string<char, std::char_traits<char>, std::allocator<char>>>::~__rw_locale_vector()
    main.o(i._ZNSt6localeD1Ev.clean) refers to arm_exceptions_cleanup.o(.emb_text) for __cxa_end_cleanup
    main.o(.ARM.extab) refers to main.o(i._ZNSt6localeD1Ev.clean) for i._ZNSt6localeD1Ev.clean
    main.o(.ARM.exidx) refers to main.o(i._ZNSt6localeD1Ev) for i._ZNSt6localeD1Ev
    main.o(.ARM.exidx) refers to unwind_pr0.o(.text) for __aeabi_unwind_cpp_pr0
    main.o(.ARM.exidx) refers to main.o(.ARM.extab) for .extab._ZNSt6localeD1Ev
    main.o(.ARM.exidx) refers to main.o(i._ZNSt6localeD1Ev.clean) for i._ZNSt6localeD1Ev.clean
    main.o(.ARM.exidx) refers to main.o(i._ZNSt6localeC1ERKS_) for i._ZNSt6localeC1ERKS_
    main.o(t._ZSt9use_facetISt5ctypeIcEERKT_RKSt6locale) refers to main.o(i._ZNKSt6locale12_C_use_facetERKNS_2idEbiPFPN4__rw15__rw_facet_baseEiPKcjE) for std::locale::_C_use_facet(const std::locale::id&, bool, int, __rw::__rw_facet_base*(*)(int, const char*, unsigned)) const
    main.o(t._ZSt9use_facetISt5ctypeIcEERKT_RKSt6locale) refers to main.o(t._ZN4__rw16__rw_facet_makerISt5ctypeIcEE13_C_maker_funcEiPKcj) for __rw::__rw_facet_maker<std::ctype<char>>::_C_maker_func(int, const char*, unsigned)
    main.o(t._ZSt9use_facetISt5ctypeIcEERKT_RKSt6locale) refers to char.o(.data) for std::ctype<char>::id
    main.o(.ARM.exidx) refers to main.o(t._ZSt9use_facetISt5ctypeIcEERKT_RKSt6locale) for t._ZSt9use_facetISt5ctypeIcEERKT_RKSt6locale
    main.o(.ARM.exidx) refers to unwind_pr0.o(.text) for __aeabi_unwind_cpp_pr0
    main.o(t._ZN4__rw16__rw_facet_makerISt7num_putIcSt19ostreambuf_iteratorIcSt11char_traitsIcEEEE13_C_maker_funcEiPKcj) refers to new.o(i._Znwj) for operator new(unsigned)
    main.o(t._ZN4__rw16__rw_facet_makerISt7num_putIcSt19ostreambuf_iteratorIcSt11char_traitsIcEEEE13_C_maker_funcEiPKcj) refers to main.o(t._ZNSt7num_putIcSt19ostreambuf_iteratorIcSt11char_traitsIcEEEC1Ej) for std::num_put<char, std::ostreambuf_iterator<char, std::char_traits<char>>>::num_put(unsigned)
    main.o(t._ZN4__rw16__rw_facet_makerISt7num_putIcSt19ostreambuf_iteratorIcSt11char_traitsIcEEEE13_C_maker_funcEiPKcj) refers to main.o(t._ZN4__rw23__rw_create_named_facetISt7num_putIcSt19ostreambuf_iteratorIcSt11char_traitsIcEEEEEPT_S8_PKcj) for T1* __rw::__rw_create_named_facet<std::num_put<char, std::ostreambuf_iterator<char, std::char_traits<char>>>>(T1*, const char*, unsigned)
    main.o(t._ZN4__rw16__rw_facet_makerISt7num_putIcSt19ostreambuf_iteratorIcSt11char_traitsIcEEEE13_C_maker_funcEiPKcj) refers to main.o(.constdata__ZZN4__rw24__rw_create_native_facetISt7num_putIcSt19ostreambuf_iteratorIcSt11char_traitsIcEEEEEPT_S8_Es) for T1* __rw::__rw_create_native_facet<std::num_put<char, std::ostreambuf_iterator<char, std::char_traits<char>>>>(T1*)::string
    main.o(t._ZN4__rw16__rw_facet_makerISt7num_putIcSt19ostreambuf_iteratorIcSt11char_traitsIcEEEE13_C_maker_funcEiPKcj.clean) refers to delete.o(i._ZdlPv) for operator delete (void*)
    main.o(t._ZN4__rw16__rw_facet_makerISt7num_putIcSt19ostreambuf_iteratorIcSt11char_traitsIcEEEE13_C_maker_funcEiPKcj.clean) refers to arm_exceptions_cleanup.o(.emb_text) for __cxa_end_cleanup
    main.o(.ARM.extab) refers to main.o(t._ZN4__rw16__rw_facet_makerISt7num_putIcSt19ostreambuf_iteratorIcSt11char_traitsIcEEEE13_C_maker_funcEiPKcj.clean) for t._ZN4__rw16__rw_facet_makerISt7num_putIcSt19ostreambuf_iteratorIcSt11char_traitsIcEEEE13_C_maker_funcEiPKcj.clean
    main.o(.ARM.exidx) refers to main.o(t._ZN4__rw16__rw_facet_makerISt7num_putIcSt19ostreambuf_iteratorIcSt11char_traitsIcEEEE13_C_maker_funcEiPKcj) for t._ZN4__rw16__rw_facet_makerISt7num_putIcSt19ostreambuf_iteratorIcSt11char_traitsIcEEEE13_C_maker_funcEiPKcj
    main.o(.ARM.exidx) refers to unwind_pr0.o(.text) for __aeabi_unwind_cpp_pr0
    main.o(.ARM.exidx) refers to main.o(.ARM.extab) for .extab._ZN4__rw16__rw_facet_makerISt7num_putIcSt19ostreambuf_iteratorIcSt11char_traitsIcEEEE13_C_maker_funcEiPKcj
    main.o(.ARM.exidx) refers to main.o(t._ZN4__rw16__rw_facet_makerISt7num_putIcSt19ostreambuf_iteratorIcSt11char_traitsIcEEEE13_C_maker_funcEiPKcj.clean) for t._ZN4__rw16__rw_facet_makerISt7num_putIcSt19ostreambuf_iteratorIcSt11char_traitsIcEEEE13_C_maker_funcEiPKcj.clean
    main.o(.ARM.exidx) refers to main.o(t._ZNSaISt4pairIKSsiEEC1ERKS2_) for t._ZNSaISt4pairIKSsiEEC1ERKS2_
    main.o(i._ZN4__rw24__rw_digit_writer_base_1IcED1Ev) refers to main.o(i._ZN4__rw22__rw_digit_writer_baseD1Ev) for __rw::__rw_digit_writer_base::~__rw_digit_writer_base()
    main.o(.ARM.exidx) refers to main.o(i._ZN4__rw24__rw_digit_writer_base_1IcED1Ev) for i._ZN4__rw24__rw_digit_writer_base_1IcED1Ev
    main.o(.ARM.exidx) refers to unwind_pr0.o(.text) for __aeabi_unwind_cpp_pr0
    main.o(t._ZN4__rw16__rw_facet_makerISt8numpunctIcEE13_C_maker_funcEiPKcj) refers to new.o(i._Znwj) for operator new(unsigned)
    main.o(t._ZN4__rw16__rw_facet_makerISt8numpunctIcEE13_C_maker_funcEiPKcj) refers to main.o(t._ZNSt8numpunctIcEC1EjPKN4__rw23__rw_numpunct_init_dataIcEE) for std::numpunct<char>::numpunct(unsigned, const __rw::__rw_numpunct_init_data<char>*)
    main.o(t._ZN4__rw16__rw_facet_makerISt8numpunctIcEE13_C_maker_funcEiPKcj) refers to main.o(t._ZNSt15numpunct_bynameIcEC1EPKcj) for std::numpunct_byname<char>::numpunct_byname(const char*, unsigned)
    main.o(t._ZN4__rw16__rw_facet_makerISt8numpunctIcEE13_C_maker_funcEiPKcj) refers to main.o(.constdata__ZN4__rw18__rw_numpunct_implIcE8_C_ivalsE) for __rw::__rw_numpunct_impl<char>::_C_ivals
    main.o(t._ZN4__rw16__rw_facet_makerISt8numpunctIcEE13_C_maker_funcEiPKcj) refers to main.o(.constdata__ZZN4__rw24__rw_create_native_facetISt8numpunctIcEEEPT_S4_Es) for T1* __rw::__rw_create_native_facet<std::numpunct<char>>(T1*)::string
    main.o(t._ZN4__rw16__rw_facet_makerISt8numpunctIcEE13_C_maker_funcEiPKcj.clean) refers to delete.o(i._ZdlPv) for operator delete (void*)
    main.o(t._ZN4__rw16__rw_facet_makerISt8numpunctIcEE13_C_maker_funcEiPKcj.clean) refers to arm_exceptions_cleanup.o(.emb_text) for __cxa_end_cleanup
    main.o(.ARM.extab) refers to main.o(t._ZN4__rw16__rw_facet_makerISt8numpunctIcEE13_C_maker_funcEiPKcj.clean) for t._ZN4__rw16__rw_facet_makerISt8numpunctIcEE13_C_maker_funcEiPKcj.clean
    main.o(.ARM.exidx) refers to main.o(t._ZN4__rw16__rw_facet_makerISt8numpunctIcEE13_C_maker_funcEiPKcj) for t._ZN4__rw16__rw_facet_makerISt8numpunctIcEE13_C_maker_funcEiPKcj
    main.o(.ARM.exidx) refers to unwind_pr0.o(.text) for __aeabi_unwind_cpp_pr0
    main.o(.ARM.exidx) refers to main.o(.ARM.extab) for .extab._ZN4__rw16__rw_facet_makerISt8numpunctIcEE13_C_maker_funcEiPKcj
    main.o(.ARM.exidx) refers to main.o(t._ZN4__rw16__rw_facet_makerISt8numpunctIcEE13_C_maker_funcEiPKcj.clean) for t._ZN4__rw16__rw_facet_makerISt8numpunctIcEE13_C_maker_funcEiPKcj.clean
    main.o(t._ZN4__rw18__rw_locale_vectorIPNS_15__rw_facet_baseEED1Ev) refers to array_del.o(i._ZdaPv) for operator delete[] (void*)
    main.o(.ARM.exidx) refers to main.o(t._ZN4__rw18__rw_locale_vectorIPNS_15__rw_facet_baseEED1Ev) for t._ZN4__rw18__rw_locale_vectorIPNS_15__rw_facet_baseEED1Ev
    main.o(t._ZN4__rw18__rw_locale_vectorISsED1Ev) refers to aeabi_vec_delete.o(i.__aeabi_vec_delete) for __aeabi_vec_delete
    main.o(t._ZN4__rw18__rw_locale_vectorISsED1Ev) refers to main.o(t._ZNSsD1Ev) for std::basic_string<char, std::char_traits<char>, std::allocator<char>>::~basic_string()
    main.o(.ARM.exidx) refers to main.o(t._ZN4__rw18__rw_locale_vectorISsED1Ev) for t._ZN4__rw18__rw_locale_vectorISsED1Ev
    main.o(.ARM.exidx) refers to unwind_pr0.o(.text) for __aeabi_unwind_cpp_pr0
    main.o(t._ZN4__rw16__rw_facet_makerISt5ctypeIcEE13_C_maker_funcEiPKcj) refers to new.o(i._Znwj) for operator new(unsigned)
    main.o(t._ZN4__rw16__rw_facet_makerISt5ctypeIcEE13_C_maker_funcEiPKcj) refers to char.o(i._ZNSt5ctypeIcEC1EPKNSt10ctype_base4maskEbj) for std::ctype<char>::ctype(const std::ctype_base::mask*, bool, unsigned)
    main.o(t._ZN4__rw16__rw_facet_makerISt5ctypeIcEE13_C_maker_funcEiPKcj) refers to char.o(i._ZNSt12ctype_bynameIcEC1EPKcj) for std::ctype_byname<char>::ctype_byname(const char*, unsigned)
    main.o(t._ZN4__rw16__rw_facet_makerISt5ctypeIcEE13_C_maker_funcEiPKcj.clean) refers to delete.o(i._ZdlPv) for operator delete (void*)
    main.o(t._ZN4__rw16__rw_facet_makerISt5ctypeIcEE13_C_maker_funcEiPKcj.clean) refers to arm_exceptions_cleanup.o(.emb_text) for __cxa_end_cleanup
    main.o(.ARM.extab) refers to main.o(t._ZN4__rw16__rw_facet_makerISt5ctypeIcEE13_C_maker_funcEiPKcj.clean) for t._ZN4__rw16__rw_facet_makerISt5ctypeIcEE13_C_maker_funcEiPKcj.clean
    main.o(.ARM.exidx) refers to main.o(t._ZN4__rw16__rw_facet_makerISt5ctypeIcEE13_C_maker_funcEiPKcj) for t._ZN4__rw16__rw_facet_makerISt5ctypeIcEE13_C_maker_funcEiPKcj
    main.o(.ARM.exidx) refers to unwind_pr0.o(.text) for __aeabi_unwind_cpp_pr0
    main.o(.ARM.exidx) refers to main.o(.ARM.extab) for .extab._ZN4__rw16__rw_facet_makerISt5ctypeIcEE13_C_maker_funcEiPKcj
    main.o(.ARM.exidx) refers to main.o(t._ZN4__rw16__rw_facet_makerISt5ctypeIcEE13_C_maker_funcEiPKcj.clean) for t._ZN4__rw16__rw_facet_makerISt5ctypeIcEE13_C_maker_funcEiPKcj.clean
    main.o(.constdata__ZTVN4__rw15__rw_facet_baseE) refers to main.o(.constdata__ZTIN4__rw15__rw_facet_baseE) for typeinfo for __rw::__rw_facet_base
    main.o(.constdata__ZTVN4__rw15__rw_facet_baseE) refers to main.o(i._ZN4__rw15__rw_facet_baseD1Ev) for __rw::__rw_facet_base::~__rw_facet_base()
    main.o(.constdata__ZTVN4__rw15__rw_facet_baseE) refers to main.o(i._ZN4__rw15__rw_facet_baseD0Ev) for __rw::__rw_facet_base::~__rw_facet_base__deallocating()
    main.o(.constdata__ZTVN4__rw15__rw_facet_baseE) refers to main.o(i._ZN4__rw15__rw_facet_base12_C_initfacetERKSt6locale) for __rw::__rw_facet_base::_C_initfacet(const std::locale&)
    main.o(.constdata__ZTVNSt6locale5facetE) refers to main.o(.constdata__ZTINSt6locale5facetE) for typeinfo for std::locale::facet
    main.o(.constdata__ZTVNSt6locale5facetE) refers to main.o(i._ZNSt6locale5facetD1Ev) for std::locale::facet::~facet()
    main.o(.constdata__ZTVNSt6locale5facetE) refers to main.o(i._ZNSt6locale5facetD0Ev) for std::locale::facet::~facet__deallocating()
    main.o(.constdata__ZTVNSt6locale5facetE) refers to main.o(i._ZN4__rw15__rw_facet_base12_C_initfacetERKSt6locale) for __rw::__rw_facet_base::_C_initfacet(const std::locale&)
    main.o(.constdata__ZTVN4__rw22__rw_digit_writer_baseE) refers to main.o(.constdata__ZTIN4__rw22__rw_digit_writer_baseE) for typeinfo for __rw::__rw_digit_writer_base
    main.o(.constdata__ZTVN4__rw22__rw_digit_writer_baseE) refers to main.o(i._ZN4__rw22__rw_digit_writer_baseD1Ev) for __rw::__rw_digit_writer_base::~__rw_digit_writer_base()
    main.o(.constdata__ZTVN4__rw22__rw_digit_writer_baseE) refers to main.o(i._ZN4__rw22__rw_digit_writer_baseD0Ev) for __rw::__rw_digit_writer_base::~__rw_digit_writer_base__deallocating()
    main.o(.constdata__ZTVSt15numpunct_bynameIcE) refers to main.o(.constdata__ZTISt15numpunct_bynameIcE) for typeinfo for std::numpunct_byname<char>
    main.o(.constdata__ZTVSt15numpunct_bynameIcE) refers to main.o(i._ZNSt15numpunct_bynameIcED1Ev) for std::numpunct_byname<char>::~numpunct_byname()
    main.o(.constdata__ZTVSt15numpunct_bynameIcE) refers to main.o(i._ZNSt15numpunct_bynameIcED0Ev) for std::numpunct_byname<char>::~numpunct_byname__deallocating()
    main.o(.constdata__ZTVSt15numpunct_bynameIcE) refers to main.o(t._ZNSt8numpunctIcE12_C_initfacetERKSt6locale) for std::numpunct<char>::_C_initfacet(const std::locale&)
    main.o(.constdata__ZTVSt15numpunct_bynameIcE) refers to main.o(t._ZNKSt8numpunctIcE16do_decimal_pointEv) for std::numpunct<char>::do_decimal_point() const
    main.o(.constdata__ZTVSt15numpunct_bynameIcE) refers to main.o(t._ZNKSt8numpunctIcE16do_thousands_sepEv) for std::numpunct<char>::do_thousands_sep() const
    main.o(.constdata__ZTVSt15numpunct_bynameIcE) refers to main.o(t._ZNKSt8numpunctIcE11do_groupingEv) for std::numpunct<char>::do_grouping() const
    main.o(.constdata__ZTVSt15numpunct_bynameIcE) refers to main.o(t._ZNKSt8numpunctIcE11do_truenameEv) for std::numpunct<char>::do_truename() const
    main.o(.constdata__ZTVSt15numpunct_bynameIcE) refers to main.o(t._ZNKSt8numpunctIcE12do_falsenameEv) for std::numpunct<char>::do_falsename() const
    main.o(.constdata__ZTISt8numpunctIcE) refers to lib_rtti_impl.o(.constdata__ZTVN10__cxxabiv121__vmi_class_type_infoE) for vtable for __cxxabiv1::__vmi_class_type_info
    main.o(.constdata__ZTISt8numpunctIcE) refers to main.o(.constdata__ZTSSt8numpunctIcE) for typeinfo name for std::numpunct<char>
    main.o(.constdata__ZTISt8numpunctIcE) refers to main.o(.constdata__ZTINSt6locale5facetE) for typeinfo for std::locale::facet
    main.o(.constdata__ZTISt8numpunctIcE) refers to main.o(.constdata__ZTIN4__rw18__rw_numpunct_implIcEE) for typeinfo for __rw::__rw_numpunct_impl<char>
    main.o(.constdata__ZTVN4__rw24__rw_digit_writer_base_1IcEE) refers to main.o(.constdata__ZTIN4__rw24__rw_digit_writer_base_1IcEE) for typeinfo for __rw::__rw_digit_writer_base_1<char>
    main.o(.constdata__ZTVN4__rw24__rw_digit_writer_base_1IcEE) refers to main.o(i._ZN4__rw24__rw_digit_writer_base_1IcED1Ev) for __rw::__rw_digit_writer_base_1<char>::~__rw_digit_writer_base_1()
    main.o(.constdata__ZTVN4__rw24__rw_digit_writer_base_1IcEE) refers to main.o(i._ZN4__rw24__rw_digit_writer_base_1IcED0Ev) for __rw::__rw_digit_writer_base_1<char>::~__rw_digit_writer_base_1__deallocating()
    main.o(.constdata__ZTVN4__rw17__rw_digit_writerIcSt19ostreambuf_iteratorIcSt11char_traitsIcEEEE) refers to main.o(.constdata__ZTIN4__rw17__rw_digit_writerIcSt19ostreambuf_iteratorIcSt11char_traitsIcEEEE) for typeinfo for __rw::__rw_digit_writer<char, std::ostreambuf_iterator<char, std::char_traits<char>>>
    main.o(.constdata__ZTVN4__rw17__rw_digit_writerIcSt19ostreambuf_iteratorIcSt11char_traitsIcEEEE) refers to main.o(i._ZN4__rw17__rw_digit_writerIcSt19ostreambuf_iteratorIcSt11char_traitsIcEEED1Ev) for __rw::__rw_digit_writer<char, std::ostreambuf_iterator<char, std::char_traits<char>>>::~__rw_digit_writer()
    main.o(.constdata__ZTVN4__rw17__rw_digit_writerIcSt19ostreambuf_iteratorIcSt11char_traitsIcEEEE) refers to main.o(i._ZN4__rw17__rw_digit_writerIcSt19ostreambuf_iteratorIcSt11char_traitsIcEEED0Ev) for __rw::__rw_digit_writer<char, std::ostreambuf_iterator<char, std::char_traits<char>>>::~__rw_digit_writer__deallocating()
    main.o(.constdata__ZTISt7num_putIcSt19ostreambuf_iteratorIcSt11char_traitsIcEEE) refers to lib_rtti_impl.o(.constdata__ZTVN10__cxxabiv120__si_class_type_infoE) for vtable for __cxxabiv1::__si_class_type_info
    main.o(.constdata__ZTISt7num_putIcSt19ostreambuf_iteratorIcSt11char_traitsIcEEE) refers to main.o(.constdata__ZTSSt7num_putIcSt19ostreambuf_iteratorIcSt11char_traitsIcEEE) for typeinfo name for std::num_put<char, std::ostreambuf_iterator<char, std::char_traits<char>>>
    main.o(.constdata__ZTISt7num_putIcSt19ostreambuf_iteratorIcSt11char_traitsIcEEE) refers to main.o(.constdata__ZTINSt6locale5facetE) for typeinfo for std::locale::facet
    main.o(.constdata__ZN4__rw18__rw_numpunct_implIcE8_C_ivalsE) refers to main.o(.conststring__ZN4__rw18__rw_numpunct_implIcE8_C_ivalsE) for .conststring__ZN4__rw18__rw_numpunct_implIcE8_C_ivalsE
    main.o(.constdata__ZN4__rw18__rw_numpunct_implIcE8_C_ivalsE) refers to main.o(.constdata__ZN4__rw14__rw_bool_nameIcE7_C_nameE) for __rw::__rw_bool_name<char>::_C_name
    main.o(.constdata__ZTINSt6locale5facetE) refers to lib_rtti_impl.o(.constdata__ZTVN10__cxxabiv120__si_class_type_infoE) for vtable for __cxxabiv1::__si_class_type_info
    main.o(.constdata__ZTINSt6locale5facetE) refers to main.o(.constdata__ZTSNSt6locale5facetE) for typeinfo name for std::locale::facet
    main.o(.constdata__ZTINSt6locale5facetE) refers to main.o(.constdata__ZTIN4__rw15__rw_facet_baseE) for typeinfo for __rw::__rw_facet_base
    main.o(.constdata__ZTIN4__rw15__rw_facet_baseE) refers to lib_rtti_impl.o(.constdata__ZTVN10__cxxabiv120__si_class_type_infoE) for vtable for __cxxabiv1::__si_class_type_info
    main.o(.constdata__ZTIN4__rw15__rw_facet_baseE) refers to main.o(.constdata__ZTSN4__rw15__rw_facet_baseE) for typeinfo name for __rw::__rw_facet_base
    main.o(.constdata__ZTIN4__rw15__rw_facet_baseE) refers to main.o(.constdata__ZTIN4__rw17__rw_synchronizedE) for typeinfo for __rw::__rw_synchronized
    main.o(.constdata__ZTISt15numpunct_bynameIcE) refers to lib_rtti_impl.o(.constdata__ZTVN10__cxxabiv120__si_class_type_infoE) for vtable for __cxxabiv1::__si_class_type_info
    main.o(.constdata__ZTISt15numpunct_bynameIcE) refers to main.o(.constdata__ZTSSt15numpunct_bynameIcE) for typeinfo name for std::numpunct_byname<char>
    main.o(.constdata__ZTISt15numpunct_bynameIcE) refers to main.o(.constdata__ZTISt8numpunctIcE) for typeinfo for std::numpunct<char>
    main.o(.constdata__ZTIN4__rw22__rw_digit_writer_baseE) refers to lib_rtti_impl.o(.constdata__ZTVN10__cxxabiv120__si_class_type_infoE) for vtable for __cxxabiv1::__si_class_type_info
    main.o(.constdata__ZTIN4__rw22__rw_digit_writer_baseE) refers to main.o(.constdata__ZTSN4__rw22__rw_digit_writer_baseE) for typeinfo name for __rw::__rw_digit_writer_base
    main.o(.constdata__ZTIN4__rw22__rw_digit_writer_baseE) refers to main.o(.constdata__ZTIN4__rw19__rw_digit_map_baseE) for typeinfo for __rw::__rw_digit_map_base
    main.o(.constdata__ZTIN4__rw24__rw_digit_writer_base_1IcEE) refers to lib_rtti_impl.o(.constdata__ZTVN10__cxxabiv121__vmi_class_type_infoE) for vtable for __cxxabiv1::__vmi_class_type_info
    main.o(.constdata__ZTIN4__rw24__rw_digit_writer_base_1IcEE) refers to main.o(.constdata__ZTSN4__rw24__rw_digit_writer_base_1IcEE) for typeinfo name for __rw::__rw_digit_writer_base_1<char>
    main.o(.constdata__ZTIN4__rw24__rw_digit_writer_base_1IcEE) refers to main.o(.constdata__ZTIN4__rw22__rw_digit_writer_baseE) for typeinfo for __rw::__rw_digit_writer_base
    main.o(.constdata__ZTIN4__rw24__rw_digit_writer_base_1IcEE) refers to main.o(.constdata__ZTIN4__rw25__rw_digit_handler_base_1IcEE) for typeinfo for __rw::__rw_digit_handler_base_1<char>
    main.o(.constdata__ZTIN4__rw17__rw_digit_writerIcSt19ostreambuf_iteratorIcSt11char_traitsIcEEEE) refers to lib_rtti_impl.o(.constdata__ZTVN10__cxxabiv120__si_class_type_infoE) for vtable for __cxxabiv1::__si_class_type_info
    main.o(.constdata__ZTIN4__rw17__rw_digit_writerIcSt19ostreambuf_iteratorIcSt11char_traitsIcEEEE) refers to main.o(.constdata__ZTSN4__rw17__rw_digit_writerIcSt19ostreambuf_iteratorIcSt11char_traitsIcEEEE) for typeinfo name for __rw::__rw_digit_writer<char, std::ostreambuf_iterator<char, std::char_traits<char>>>
    main.o(.constdata__ZTIN4__rw17__rw_digit_writerIcSt19ostreambuf_iteratorIcSt11char_traitsIcEEEE) refers to main.o(.constdata__ZTIN4__rw24__rw_digit_writer_base_1IcEE) for typeinfo for __rw::__rw_digit_writer_base_1<char>
    main.o(.constdata__ZTIN4__rw18__rw_numpunct_implIcEE) refers to lib_rtti_impl.o(.constdata__ZTVN10__cxxabiv120__si_class_type_infoE) for vtable for __cxxabiv1::__si_class_type_info
    main.o(.constdata__ZTIN4__rw18__rw_numpunct_implIcEE) refers to main.o(.constdata__ZTSN4__rw18__rw_numpunct_implIcEE) for typeinfo name for __rw::__rw_numpunct_impl<char>
    main.o(.constdata__ZTIN4__rw18__rw_numpunct_implIcEE) refers to main.o(.constdata__ZTIN4__rw23__rw_numpunct_impl_dataIcEE) for typeinfo for __rw::__rw_numpunct_impl_data<char>
    main.o(.constdata__ZTIN4__rw17__rw_synchronizedE) refers to lib_rtti_impl.o(.constdata__ZTVN10__cxxabiv117__class_type_infoE) for vtable for __cxxabiv1::__class_type_info
    main.o(.constdata__ZTIN4__rw17__rw_synchronizedE) refers to main.o(.constdata__ZTSN4__rw17__rw_synchronizedE) for typeinfo name for __rw::__rw_synchronized
    main.o(.constdata__ZTIN4__rw23__rw_numpunct_impl_dataIcEE) refers to lib_rtti_impl.o(.constdata__ZTVN10__cxxabiv121__vmi_class_type_infoE) for vtable for __cxxabiv1::__vmi_class_type_info
    main.o(.constdata__ZTIN4__rw23__rw_numpunct_impl_dataIcEE) refers to main.o(.constdata__ZTSN4__rw23__rw_numpunct_impl_dataIcEE) for typeinfo name for __rw::__rw_numpunct_impl_data<char>
    main.o(.constdata__ZTIN4__rw23__rw_numpunct_impl_dataIcEE) refers to main.o(.constdata__ZTIN4__rw23__rw_numpunct_impl_baseE) for typeinfo for __rw::__rw_numpunct_impl_base
    main.o(.constdata__ZTIN4__rw23__rw_numpunct_impl_dataIcEE) refers to main.o(.constdata__ZTIN4__rw15__rw_punct_dataIcEE) for typeinfo for __rw::__rw_punct_data<char>
    main.o(.constdata__ZTIN4__rw19__rw_digit_map_baseE) refers to lib_rtti_impl.o(.constdata__ZTVN10__cxxabiv117__class_type_infoE) for vtable for __cxxabiv1::__class_type_info
    main.o(.constdata__ZTIN4__rw19__rw_digit_map_baseE) refers to main.o(.constdata__ZTSN4__rw19__rw_digit_map_baseE) for typeinfo name for __rw::__rw_digit_map_base
    main.o(.constdata__ZTIN4__rw25__rw_digit_handler_base_1IcEE) refers to lib_rtti_impl.o(.constdata__ZTVN10__cxxabiv120__si_class_type_infoE) for vtable for __cxxabiv1::__si_class_type_info
    main.o(.constdata__ZTIN4__rw25__rw_digit_handler_base_1IcEE) refers to main.o(.constdata__ZTSN4__rw25__rw_digit_handler_base_1IcEE) for typeinfo name for __rw::__rw_digit_handler_base_1<char>
    main.o(.constdata__ZTIN4__rw25__rw_digit_handler_base_1IcEE) refers to main.o(.constdata__ZTIN4__rw20__rw_keyword_crackerIcEE) for typeinfo for __rw::__rw_keyword_cracker<char>
    main.o(.constdata__ZTIN4__rw23__rw_numpunct_impl_baseE) refers to lib_rtti_impl.o(.constdata__ZTVN10__cxxabiv117__class_type_infoE) for vtable for __cxxabiv1::__class_type_info
    main.o(.constdata__ZTIN4__rw23__rw_numpunct_impl_baseE) refers to main.o(.constdata__ZTSN4__rw23__rw_numpunct_impl_baseE) for typeinfo name for __rw::__rw_numpunct_impl_base
    main.o(.constdata__ZTIN4__rw15__rw_punct_dataIcEE) refers to lib_rtti_impl.o(.constdata__ZTVN10__cxxabiv117__class_type_infoE) for vtable for __cxxabiv1::__class_type_info
    main.o(.constdata__ZTIN4__rw15__rw_punct_dataIcEE) refers to main.o(.constdata__ZTSN4__rw15__rw_punct_dataIcEE) for typeinfo name for __rw::__rw_punct_data<char>
    main.o(.constdata__ZTIN4__rw20__rw_keyword_crackerIcEE) refers to lib_rtti_impl.o(.constdata__ZTVN10__cxxabiv117__class_type_infoE) for vtable for __cxxabiv1::__class_type_info
    main.o(.constdata__ZTIN4__rw20__rw_keyword_crackerIcEE) refers to main.o(.constdata__ZTSN4__rw20__rw_keyword_crackerIcEE) for typeinfo name for __rw::__rw_keyword_cracker<char>
    main.o(.ARM.exidx) refers to main.o(i._ZN4__rw15__rw_facet_baseD1Ev) for i._ZN4__rw15__rw_facet_baseD1Ev
    main.o(i._ZNSt6locale5facetD0Ev) refers to main.o(i._ZNSt6locale5facetD1Ev) for std::locale::facet::~facet()
    main.o(i._ZNSt6locale5facetD0Ev) refers to delete.o(i._ZdlPv) for operator delete (void*)
    main.o(.ARM.exidx) refers to main.o(i._ZNSt6locale5facetD0Ev) for i._ZNSt6locale5facetD0Ev
    main.o(.ARM.exidx) refers to unwind_pr0.o(.text) for __aeabi_unwind_cpp_pr0
    main.o(i._ZNSt15numpunct_bynameIcED1Ev) refers to main.o(i._ZNSt8numpunctIcED1Ev) for std::numpunct<char>::~numpunct()
    main.o(.ARM.exidx) refers to main.o(i._ZNSt15numpunct_bynameIcED1Ev) for i._ZNSt15numpunct_bynameIcED1Ev
    main.o(.ARM.exidx) refers to unwind_pr0.o(.text) for __aeabi_unwind_cpp_pr0
    main.o(i._ZNSt15numpunct_bynameIcED0Ev) refers to main.o(i._ZNSt15numpunct_bynameIcED1Ev) for std::numpunct_byname<char>::~numpunct_byname()
    main.o(i._ZNSt15numpunct_bynameIcED0Ev) refers to delete.o(i._ZdlPv) for operator delete (void*)
    main.o(.ARM.exidx) refers to main.o(i._ZNSt15numpunct_bynameIcED0Ev) for i._ZNSt15numpunct_bynameIcED0Ev
    main.o(.ARM.exidx) refers to unwind_pr0.o(.text) for __aeabi_unwind_cpp_pr0
    main.o(i._ZN4__rw15__rw_facet_baseD0Ev) refers to delete.o(i._ZdlPv) for operator delete (void*)
    main.o(.ARM.exidx) refers to main.o(i._ZN4__rw15__rw_facet_baseD0Ev) for i._ZN4__rw15__rw_facet_baseD0Ev
    main.o(i._ZN4__rw22__rw_digit_writer_baseD0Ev) refers to main.o(i._ZN4__rw22__rw_digit_writer_baseD1Ev) for __rw::__rw_digit_writer_base::~__rw_digit_writer_base()
    main.o(i._ZN4__rw22__rw_digit_writer_baseD0Ev) refers to delete.o(i._ZdlPv) for operator delete (void*)
    main.o(.ARM.exidx) refers to main.o(i._ZN4__rw22__rw_digit_writer_baseD0Ev) for i._ZN4__rw22__rw_digit_writer_baseD0Ev
    main.o(.ARM.exidx) refers to unwind_pr0.o(.text) for __aeabi_unwind_cpp_pr0
    main.o(i._ZN4__rw24__rw_digit_writer_base_1IcED0Ev) refers to main.o(i._ZN4__rw24__rw_digit_writer_base_1IcED1Ev) for __rw::__rw_digit_writer_base_1<char>::~__rw_digit_writer_base_1()
    main.o(i._ZN4__rw24__rw_digit_writer_base_1IcED0Ev) refers to delete.o(i._ZdlPv) for operator delete (void*)
    main.o(.ARM.exidx) refers to main.o(i._ZN4__rw24__rw_digit_writer_base_1IcED0Ev) for i._ZN4__rw24__rw_digit_writer_base_1IcED0Ev
    main.o(.ARM.exidx) refers to unwind_pr0.o(.text) for __aeabi_unwind_cpp_pr0
    main.o(i._ZN4__rw17__rw_digit_writerIcSt19ostreambuf_iteratorIcSt11char_traitsIcEEED0Ev) refers to main.o(i._ZN4__rw17__rw_digit_writerIcSt19ostreambuf_iteratorIcSt11char_traitsIcEEED1Ev) for __rw::__rw_digit_writer<char, std::ostreambuf_iterator<char, std::char_traits<char>>>::~__rw_digit_writer()
    main.o(i._ZN4__rw17__rw_digit_writerIcSt19ostreambuf_iteratorIcSt11char_traitsIcEEED0Ev) refers to delete.o(i._ZdlPv) for operator delete (void*)
    main.o(.ARM.exidx) refers to main.o(i._ZN4__rw17__rw_digit_writerIcSt19ostreambuf_iteratorIcSt11char_traitsIcEEED0Ev) for i._ZN4__rw17__rw_digit_writerIcSt19ostreambuf_iteratorIcSt11char_traitsIcEEED0Ev
    main.o(.ARM.exidx) refers to unwind_pr0.o(.text) for __aeabi_unwind_cpp_pr0
    char.o(.constdata__ZTVSt5ctypeIcE) refers to char.o(.constdata__ZTISt5ctypeIcE) for typeinfo for std::ctype<char>
    char.o(.constdata__ZTVSt5ctypeIcE) refers to char.o(i._ZNSt5ctypeIcED1Ev) for std::ctype<char>::~ctype()
    char.o(.constdata__ZTVSt5ctypeIcE) refers to char.o(i._ZNSt5ctypeIcED0Ev) for std::ctype<char>::~ctype__deallocating()
    char.o(.constdata__ZTVSt5ctypeIcE) refers to char.o(i._ZNSt5ctypeIcE12_C_initfacetERKSt6locale) for std::ctype<char>::_C_initfacet(const std::locale&)
    char.o(.constdata__ZTVSt5ctypeIcE) refers to char.o(i._ZNKSt5ctypeIcE10do_toupperEPcPKc) for std::ctype<char>::do_toupper(char*, const char*) const
    char.o(.constdata__ZTVSt5ctypeIcE) refers to char.o(i._ZNKSt5ctypeIcE10do_tolowerEPcPKc) for std::ctype<char>::do_tolower(char*, const char*) const
    char.o(.constdata__ZTVSt5ctypeIcE) refers to char.o(i._ZNKSt5ctypeIcE10do_toupperEc) for std::ctype<char>::do_toupper(char) const
    char.o(.constdata__ZTVSt5ctypeIcE) refers to char.o(i._ZNKSt5ctypeIcE10do_tolowerEc) for std::ctype<char>::do_tolower(char) const
    char.o(.constdata__ZTVSt5ctypeIcE) refers to char.o(i._ZNKSt5ctypeIcE8do_widenEc) for std::ctype<char>::do_widen(char) const
    char.o(.constdata__ZTVSt5ctypeIcE) refers to char.o(i._ZNKSt5ctypeIcE8do_widenEPKcS2_Pc) for std::ctype<char>::do_widen(const char*, const char*, char*) const
    char.o(.constdata__ZTVSt5ctypeIcE) refers to char.o(i._ZNKSt5ctypeIcE9do_narrowEcc) for std::ctype<char>::do_narrow(char, char) const
    char.o(.constdata__ZTVSt5ctypeIcE) refers to char.o(i._ZNKSt5ctypeIcE9do_narrowEPKcS2_cPc) for std::ctype<char>::do_narrow(const char*, const char*, char, char*) const
    char.o(.constdata__ZTVSt7collateIcE) refers to char.o(.constdata__ZTISt7collateIcE) for typeinfo for std::collate<char>
    char.o(.constdata__ZTVSt7collateIcE) refers to char.o(i._ZNSt7collateIcED1Ev) for std::collate<char>::~collate()
    char.o(.constdata__ZTVSt7collateIcE) refers to char.o(i._ZNSt7collateIcED0Ev) for std::collate<char>::~collate__deallocating()
    char.o(.constdata__ZTVSt7collateIcE) refers to main.o(i._ZN4__rw15__rw_facet_base12_C_initfacetERKSt6locale) for __rw::__rw_facet_base::_C_initfacet(const std::locale&)
    char.o(.constdata__ZTVSt7collateIcE) refers to char.o(t._ZNKSt7collateIcE10do_compareEPKcS2_S2_S2_) for std::collate<char>::do_compare(const char*, const char*, const char*, const char*) const
    char.o(.constdata__ZTVSt7collateIcE) refers to char.o(t._ZNKSt7collateIcE12do_transformEPKcS2_) for std::collate<char>::do_transform(const char*, const char*) const
    char.o(.constdata__ZTVSt7collateIcE) refers to char.o(t._ZNKSt7collateIcE7do_hashEPKcS2_) for std::collate<char>::do_hash(const char*, const char*) const
    char.o(.constdata__ZTVSt14collate_bynameIcE) refers to char.o(.constdata__ZTISt14collate_bynameIcE) for typeinfo for std::collate_byname<char>
    char.o(.constdata__ZTVSt14collate_bynameIcE) refers to char.o(i._ZNSt14collate_bynameIcED1Ev) for std::collate_byname<char>::~collate_byname()
    char.o(.constdata__ZTVSt14collate_bynameIcE) refers to char.o(i._ZNSt14collate_bynameIcED0Ev) for std::collate_byname<char>::~collate_byname__deallocating()
    char.o(.constdata__ZTVSt14collate_bynameIcE) refers to main.o(i._ZN4__rw15__rw_facet_base12_C_initfacetERKSt6locale) for __rw::__rw_facet_base::_C_initfacet(const std::locale&)
    char.o(.constdata__ZTVSt14collate_bynameIcE) refers to char.o(i._ZNKSt14collate_bynameIcE10do_compareEPKcS2_S2_S2_) for std::collate_byname<char>::do_compare(const char*, const char*, const char*, const char*) const
    char.o(.constdata__ZTVSt14collate_bynameIcE) refers to char.o(i._ZNKSt14collate_bynameIcE12do_transformEPKcS2_) for std::collate_byname<char>::do_transform(const char*, const char*) const
    char.o(.constdata__ZTVSt14collate_bynameIcE) refers to char.o(t._ZNKSt7collateIcE7do_hashEPKcS2_) for std::collate<char>::do_hash(const char*, const char*) const
    char.o(t._ZNSsC1EPKcjRKSaIcE) refers to main.o(t._ZNSaIcEC1ERKS_) for std::allocator<char>::allocator(const std::allocator<char>&)
    char.o(t._ZNSsC1EPKcjRKSaIcE) refers to rwstdexcept.o(i._ZN4__rw10__rw_throwEiz) for __rw::__rw_throw(int, ...)
    char.o(t._ZNSsC1EPKcjRKSaIcE) refers to main.o(t._ZSt3maxIjERKT_S2_S2_) for const T1& std::max<unsigned>(const T1&, const T1&)
    char.o(t._ZNSsC1EPKcjRKSaIcE) refers to main.o(t._ZNSs9_C_getRepEjj) for std::basic_string<char, std::char_traits<char>, std::allocator<char>>::_C_getRep(unsigned, unsigned)
    char.o(t._ZNSsC1EPKcjRKSaIcE) refers to main.o(i._ZNSt11char_traitsIcE4copyEPcPKcj) for std::char_traits<char>::copy(char*, const char*, unsigned)
    char.o(t._ZNSsC1EPKcjRKSaIcE) refers to char.o(.constdata__ZZNSsC1EPKcjRKSaIcEEs) for std::basic_string<char, std::char_traits<char>, std::allocator<char>>::basic_string(const char*, unsigned, const std::allocator<char>&)::string
    char.o(t._ZNSsC1EPKcjRKSaIcE) refers to rwthrowproc_impl.o(.bss__ZNSs9__nullrefE) for std::basic_string<char, std::char_traits<char>, std::allocator<char>>::__nullref
    char.o(.ARM.exidx) refers to char.o(t._ZNSsC1EPKcjRKSaIcE) for t._ZNSsC1EPKcjRKSaIcE
    char.o(.ARM.exidx) refers to unwind_pr0.o(.text) for __aeabi_unwind_cpp_pr0
    char.o(t._ZNSs5beginEv) refers to main.o(t._ZNSs9_C_getRepEjj) for std::basic_string<char, std::char_traits<char>, std::allocator<char>>::_C_getRep(unsigned, unsigned)
    char.o(t._ZNSs5beginEv) refers to main.o(i._ZNSt11char_traitsIcE4copyEPcPKcj) for std::char_traits<char>::copy(char*, const char*, unsigned)
    char.o(t._ZNSs5beginEv) refers to main.o(t._ZNSs9_C_unlinkEv) for std::basic_string<char, std::char_traits<char>, std::allocator<char>>::_C_unlink()
    char.o(t._ZNSs5beginEv) refers to rwthrowproc_impl.o(.bss__ZNSs9__nullrefE) for std::basic_string<char, std::char_traits<char>, std::allocator<char>>::__nullref
    char.o(.ARM.exidx) refers to char.o(t._ZNSs5beginEv) for t._ZNSs5beginEv
    char.o(.ARM.exidx) refers to unwind_pr0.o(.text) for __aeabi_unwind_cpp_pr0
    char.o(i._ZNSt5ctypeIcED1Ev) refers to array_del.o(i._ZdaPv) for operator delete[] (void*)
    char.o(i._ZNSt5ctypeIcED1Ev) refers to main.o(i._ZNSt6locale5facetD1Ev) for std::locale::facet::~facet()
    char.o(i._ZNSt5ctypeIcED1Ev) refers to char.o(.constdata__ZTVSt5ctypeIcE) for vtable for std::ctype<char>
    char.o(.ARM.exidx) refers to char.o(i._ZNSt5ctypeIcED1Ev) for i._ZNSt5ctypeIcED1Ev
    char.o(.ARM.exidx) refers to char.o(t._ZNK4__rw17__rw_collate_dataIcE13_C_coll_orderEc) for t._ZNK4__rw17__rw_collate_dataIcE13_C_coll_orderEc
    char.o(t._ZNKSt7collateIcE10do_compareEPKcS2_S2_S2_) refers to char.o(t._ZNK4__rw17__rw_collate_dataIcE13_C_coll_orderEc) for __rw::__rw_collate_data<char>::_C_coll_order(char) const
    char.o(.ARM.exidx) refers to char.o(t._ZNKSt7collateIcE10do_compareEPKcS2_S2_S2_) for t._ZNKSt7collateIcE10do_compareEPKcS2_S2_S2_
    char.o(.ARM.exidx) refers to unwind_pr1.o(.text) for __aeabi_unwind_cpp_pr1
    char.o(.ARM.exidx) refers to char.o(.ARM.extab) for .extab._ZNKSt7collateIcE10do_compareEPKcS2_S2_S2_
    char.o(t._ZNKSt7collateIcE12do_transformEPKcS2_) refers to main.o(t._ZNSaIcEC1Ev) for std::allocator<char>::allocator()
    char.o(t._ZNKSt7collateIcE12do_transformEPKcS2_) refers to char.o(t._ZNSsC1EPKcjRKSaIcE) for std::basic_string<char, std::char_traits<char>, std::allocator<char>>::basic_string(const char*, unsigned, const std::allocator<char>&)
    char.o(t._ZNKSt7collateIcE12do_transformEPKcS2_) refers to char.o(t._ZNSs5beginEv) for std::basic_string<char, std::char_traits<char>, std::allocator<char>>::begin()
    char.o(t._ZNKSt7collateIcE12do_transformEPKcS2_) refers to char.o(t._ZNK4__rw17__rw_collate_dataIcE13_C_coll_orderEc) for __rw::__rw_collate_data<char>::_C_coll_order(char) const
